     1 00000000                                 [FORMAT "WCOFF"]
     2 00000000                                 [INSTRSET "i486p"]
     3 00000000                                 [OPTIMIZE 1]
     4 00000000                                 [OPTION 1]
     5 00000000                                 [BITS 32]
     6 00000000                                 	EXTERN	_io_in16
     7 00000000                                 	EXTERN	_io_out8
     8 00000000                                 	EXTERN	_io_sti
     9 00000000                                 	EXTERN	_io_cli
    10 00000000                                 	EXTERN	_store_cr3
    11 00000000                                 	EXTERN	_io_out16
    12 00000000                                 	EXTERN	_io_out32
    13 00000000                                 	EXTERN	_io_in32
    14 00000000                                 [FILE "acpi.c"]
    15                                          [SECTION .text]
    16 00000000                                 	GLOBAL	_checksum
    17 00000000                                 _checksum:
    18 00000000 55                              	PUSH	EBP
    19 00000001 31 C0                           	XOR	EAX,EAX
    20 00000003 89 E5                           	MOV	EBP,ESP
    21 00000005 31 D2                           	XOR	EDX,EDX
    22 00000007 53                              	PUSH	EBX
    23 00000008 8B 4D 0C                        	MOV	ECX,DWORD [12+EBP]
    24 0000000B 8B 5D 08                        	MOV	EBX,DWORD [8+EBP]
    25 0000000E 39 C8                           	CMP	EAX,ECX
    26 00000010 73 08                           	JAE	L8
    27 00000012                                 L6:
    28 00000012 02 14 18                        	ADD	DL,BYTE [EAX+EBX*1]
    29 00000015 40                              	INC	EAX
    30 00000016 39 C8                           	CMP	EAX,ECX
    31 00000018 72 F8                           	JB	L6
    32 0000001A                                 L8:
    33 0000001A 5B                              	POP	EBX
    34 0000001B 31 C0                           	XOR	EAX,EAX
    35 0000001D 5D                              	POP	EBP
    36 0000001E 84 D2                           	TEST	DL,DL
    37 00000020 0F 94 C0                        	SETE	AL
    38 00000023 C3                              	RET
    39                                          [SECTION .data]
    40 00000000                                 LC0:
    41 00000000 52 53 44 20 50 54 52 20 00      	DB	"RSD PTR ",0x00
    42                                          [SECTION .text]
    43 00000024                                 	GLOBAL	_acpi_find_rsdp
    44 00000024                                 _acpi_find_rsdp:
    45 00000024 55                              	PUSH	EBP
    46 00000025 89 E5                           	MOV	EBP,ESP
    47 00000027 57                              	PUSH	EDI
    48 00000028 56                              	PUSH	ESI
    49 00000029 53                              	PUSH	EBX
    50 0000002A BB 000E0000                     	MOV	EBX,917504
    51 0000002F                                 L16:
    52 0000002F FC                              	CLD
    53 00000030 89 DE                           	MOV	ESI,EBX
    54 00000032 BF [00000000]                   	MOV	EDI,LC0
    55 00000037 B9 00000008                     	MOV	ECX,8
    56 0000003C F3                              	REPE
    57 0000003D A6                              	CMPSB
    58 0000003E 74 17                           	JE	L19
    59 00000040                                 L12:
    60 00000040 83 C3 04                        	ADD	EBX,4
    61 00000043 81 FB 000FFFFF                  	CMP	EBX,1048575
    62 00000049 76 E4                           	JBE	L16
    63 0000004B 31 D2                           	XOR	EDX,EDX
    64 0000004D                                 L9:
    65 0000004D 8D 65 F4                        	LEA	ESP,DWORD [-12+EBP]
    66 00000050 89 D0                           	MOV	EAX,EDX
    67 00000052 5B                              	POP	EBX
    68 00000053 5E                              	POP	ESI
    69 00000054 5F                              	POP	EDI
    70 00000055 5D                              	POP	EBP
    71 00000056 C3                              	RET
    72 00000057                                 L19:
    73 00000057 FF 73 14                        	PUSH	DWORD [20+EBX]
    74 0000005A 53                              	PUSH	EBX
    75 0000005B E8 FFFFFFA0                     	CALL	_checksum
    76 00000060 5A                              	POP	EDX
    77 00000061 59                              	POP	ECX
    78 00000062 84 C0                           	TEST	AL,AL
    79 00000064 89 DA                           	MOV	EDX,EBX
    80 00000066 74 D8                           	JE	L12
    81 00000068 EB E3                           	JMP	L9
    82 0000006A                                 	GLOBAL	_acpi_find_table
    83 0000006A                                 _acpi_find_table:
    84 0000006A 55                              	PUSH	EBP
    85 0000006B 89 E5                           	MOV	EBP,ESP
    86 0000006D 57                              	PUSH	EDI
    87 0000006E 56                              	PUSH	ESI
    88 0000006F 53                              	PUSH	EBX
    89 00000070 83 EC 10                        	SUB	ESP,16
    90 00000073 A1 [0000001C]                   	MOV	EAX,DWORD [_RSDT]
    91 00000078 C7 45 F0 00000000               	MOV	DWORD [-16+EBP],0
    92 0000007F 8B 58 04                        	MOV	EBX,DWORD [4+EAX]
    93 00000082 89 45 EC                        	MOV	DWORD [-20+EBP],EAX
    94 00000085 83 EB 24                        	SUB	EBX,36
    95 00000088 C1 EB 02                        	SHR	EBX,2
    96 0000008B 39 5D F0                        	CMP	DWORD [-16+EBP],EBX
    97 0000008E 7D 3B                           	JGE	L28
    98 00000090 C7 45 E8 00000000               	MOV	DWORD [-24+EBP],0
    99 00000097                                 L26:
   100 00000097 8B 55 EC                        	MOV	EDX,DWORD [-20+EBP]
   101 0000009A 8B 4D E8                        	MOV	ECX,DWORD [-24+EBP]
   102 0000009D B8 00000004                     	MOV	EAX,4
   103 000000A2 8B 7D 08                        	MOV	EDI,DWORD [8+EBP]
   104 000000A5 03 4A 24                        	ADD	ECX,DWORD [36+EDX]
   105 000000A8 FC                              	CLD
   106 000000A9 89 4D E4                        	MOV	DWORD [-28+EBP],ECX
   107 000000AC 89 CE                           	MOV	ESI,ECX
   108 000000AE 89 C1                           	MOV	ECX,EAX
   109 000000B0 F3                              	REPE
   110 000000B1 A6                              	CMPSB
   111 000000B2 0F 97 C2                        	SETA	DL
   112 000000B5 0F 92 C0                        	SETB	AL
   113 000000B8 8B 4D E4                        	MOV	ECX,DWORD [-28+EBP]
   114 000000BB 38 C2                           	CMP	DL,AL
   115 000000BD 74 0E                           	JE	L20
   116 000000BF FF 45 F0                        	INC	DWORD [-16+EBP]
   117 000000C2 83 45 E8 04                     	ADD	DWORD [-24+EBP],4
   118 000000C6 39 5D F0                        	CMP	DWORD [-16+EBP],EBX
   119 000000C9 7C CC                           	JL	L26
   120 000000CB                                 L28:
   121 000000CB 31 C9                           	XOR	ECX,ECX
   122 000000CD                                 L20:
   123 000000CD 83 C4 10                        	ADD	ESP,16
   124 000000D0 89 C8                           	MOV	EAX,ECX
   125 000000D2 5B                              	POP	EBX
   126 000000D3 5E                              	POP	ESI
   127 000000D4 5F                              	POP	EDI
   128 000000D5 5D                              	POP	EBP
   129 000000D6 C3                              	RET
   130                                          [SECTION .data]
   131 00000009                                 LC1:
   132 00000009 46 41 43 50 00                  	DB	"FACP",0x00
   133                                          [SECTION .text]
   134 000000D7                                 	GLOBAL	_init_acpi
   135 000000D7                                 _init_acpi:
   136 000000D7 55                              	PUSH	EBP
   137 000000D8 89 E5                           	MOV	EBP,ESP
   138 000000DA 56                              	PUSH	ESI
   139 000000DB 53                              	PUSH	EBX
   140 000000DC E8 FFFFFF43                     	CALL	_acpi_find_rsdp
   141 000000E1 A3 [00000018]                   	MOV	DWORD [_RSDP],EAX
   142 000000E6 85 C0                           	TEST	EAX,EAX
   143 000000E8 75 07                           	JNE	L64
   144 000000EA                                 L29:
   145 000000EA 8D 65 F8                        	LEA	ESP,DWORD [-8+EBP]
   146 000000ED 5B                              	POP	EBX
   147 000000EE 5E                              	POP	ESI
   148 000000EF 5D                              	POP	EBP
   149 000000F0 C3                              	RET
   150 000000F1                                 L64:
   151 000000F1 8B 40 10                        	MOV	EAX,DWORD [16+EAX]
   152 000000F4 A3 [0000001C]                   	MOV	DWORD [_RSDT],EAX
   153 000000F9 FF 70 04                        	PUSH	DWORD [4+EAX]
   154 000000FC 50                              	PUSH	EAX
   155 000000FD E8 FFFFFEFE                     	CALL	_checksum
   156 00000102 5A                              	POP	EDX
   157 00000103 59                              	POP	ECX
   158 00000104 84 C0                           	TEST	AL,AL
   159 00000106 74 E2                           	JE	L29
   160 00000108 68 [00000009]                   	PUSH	LC1
   161 0000010D E8 FFFFFF58                     	CALL	_acpi_find_table
   162 00000112 A3 [00000020]                   	MOV	DWORD [_FADT],EAX
   163 00000117 FF 70 04                        	PUSH	DWORD [4+EAX]
   164 0000011A 50                              	PUSH	EAX
   165 0000011B E8 FFFFFEE0                     	CALL	_checksum
   166 00000120 83 C4 0C                        	ADD	ESP,12
   167 00000123 84 C0                           	TEST	AL,AL
   168 00000125 74 C3                           	JE	L29
   169 00000127 A1 [00000020]                   	MOV	EAX,DWORD [_FADT]
   170 0000012C FF 70 40                        	PUSH	DWORD [64+EAX]
   171 0000012F E8 [00000000]                   	CALL	_io_in16
   172 00000134 5E                              	POP	ESI
   173 00000135 83 E0 01                        	AND	EAX,1
   174 00000138 75 B0                           	JNE	L29
   175 0000013A 8B 15 [00000020]                	MOV	EDX,DWORD [_FADT]
   176 00000140 83 7A 30 00                     	CMP	DWORD [48+EDX],0
   177 00000144 74 A4                           	JE	L29
   178 00000146 8A 42 34                        	MOV	AL,BYTE [52+EDX]
   179 00000149 84 C0                           	TEST	AL,AL
   180 0000014B 74 9D                           	JE	L29
   181 0000014D 0F B6 C0                        	MOVZX	EAX,AL
   182 00000150 50                              	PUSH	EAX
   183 00000151 31 F6                           	XOR	ESI,ESI
   184 00000153 FF 72 30                        	PUSH	DWORD [48+EDX]
   185 00000156 E8 [00000000]                   	CALL	_io_out8
   186 0000015B 59                              	POP	ECX
   187 0000015C 5B                              	POP	EBX
   188 0000015D                                 L45:
   189 0000015D A1 [00000020]                   	MOV	EAX,DWORD [_FADT]
   190 00000162 FF 70 40                        	PUSH	DWORD [64+EAX]
   191 00000165 E8 [00000000]                   	CALL	_io_in16
   192 0000016A 5A                              	POP	EDX
   193 0000016B 83 E0 01                        	AND	EAX,1
   194 0000016E 75 16                           	JNE	L36
   195 00000170 BB 000F423F                     	MOV	EBX,999999
   196 00000175                                 L44:
   197 00000175 E8 [00000000]                   	CALL	_io_sti
   198 0000017A 4B                              	DEC	EBX
   199 0000017B 79 F8                           	JNS	L44
   200 0000017D 46                              	INC	ESI
   201 0000017E 81 FE 0000012B                  	CMP	ESI,299
   202 00000184 7E D7                           	JLE	L45
   203 00000186                                 L36:
   204 00000186 A1 [00000020]                   	MOV	EAX,DWORD [_FADT]
   205 0000018B 83 78 44 00                     	CMP	DWORD [68+EAX],0
   206 0000018F 0F 84 FFFFFF55                  	JE	L29
   207 00000195 81 FE 0000012B                  	CMP	ESI,299
   208 0000019B 0F 8F FFFFFF49                  	JG	L29
   209 000001A1                                 L57:
   210 000001A1 A1 [00000020]                   	MOV	EAX,DWORD [_FADT]
   211 000001A6 FF 70 44                        	PUSH	DWORD [68+EAX]
   212 000001A9 E8 [00000000]                   	CALL	_io_in16
   213 000001AE 5B                              	POP	EBX
   214 000001AF 83 E0 01                        	AND	EAX,1
   215 000001B2 0F 85 FFFFFF32                  	JNE	L29
   216 000001B8 BB 000F423F                     	MOV	EBX,999999
   217 000001BD                                 L56:
   218 000001BD E8 [00000000]                   	CALL	_io_sti
   219 000001C2 4B                              	DEC	EBX
   220 000001C3 79 F8                           	JNS	L56
   221 000001C5 46                              	INC	ESI
   222 000001C6 81 FE 0000012B                  	CMP	ESI,299
   223 000001CC 7E D3                           	JLE	L57
   224 000001CE E9 FFFFFF17                     	JMP	L29
   225                                          [SECTION .data]
   226 0000000E                                 LC2:
   227 0000000E 44 53 44 54 00                  	DB	"DSDT",0x00
   228 00000013                                 LC3:
   229 00000013 5F 53 35 5F 00                  	DB	"_S5_",0x00
   230                                          [SECTION .text]
   231 000001D3                                 	GLOBAL	_acpi_shutdown
   232 000001D3                                 _acpi_shutdown:
   233 000001D3 55                              	PUSH	EBP
   234 000001D4 89 E5                           	MOV	EBP,ESP
   235 000001D6 57                              	PUSH	EDI
   236 000001D7 56                              	PUSH	ESI
   237 000001D8 53                              	PUSH	EBX
   238 000001D9 83 EC 0C                        	SUB	ESP,12
   239 000001DC E8 [00000000]                   	CALL	_io_cli
   240 000001E1 68 00269000                     	PUSH	2527232
   241 000001E6 E8 [00000000]                   	CALL	_store_cr3
   242 000001EB 68 [0000000E]                   	PUSH	LC2
   243 000001F0 E8 FFFFFE75                     	CALL	_acpi_find_table
   244 000001F5 C7 45 EC 00000000               	MOV	DWORD [-20+EBP],0
   245 000001FC 8B 58 04                        	MOV	EBX,DWORD [4+EAX]
   246 000001FF 89 45 E8                        	MOV	DWORD [-24+EBP],EAX
   247 00000202 83 EB 24                        	SUB	EBX,36
   248 00000205 58                              	POP	EAX
   249 00000206 C1 EB 02                        	SHR	EBX,2
   250 00000209 5A                              	POP	EDX
   251 0000020A 39 5D EC                        	CMP	DWORD [-20+EBP],EBX
   252 0000020D 7D 21                           	JGE	L72
   253 0000020F                                 L71:
   254 0000020F BA [00000013]                   	MOV	EDX,LC3
   255 00000214 B8 00000004                     	MOV	EAX,4
   256 00000219 FC                              	CLD
   257 0000021A 8B 75 E8                        	MOV	ESI,DWORD [-24+EBP]
   258 0000021D 89 D7                           	MOV	EDI,EDX
   259 0000021F 89 C1                           	MOV	ECX,EAX
   260 00000221 F3                              	REPE
   261 00000222 A6                              	CMPSB
   262 00000223 74 18                           	JE	L67
   263 00000225 FF 45 EC                        	INC	DWORD [-20+EBP]
   264 00000228 FF 45 E8                        	INC	DWORD [-24+EBP]
   265 0000022B 39 5D EC                        	CMP	DWORD [-20+EBP],EBX
   266 0000022E 7C DF                           	JL	L71
   267 00000230                                 L72:
   268 00000230 8D 65 F4                        	LEA	ESP,DWORD [-12+EBP]
   269 00000233 B8 00000001                     	MOV	EAX,1
   270 00000238 5B                              	POP	EBX
   271 00000239 5E                              	POP	ESI
   272 0000023A 5F                              	POP	EDI
   273 0000023B 5D                              	POP	EBP
   274 0000023C C3                              	RET
   275 0000023D                                 L67:
   276 0000023D 39 5D EC                        	CMP	DWORD [-20+EBP],EBX
   277 00000240 7D EE                           	JGE	L72
   278 00000242 8B 55 E8                        	MOV	EDX,DWORD [-24+EBP]
   279 00000245 8A 42 FF                        	MOV	AL,BYTE [-1+EDX]
   280 00000248 3C 08                           	CMP	AL,8
   281 0000024A 74 47                           	JE	L74
   282 0000024C 80 7A FE 08                     	CMP	BYTE [-2+EDX],8
   283 00000250 74 3D                           	JE	L79
   284 00000252                                 L73:
   285 00000252 66 81 4D F2 2000                	OR	WORD [-14+EBP],8192
   286 00000258 0F B7 45 F2                     	MOVZX	EAX,WORD [-14+EBP]
   287 0000025C 50                              	PUSH	EAX
   288 0000025D A1 [00000020]                   	MOV	EAX,DWORD [_FADT]
   289 00000262 FF 70 40                        	PUSH	DWORD [64+EAX]
   290 00000265 E8 [00000000]                   	CALL	_io_out16
   291 0000026A 5F                              	POP	EDI
   292 0000026B 8B 15 [00000020]                	MOV	EDX,DWORD [_FADT]
   293 00000271 58                              	POP	EAX
   294 00000272 83 7A 44 00                     	CMP	DWORD [68+EDX],0
   295 00000276 74 B8                           	JE	L72
   296 00000278 66 81 4D F0 2000                	OR	WORD [-16+EBP],8192
   297 0000027E 0F B7 45 F0                     	MOVZX	EAX,WORD [-16+EBP]
   298 00000282 50                              	PUSH	EAX
   299 00000283 FF 72 44                        	PUSH	DWORD [68+EDX]
   300 00000286 E8 [00000000]                   	CALL	_io_out16
   301 0000028B 5B                              	POP	EBX
   302 0000028C 5E                              	POP	ESI
   303 0000028D EB A1                           	JMP	L72
   304 0000028F                                 L79:
   305 0000028F 3C 5C                           	CMP	AL,92
   306 00000291 75 BF                           	JNE	L73
   307 00000293                                 L74:
   308 00000293 8B 4D E8                        	MOV	ECX,DWORD [-24+EBP]
   309 00000296 80 79 04 12                     	CMP	BYTE [4+ECX],18
   310 0000029A 75 B6                           	JNE	L73
   311 0000029C 83 C1 05                        	ADD	ECX,5
   312 0000029F 0F BE 01                        	MOVSX	EAX,BYTE [ECX]
   313 000002A2 25 000000C0                     	AND	EAX,192
   314 000002A7 C1 F8 06                        	SAR	EAX,6
   315 000002AA 01 C8                           	ADD	EAX,ECX
   316 000002AC 8D 78 02                        	LEA	EDI,DWORD [2+EAX]
   317 000002AF 89 7D E8                        	MOV	DWORD [-24+EBP],EDI
   318 000002B2 80 78 02 0A                     	CMP	BYTE [2+EAX],10
   319 000002B6 74 32                           	JE	L80
   320 000002B8                                 L75:
   321 000002B8 8B 45 E8                        	MOV	EAX,DWORD [-24+EBP]
   322 000002BB 66 0F BE 00                     	MOVSX	AX,BYTE [EAX]
   323 000002BF C1 E0 0A                        	SAL	EAX,10
   324 000002C2 FF 45 E8                        	INC	DWORD [-24+EBP]
   325 000002C5 66 89 45 F2                     	MOV	WORD [-14+EBP],AX
   326 000002C9 8B 55 E8                        	MOV	EDX,DWORD [-24+EBP]
   327 000002CC 80 3A 0A                        	CMP	BYTE [EDX],10
   328 000002CF 74 13                           	JE	L81
   329 000002D1                                 L76:
   330 000002D1 8B 4D E8                        	MOV	ECX,DWORD [-24+EBP]
   331 000002D4 66 0F BE 09                     	MOVSX	CX,BYTE [ECX]
   332 000002D8 C1 E1 0A                        	SAL	ECX,10
   333 000002DB 66 89 4D F0                     	MOV	WORD [-16+EBP],CX
   334 000002DF E9 FFFFFF6E                     	JMP	L73
   335 000002E4                                 L81:
   336 000002E4 42                              	INC	EDX
   337 000002E5 89 55 E8                        	MOV	DWORD [-24+EBP],EDX
   338 000002E8 EB E7                           	JMP	L76
   339 000002EA                                 L80:
   340 000002EA 83 C0 03                        	ADD	EAX,3
   341 000002ED 89 45 E8                        	MOV	DWORD [-24+EBP],EAX
   342 000002F0 EB C6                           	JMP	L75
   343 000002F2                                 	GLOBAL	_read_pci_config8
   344 000002F2                                 _read_pci_config8:
   345 000002F2 55                              	PUSH	EBP
   346 000002F3 89 E5                           	MOV	EBP,ESP
   347 000002F5 53                              	PUSH	EBX
   348 000002F6 0F B6 55 08                     	MOVZX	EDX,BYTE [8+EBP]
   349 000002FA 0F B6 45 0C                     	MOVZX	EAX,BYTE [12+EBP]
   350 000002FE C1 E0 0B                        	SAL	EAX,11
   351 00000301 8A 5D 14                        	MOV	BL,BYTE [20+EBP]
   352 00000304 C1 E2 10                        	SAL	EDX,16
   353 00000307 09 C2                           	OR	EDX,EAX
   354 00000309 0F B6 45 10                     	MOVZX	EAX,BYTE [16+EBP]
   355 0000030D C1 E0 08                        	SAL	EAX,8
   356 00000310 09 C2                           	OR	EDX,EAX
   357 00000312 89 D8                           	MOV	EAX,EBX
   358 00000314 25 000000FC                     	AND	EAX,252
   359 00000319 09 C2                           	OR	EDX,EAX
   360 0000031B 81 CA 80000000                  	OR	EDX,-2147483648
   361 00000321 52                              	PUSH	EDX
   362 00000322 68 00000CF8                     	PUSH	3320
   363 00000327 E8 [00000000]                   	CALL	_io_out32
   364 0000032C 68 00000CFC                     	PUSH	3324
   365 00000331 E8 [00000000]                   	CALL	_io_in32
   366 00000336 89 DA                           	MOV	EDX,EBX
   367 00000338 83 E2 03                        	AND	EDX,3
   368 0000033B 8B 5D FC                        	MOV	EBX,DWORD [-4+EBP]
   369 0000033E C9                              	LEAVE
   370 0000033F 8D 0C D5 00000000               	LEA	ECX,DWORD [0+EDX*8]
   371 00000346 D3 E8                           	SHR	EAX,CL
   372 00000348 25 000000FF                     	AND	EAX,255
   373 0000034D C3                              	RET
   374 0000034E                                 	GLOBAL	_read_pci_config32
   375 0000034E                                 _read_pci_config32:
   376 0000034E 55                              	PUSH	EBP
   377 0000034F 89 E5                           	MOV	EBP,ESP
   378 00000351 0F B6 55 08                     	MOVZX	EDX,BYTE [8+EBP]
   379 00000355 0F B6 45 0C                     	MOVZX	EAX,BYTE [12+EBP]
   380 00000359 C1 E0 0B                        	SAL	EAX,11
   381 0000035C C1 E2 10                        	SAL	EDX,16
   382 0000035F 09 C2                           	OR	EDX,EAX
   383 00000361 0F B6 45 10                     	MOVZX	EAX,BYTE [16+EBP]
   384 00000365 C1 E0 08                        	SAL	EAX,8
   385 00000368 09 C2                           	OR	EDX,EAX
   386 0000036A 8A 45 14                        	MOV	AL,BYTE [20+EBP]
   387 0000036D 83 E0 FC                        	AND	EAX,-4
   388 00000370 0F B6 C0                        	MOVZX	EAX,AL
   389 00000373 09 C2                           	OR	EDX,EAX
   390 00000375 81 CA 80000000                  	OR	EDX,-2147483648
   391 0000037B 52                              	PUSH	EDX
   392 0000037C 68 00000CF8                     	PUSH	3320
   393 00000381 E8 [00000000]                   	CALL	_io_out32
   394 00000386 59                              	POP	ECX
   395 00000387 58                              	POP	EAX
   396 00000388 C7 45 08 00000CFC               	MOV	DWORD [8+EBP],3324
   397 0000038F C9                              	LEAVE
   398 00000390 E9 [00000000]                   	JMP	_io_in32
   399 00000395                                 	GLOBAL	_init_pci
   400 00000395                                 _init_pci:
   401 00000395 55                              	PUSH	EBP
   402 00000396 89 E5                           	MOV	EBP,ESP
   403 00000398 57                              	PUSH	EDI
   404 00000399 56                              	PUSH	ESI
   405 0000039A 53                              	PUSH	EBX
   406 0000039B 83 EC 0C                        	SUB	ESP,12
   407 0000039E C7 45 F0 00000000               	MOV	DWORD [-16+EBP],0
   408 000003A5 C7 45 E8 00000000               	MOV	DWORD [-24+EBP],0
   409 000003AC                                 L100:
   410 000003AC C7 45 EC 00000000               	MOV	DWORD [-20+EBP],0
   411 000003B3 31 FF                           	XOR	EDI,EDI
   412 000003B5                                 L99:
   413 000003B5 31 F6                           	XOR	ESI,ESI
   414 000003B7 31 DB                           	XOR	EBX,EBX
   415 000003B9                                 L98:
   416 000003B9 8B 45 E8                        	MOV	EAX,DWORD [-24+EBP]
   417 000003BC 46                              	INC	ESI
   418 000003BD 09 F8                           	OR	EAX,EDI
   419 000003BF 09 D8                           	OR	EAX,EBX
   420 000003C1 81 C3 00000100                  	ADD	EBX,256
   421 000003C7 50                              	PUSH	EAX
   422 000003C8 68 00000CF8                     	PUSH	3320
   423 000003CD E8 [00000000]                   	CALL	_io_out32
   424 000003D2 68 00000CFC                     	PUSH	3324
   425 000003D7 E8 [00000000]                   	CALL	_io_in32
   426 000003DC 83 C4 0C                        	ADD	ESP,12
   427 000003DF 83 FE 07                        	CMP	ESI,7
   428 000003E2 76 D5                           	JBE	L98
   429 000003E4 FF 45 EC                        	INC	DWORD [-20+EBP]
   430 000003E7 81 C7 00000800                  	ADD	EDI,2048
   431 000003ED 83 7D EC 1F                     	CMP	DWORD [-20+EBP],31
   432 000003F1 76 C2                           	JBE	L99
   433 000003F3 FF 45 F0                        	INC	DWORD [-16+EBP]
   434 000003F6 81 45 E8 00010000               	ADD	DWORD [-24+EBP],65536
   435 000003FD 81 7D F0 000000FF               	CMP	DWORD [-16+EBP],255
   436 00000404 76 A6                           	JBE	L100
   437 00000406 8D 65 F4                        	LEA	ESP,DWORD [-12+EBP]
   438 00000409 5B                              	POP	EBX
   439 0000040A 5E                              	POP	ESI
   440 0000040B 5F                              	POP	EDI
   441 0000040C 5D                              	POP	EBP
   442 0000040D C3                              	RET
   443 0000040E                                 	GLOBAL	_RSDP
   444                                          [SECTION .data]
   445 00000018                                 	ALIGNB	4
   446 00000018                                 _RSDP:
   447 00000018 00 00 00 00                     	RESB	4
   448 0000001C                                 	GLOBAL	_RSDT
   449                                          [SECTION .data]
   450 0000001C                                 	ALIGNB	4
   451 0000001C                                 _RSDT:
   452 0000001C 00 00 00 00                     	RESB	4
   453 00000020                                 	GLOBAL	_FADT
   454                                          [SECTION .data]
   455 00000020                                 	ALIGNB	4
   456 00000020                                 _FADT:
   457 00000020 00 00 00 00                     	RESB	4
