     1 00000000                                 [FORMAT "WCOFF"]
     2 00000000                                 [INSTRSET "i486p"]
     3 00000000                                 [OPTIMIZE 1]
     4 00000000                                 [OPTION 1]
     5 00000000                                 [BITS 32]
     6 00000000                                 	EXTERN	_init_gdtidt
     7 00000000                                 	EXTERN	_init_acpi
     8 00000000                                 	EXTERN	_memman_init
     9 00000000                                 	EXTERN	_memman_free
    10 00000000                                 	EXTERN	_init_page
    11 00000000                                 	EXTERN	_memmam_link_page_32_m
    12 00000000                                 	EXTERN	_load_cr0
    13 00000000                                 	EXTERN	_store_cr3
    14 00000000                                 	EXTERN	_store_cr0
    15 00000000                                 	EXTERN	_load_gdtr
    16 00000000                                 	EXTERN	_load_idtr
    17 00000000                                 	EXTERN	_init_pit
    18 00000000                                 	EXTERN	_support_apic
    19 00000000                                 	EXTERN	_init_pic
    20 00000000                                 	EXTERN	_io_sti
    21 00000000                                 	EXTERN	_fifo32_init
    22 00000000                                 	EXTERN	_init_keyboard
    23 00000000                                 	EXTERN	_enable_mouse
    24 00000000                                 	EXTERN	_io_out8
    25 00000000                                 	EXTERN	_task_init
    26 00000000                                 	EXTERN	_task_run
    27 00000000                                 	EXTERN	_memman_alloc_4k
    28 00000000                                 	EXTERN	_shtctl_init
    29 00000000                                 	EXTERN	_sheet_alloc
    30 00000000                                 	EXTERN	_sheet_setbuf
    31 00000000                                 	EXTERN	_init_screen32
    32 00000000                                 	EXTERN	_init_mouse_cursor32
    33 00000000                                 	EXTERN	_sheet_slide
    34 00000000                                 	EXTERN	_sheet_updown
    35 00000000                                 	EXTERN	_fifo32_put
    36 00000000                                 	EXTERN	_system_start
    37 00000000                                 	EXTERN	_device_init
    38 00000000                                 	EXTERN	_start_task_disk
    39 00000000                                 	EXTERN	_fifo32_status
    40 00000000                                 	EXTERN	_io_cli
    41 00000000                                 	EXTERN	_fifo32_get
    42 00000000                                 	EXTERN	_pageman_unlink_page_32
    43 00000000                                 	EXTERN	_memman_free_4k
    44 00000000                                 	EXTERN	_sheet_free
    45 00000000                                 	EXTERN	_taskctl
    46 00000000                                 	EXTERN	_mouse_decode
    47 00000000                                 	EXTERN	_cons_putstr0
    48 00000000                                 	EXTERN	_asm_end_app
    49 00000000                                 	EXTERN	_fifo_mouse_put
    50 00000000                                 	EXTERN	_wait_KBC_sendready
    51 00000000                                 	EXTERN	_task_sleep
    52 00000000                                 	EXTERN	_init_apic
    53 00000000                                 	EXTERN	_task_now
    54 00000000                                 	EXTERN	_change_wtitle32
    55 00000000                                 	EXTERN	_task_alloc
    56 00000000                                 	EXTERN	_pageman_link_page_32_m
    57 00000000                                 	EXTERN	_console_task
    58 00000000                                 	EXTERN	_memman_alloc_page_32
    59 00000000                                 	EXTERN	_pageman_link_page_32
    60 00000000                                 	EXTERN	_fifo_mouse_init
    61 00000000                                 	EXTERN	_make_window32
    62 00000000                                 	EXTERN	_make_textbox32
    63 00000000                                 [FILE "bootpack.c"]
    64 00000000                                 	GLOBAL	_varGuid
    65                                          [SECTION .data]
    66 00000000                                 	ALIGNB	4
    67 00000000                                 _varGuid:
    68 00000000 B105CC01                        	DD	-1325020159
    69 00000004 2018                            	DW	8216
    70 00000006 0401                            	DW	1025
    71 00000008 12                              	DB	18
    72 00000009 34                              	DB	52
    73 0000000A 56                              	DB	86
    74 0000000B 78                              	DB	120
    75 0000000C AB                              	DB	-85
    76 0000000D CD                              	DB	-51
    77 0000000E EF                              	DB	-17
    78 0000000F 00                              	DB	0
    79 00000010                                 _keytable0.0:
    80 00000010 00                              	DB	0
    81 00000011 00                              	DB	0
    82 00000012 31                              	DB	49
    83 00000013 32                              	DB	50
    84 00000014 33                              	DB	51
    85 00000015 34                              	DB	52
    86 00000016 35                              	DB	53
    87 00000017 36                              	DB	54
    88 00000018 37                              	DB	55
    89 00000019 38                              	DB	56
    90 0000001A 39                              	DB	57
    91 0000001B 30                              	DB	48
    92 0000001C 2D                              	DB	45
    93 0000001D 5E                              	DB	94
    94 0000001E 08                              	DB	8
    95 0000001F 00                              	DB	0
    96 00000020 51                              	DB	81
    97 00000021 57                              	DB	87
    98 00000022 45                              	DB	69
    99 00000023 52                              	DB	82
   100 00000024 54                              	DB	84
   101 00000025 59                              	DB	89
   102 00000026 55                              	DB	85
   103 00000027 49                              	DB	73
   104 00000028 4F                              	DB	79
   105 00000029 50                              	DB	80
   106 0000002A 40                              	DB	64
   107 0000002B 5B                              	DB	91
   108 0000002C 0A                              	DB	10
   109 0000002D 00                              	DB	0
   110 0000002E 41                              	DB	65
   111 0000002F 53                              	DB	83
   112 00000030 44                              	DB	68
   113 00000031 46                              	DB	70
   114 00000032 47                              	DB	71
   115 00000033 48                              	DB	72
   116 00000034 4A                              	DB	74
   117 00000035 4B                              	DB	75
   118 00000036 4C                              	DB	76
   119 00000037 3B                              	DB	59
   120 00000038 3A                              	DB	58
   121 00000039 00                              	DB	0
   122 0000003A 00                              	DB	0
   123 0000003B 5D                              	DB	93
   124 0000003C 5A                              	DB	90
   125 0000003D 58                              	DB	88
   126 0000003E 43                              	DB	67
   127 0000003F 56                              	DB	86
   128 00000040 42                              	DB	66
   129 00000041 4E                              	DB	78
   130 00000042 4D                              	DB	77
   131 00000043 2C                              	DB	44
   132 00000044 2E                              	DB	46
   133 00000045 2F                              	DB	47
   134 00000046 00                              	DB	0
   135 00000047 2A                              	DB	42
   136 00000048 00                              	DB	0
   137 00000049 20                              	DB	32
   138 0000004A 00                              	DB	0
   139 0000004B 00                              	DB	0
   140 0000004C 00                              	DB	0
   141 0000004D 00                              	DB	0
   142 0000004E 00                              	DB	0
   143 0000004F 00                              	DB	0
   144 00000050 00                              	DB	0
   145 00000051 00                              	DB	0
   146 00000052 00                              	DB	0
   147 00000053 00                              	DB	0
   148 00000054 00                              	DB	0
   149 00000055 00                              	DB	0
   150 00000056 00                              	DB	0
   151 00000057 37                              	DB	55
   152 00000058 38                              	DB	56
   153 00000059 39                              	DB	57
   154 0000005A 2D                              	DB	45
   155 0000005B 34                              	DB	52
   156 0000005C 35                              	DB	53
   157 0000005D 36                              	DB	54
   158 0000005E 2B                              	DB	43
   159 0000005F 31                              	DB	49
   160 00000060 32                              	DB	50
   161 00000061 33                              	DB	51
   162 00000062 30                              	DB	48
   163 00000063 2E                              	DB	46
   164 00000064 00                              	DB	0
   165 00000065 00                              	DB	0
   166 00000066 00                              	DB	0
   167 00000067 00                              	DB	0
   168 00000068 00                              	DB	0
   169 00000069 00                              	DB	0
   170 0000006A 00                              	DB	0
   171 0000006B 00                              	DB	0
   172 0000006C 00                              	DB	0
   173 0000006D 00                              	DB	0
   174 0000006E 00                              	DB	0
   175 0000006F 00                              	DB	0
   176 00000070 00                              	DB	0
   177 00000071 00                              	DB	0
   178 00000072 00                              	DB	0
   179 00000073 00                              	DB	0
   180 00000074 00                              	DB	0
   181 00000075 00                              	DB	0
   182 00000076 00                              	DB	0
   183 00000077 00                              	DB	0
   184 00000078 00                              	DB	0
   185 00000079 00                              	DB	0
   186 0000007A 00                              	DB	0
   187 0000007B 00                              	DB	0
   188 0000007C 00                              	DB	0
   189 0000007D 00                              	DB	0
   190 0000007E 00                              	DB	0
   191 0000007F 00                              	DB	0
   192 00000080 00                              	DB	0
   193 00000081 00                              	DB	0
   194 00000082 00                              	DB	0
   195 00000083 5C                              	DB	92
   196 00000084 00                              	DB	0
   197 00000085 00                              	DB	0
   198 00000086 00                              	DB	0
   199 00000087 00                              	DB	0
   200 00000088 00                              	DB	0
   201 00000089 00                              	DB	0
   202 0000008A 00                              	DB	0
   203 0000008B 00                              	DB	0
   204 0000008C 00                              	DB	0
   205 0000008D 5C                              	DB	92
   206 0000008E 00                              	DB	0
   207 0000008F 00                              	DB	0
   208 00000090                                 _keytable1.1:
   209 00000090 00                              	DB	0
   210 00000091 00                              	DB	0
   211 00000092 21                              	DB	33
   212 00000093 22                              	DB	34
   213 00000094 23                              	DB	35
   214 00000095 24                              	DB	36
   215 00000096 25                              	DB	37
   216 00000097 26                              	DB	38
   217 00000098 27                              	DB	39
   218 00000099 28                              	DB	40
   219 0000009A 29                              	DB	41
   220 0000009B 7E                              	DB	126
   221 0000009C 3D                              	DB	61
   222 0000009D 7E                              	DB	126
   223 0000009E 08                              	DB	8
   224 0000009F 00                              	DB	0
   225 000000A0 51                              	DB	81
   226 000000A1 57                              	DB	87
   227 000000A2 45                              	DB	69
   228 000000A3 52                              	DB	82
   229 000000A4 54                              	DB	84
   230 000000A5 59                              	DB	89
   231 000000A6 55                              	DB	85
   232 000000A7 49                              	DB	73
   233 000000A8 4F                              	DB	79
   234 000000A9 50                              	DB	80
   235 000000AA 60                              	DB	96
   236 000000AB 7B                              	DB	123
   237 000000AC 0A                              	DB	10
   238 000000AD 00                              	DB	0
   239 000000AE 41                              	DB	65
   240 000000AF 53                              	DB	83
   241 000000B0 44                              	DB	68
   242 000000B1 46                              	DB	70
   243 000000B2 47                              	DB	71
   244 000000B3 48                              	DB	72
   245 000000B4 4A                              	DB	74
   246 000000B5 4B                              	DB	75
   247 000000B6 4C                              	DB	76
   248 000000B7 2B                              	DB	43
   249 000000B8 2A                              	DB	42
   250 000000B9 00                              	DB	0
   251 000000BA 00                              	DB	0
   252 000000BB 7D                              	DB	125
   253 000000BC 5A                              	DB	90
   254 000000BD 58                              	DB	88
   255 000000BE 43                              	DB	67
   256 000000BF 56                              	DB	86
   257 000000C0 42                              	DB	66
   258 000000C1 4E                              	DB	78
   259 000000C2 4D                              	DB	77
   260 000000C3 3C                              	DB	60
   261 000000C4 3E                              	DB	62
   262 000000C5 3F                              	DB	63
   263 000000C6 00                              	DB	0
   264 000000C7 2A                              	DB	42
   265 000000C8 00                              	DB	0
   266 000000C9 20                              	DB	32
   267 000000CA 00                              	DB	0
   268 000000CB 00                              	DB	0
   269 000000CC 00                              	DB	0
   270 000000CD 00                              	DB	0
   271 000000CE 00                              	DB	0
   272 000000CF 00                              	DB	0
   273 000000D0 00                              	DB	0
   274 000000D1 00                              	DB	0
   275 000000D2 00                              	DB	0
   276 000000D3 00                              	DB	0
   277 000000D4 00                              	DB	0
   278 000000D5 00                              	DB	0
   279 000000D6 00                              	DB	0
   280 000000D7 37                              	DB	55
   281 000000D8 38                              	DB	56
   282 000000D9 39                              	DB	57
   283 000000DA 2D                              	DB	45
   284 000000DB 34                              	DB	52
   285 000000DC 35                              	DB	53
   286 000000DD 36                              	DB	54
   287 000000DE 2B                              	DB	43
   288 000000DF 31                              	DB	49
   289 000000E0 32                              	DB	50
   290 000000E1 33                              	DB	51
   291 000000E2 30                              	DB	48
   292 000000E3 2E                              	DB	46
   293 000000E4 00                              	DB	0
   294 000000E5 00                              	DB	0
   295 000000E6 00                              	DB	0
   296 000000E7 00                              	DB	0
   297 000000E8 00                              	DB	0
   298 000000E9 00                              	DB	0
   299 000000EA 00                              	DB	0
   300 000000EB 00                              	DB	0
   301 000000EC 00                              	DB	0
   302 000000ED 00                              	DB	0
   303 000000EE 00                              	DB	0
   304 000000EF 00                              	DB	0
   305 000000F0 00                              	DB	0
   306 000000F1 00                              	DB	0
   307 000000F2 00                              	DB	0
   308 000000F3 00                              	DB	0
   309 000000F4 00                              	DB	0
   310 000000F5 00                              	DB	0
   311 000000F6 00                              	DB	0
   312 000000F7 00                              	DB	0
   313 000000F8 00                              	DB	0
   314 000000F9 00                              	DB	0
   315 000000FA 00                              	DB	0
   316 000000FB 00                              	DB	0
   317 000000FC 00                              	DB	0
   318 000000FD 00                              	DB	0
   319 000000FE 00                              	DB	0
   320 000000FF 00                              	DB	0
   321 00000100 00                              	DB	0
   322 00000101 00                              	DB	0
   323 00000102 00                              	DB	0
   324 00000103 5F                              	DB	95
   325 00000104 00                              	DB	0
   326 00000105 00                              	DB	0
   327 00000106 00                              	DB	0
   328 00000107 00                              	DB	0
   329 00000108 00                              	DB	0
   330 00000109 00                              	DB	0
   331 0000010A 00                              	DB	0
   332 0000010B 00                              	DB	0
   333 0000010C 00                              	DB	0
   334 0000010D 7C                              	DB	124
   335 0000010E 00                              	DB	0
   336 0000010F 00                              	DB	0
   337 00000110                                 _keytable2.2:
   338 00000110 00                              	DB	0
   339 00000111 00                              	DB	0
   340 00000112 00                              	DB	0
   341 00000113 00                              	DB	0
   342 00000114 00                              	DB	0
   343 00000115 00                              	DB	0
   344 00000116 00                              	DB	0
   345 00000117 00                              	DB	0
   346 00000118 00                              	DB	0
   347 00000119 00                              	DB	0
   348 0000011A 00                              	DB	0
   349 0000011B 00                              	DB	0
   350 0000011C 00                              	DB	0
   351 0000011D 00                              	DB	0
   352 0000011E 00                              	DB	0
   353 0000011F 00                              	DB	0
   354 00000120 00                              	DB	0
   355 00000121 00                              	DB	0
   356 00000122 00                              	DB	0
   357 00000123 00                              	DB	0
   358 00000124 00                              	DB	0
   359 00000125 00                              	DB	0
   360 00000126 00                              	DB	0
   361 00000127 00                              	DB	0
   362 00000128 00                              	DB	0
   363 00000129 00                              	DB	0
   364 0000012A 00                              	DB	0
   365 0000012B 00                              	DB	0
   366 0000012C 0A                              	DB	10
   367 0000012D 00                              	DB	0
   368 0000012E 00                              	DB	0
   369 0000012F 00                              	DB	0
   370 00000130 00                              	DB	0
   371 00000131 00                              	DB	0
   372 00000132 00                              	DB	0
   373 00000133 00                              	DB	0
   374 00000134 00                              	DB	0
   375 00000135 00                              	DB	0
   376 00000136 00                              	DB	0
   377 00000137 00                              	DB	0
   378 00000138 00                              	DB	0
   379 00000139 00                              	DB	0
   380 0000013A 00                              	DB	0
   381 0000013B 00                              	DB	0
   382 0000013C 00                              	DB	0
   383 0000013D 00                              	DB	0
   384 0000013E 00                              	DB	0
   385 0000013F 00                              	DB	0
   386 00000140 00                              	DB	0
   387 00000141 00                              	DB	0
   388 00000142 00                              	DB	0
   389 00000143 3F                              	DB	63
   390 00000144 00                              	DB	0
   391 00000145 00                              	DB	0
   392 00000146 00                              	DB	0
   393 00000147 00                              	DB	0
   394 00000148 00                              	DB	0
   395 00000149 00                              	DB	0
   396 0000014A 00                              	DB	0
   397 0000014B 00                              	DB	0
   398 0000014C 00                              	DB	0
   399 0000014D 00                              	DB	0
   400 0000014E 00                              	DB	0
   401 0000014F 00                              	DB	0
   402 00000150 00                              	DB	0
   403 00000151 00                              	DB	0
   404 00000152 00                              	DB	0
   405 00000153 00                              	DB	0
   406 00000154 00                              	DB	0
   407 00000155 00                              	DB	0
   408 00000156 00                              	DB	0
   409 00000157 00                              	DB	0
   410 00000158 00                              	DB	0
   411 00000159 00                              	DB	0
   412 0000015A 00                              	DB	0
   413 0000015B 00                              	DB	0
   414 0000015C 00                              	DB	0
   415 0000015D 00                              	DB	0
   416 0000015E 00                              	DB	0
   417 0000015F 00                              	DB	0
   418 00000160 00                              	DB	0
   419 00000161 00                              	DB	0
   420 00000162 00                              	DB	0
   421 00000163 00                              	DB	0
   422 00000164 00                              	DB	0
   423 00000165 00                              	DB	0
   424 00000166 00                              	DB	0
   425 00000167 00                              	DB	0
   426 00000168 00                              	DB	0
   427 00000169 00                              	DB	0
   428 0000016A 00                              	DB	0
   429 0000016B 00                              	DB	0
   430 0000016C 00                              	DB	0
   431 0000016D 00                              	DB	0
   432 0000016E 00                              	DB	0
   433 0000016F 00                              	DB	0
   434 00000170 00                              	DB	0
   435 00000171 00                              	DB	0
   436 00000172 00                              	DB	0
   437 00000173 00                              	DB	0
   438 00000174 00                              	DB	0
   439 00000175 00                              	DB	0
   440 00000176 00                              	DB	0
   441 00000177 00                              	DB	0
   442 00000178 00                              	DB	0
   443 00000179 00                              	DB	0
   444 0000017A 00                              	DB	0
   445 0000017B 00                              	DB	0
   446 0000017C 00                              	DB	0
   447 0000017D 00                              	DB	0
   448 0000017E 00                              	DB	0
   449 0000017F 00                              	DB	0
   450 00000180 00                              	DB	0
   451 00000181 00                              	DB	0
   452 00000182 00                              	DB	0
   453 00000183 00                              	DB	0
   454 00000184 00                              	DB	0
   455 00000185 00                              	DB	0
   456 00000186 00                              	DB	0
   457 00000187 00                              	DB	0
   458 00000188 00                              	DB	0
   459 00000189 00                              	DB	0
   460 0000018A 00                              	DB	0
   461 0000018B 00                              	DB	0
   462 0000018C 00                              	DB	0
   463 0000018D 00                              	DB	0
   464 0000018E 00                              	DB	0
   465 0000018F 00                              	DB	0
   466 00000190                                 LC2:
   467 00000190 0A 42 72 65 61 6B 28 6D 6F 75   	DB	0x0A,"Break(mouse) :",0x0A,0x00
       0000019A 73 65 29 20 3A 0A 00 
   468 000001A1                                 LC1:
   469 000001A1 0A 42 72 65 61 6B 28 6B 65 79   	DB	0x0A,"Break(key) :",0x0A,0x00
       000001AB 29 20 3A 0A 00 
   470                                          [SECTION .text]
   471 00000000                                 	GLOBAL	_HariMain
   472 00000000                                 _HariMain:
   473 00000000 55                              	PUSH	EBP
   474 00000001 89 E5                           	MOV	EBP,ESP
   475 00000003 57                              	PUSH	EDI
   476 00000004 56                              	PUSH	ESI
   477 00000005 53                              	PUSH	EBX
   478 00000006 8D 85 FFFFFC54                  	LEA	EAX,DWORD [-940+EBP]
   479 0000000C 81 EC 00000844                  	SUB	ESP,2116
   480 00000012 A3 0026F040                     	MOV	DWORD [2551872],EAX
   481 00000017 C7 85 FFFFF810 00000000         	MOV	DWORD [-2032+EBP],0
   482 00000021 C7 85 FFFFF804 FFFFFFFF         	MOV	DWORD [-2044+EBP],-1
   483 0000002B C7 85 FFFFF800 00000000         	MOV	DWORD [-2048+EBP],0
   484 00000035 C7 85 FFFFF7FC 7FFFFFFF         	MOV	DWORD [-2052+EBP],2147483647
   485 0000003F C7 85 FFFFF7F8 00000000         	MOV	DWORD [-2056+EBP],0
   486 00000049 C7 85 FFFFF7E8 00000000         	MOV	DWORD [-2072+EBP],0
   487 00000053 C7 85 FFFFF7E0 00000000         	MOV	DWORD [-2080+EBP],0
   488 0000005D C7 85 FFFFF7DC 00000000         	MOV	DWORD [-2084+EBP],0
   489 00000067 A0 00000FF1                     	MOV	AL,BYTE [4081]
   490 0000006C C0 F8 04                        	SAR	AL,4
   491 0000006F 89 C2                           	MOV	EDX,EAX
   492 00000071 8B 45 0C                        	MOV	EAX,DWORD [12+EBP]
   493 00000074 A3 [000001B8]                   	MOV	DWORD [_Systemtable_base],EAX
   494 00000079 83 E2 07                        	AND	EDX,7
   495 0000007C 8B 45 08                        	MOV	EAX,DWORD [8+EBP]
   496 0000007F 89 95 FFFFF7D8                  	MOV	DWORD [-2088+EBP],EDX
   497 00000085 50                              	PUSH	EAX
   498 00000086 A3 [000001BC]                   	MOV	DWORD [_gThis],EAX
   499 0000008B C7 85 FFFFF7D4 FFFFFFFF         	MOV	DWORD [-2092+EBP],-1
   500 00000095 C7 85 FFFFF7D0 00000000         	MOV	DWORD [-2096+EBP],0
   501 0000009F C7 85 FFFFF7CC FFFFFFFF         	MOV	DWORD [-2100+EBP],-1
   502 000000A9 C7 85 FFFFF7C8 FFFFFFFF         	MOV	DWORD [-2104+EBP],-1
   503 000000B3 C7 85 FFFFF7C4 00000000         	MOV	DWORD [-2108+EBP],0
   504 000000BD C7 85 FFFFF7C0 00000000         	MOV	DWORD [-2112+EBP],0
   505 000000C7 E8 [00000000]                   	CALL	_init_gdtidt
   506 000000CC E8 [00000000]                   	CALL	_init_acpi
   507 000000D1 68 003C0000                     	PUSH	3932160
   508 000000D6 E8 [00000000]                   	CALL	_memman_init
   509 000000DB 68 DFFFFFFF                     	PUSH	-536870913
   510 000000E0 68 C0200000                     	PUSH	-1071644672
   511 000000E5 68 003C0000                     	PUSH	3932160
   512 000000EA E8 [00000000]                   	CALL	_memman_free
   513 000000EF 8D 95 FFFFF814                  	LEA	EDX,DWORD [-2028+EBP]
   514 000000F5 52                              	PUSH	EDX
   515 000000F6 E8 [00000000]                   	CALL	_init_page
   516 000000FB 8D 85 FFFFF814                  	LEA	EAX,DWORD [-2028+EBP]
   517 00000101 6A 01                           	PUSH	1
   518 00000103 6A 10                           	PUSH	16
   519 00000105 68 00270007                     	PUSH	2555911
   520 0000010A 68 C0000000                     	PUSH	-1073741824
   521 0000010F 68 00268000                     	PUSH	2523136
   522 00000114 50                              	PUSH	EAX
   523 00000115 E8 [00000000]                   	CALL	_memmam_link_page_32_m
   524 0000011A 8D 95 FFFFF814                  	LEA	EDX,DWORD [-2028+EBP]
   525 00000120 83 C4 30                        	ADD	ESP,48
   526 00000123 6A 01                           	PUSH	1
   527 00000125 6A 01                           	PUSH	1
   528 00000127 68 0026F007                     	PUSH	2551815
   529 0000012C 68 C0020000                     	PUSH	-1073610752
   530 00000131 68 00268000                     	PUSH	2523136
   531 00000136 52                              	PUSH	EDX
   532 00000137 E8 [00000000]                   	CALL	_memmam_link_page_32_m
   533 0000013C 8D 85 FFFFF814                  	LEA	EAX,DWORD [-2028+EBP]
   534 00000142 6A 01                           	PUSH	1
   535 00000144 68 00000080                     	PUSH	128
   536 00000149 68 00280007                     	PUSH	2621447
   537 0000014E 68 C0100000                     	PUSH	-1072693248
   538 00000153 68 00268000                     	PUSH	2523136
   539 00000158 50                              	PUSH	EAX
   540 00000159 E8 [00000000]                   	CALL	_memmam_link_page_32_m
   541 0000015E 8D 95 FFFFF814                  	LEA	EDX,DWORD [-2028+EBP]
   542 00000164 83 C4 30                        	ADD	ESP,48
   543 00000167 6A 01                           	PUSH	1
   544 00000169 68 00000900                     	PUSH	2304
   545 0000016E 6A 07                           	PUSH	7
   546 00000170 6A 07                           	PUSH	7
   547 00000172 68 00268000                     	PUSH	2523136
   548 00000177 52                              	PUSH	EDX
   549 00000178 E8 [00000000]                   	CALL	_memmam_link_page_32_m
   550 0000017D 8D 85 FFFFF814                  	LEA	EAX,DWORD [-2028+EBP]
   551 00000183 6A 01                           	PUSH	1
   552 00000185 68 0001FC00                     	PUSH	130048
   553 0000018A 68 E0000007                     	PUSH	-536870905
   554 0000018F 68 E0000000                     	PUSH	-536870912
   555 00000194 68 00268000                     	PUSH	2523136
   556 00000199 50                              	PUSH	EAX
   557 0000019A E8 [00000000]                   	CALL	_memmam_link_page_32_m
   558 0000019F 83 C4 30                        	ADD	ESP,48
   559 000001A2 8D 95 FFFFF814                  	LEA	EDX,DWORD [-2028+EBP]
   560 000001A8 89 15 0026F000                  	MOV	DWORD [2551808],EDX
   561 000001AE E8 [00000000]                   	CALL	_load_cr0
   562 000001B3 89 C3                           	MOV	EBX,EAX
   563 000001B5 68 00268000                     	PUSH	2523136
   564 000001BA 81 CB 80000000                  	OR	EBX,-2147483648
   565 000001C0 E8 [00000000]                   	CALL	_store_cr3
   566 000001C5 53                              	PUSH	EBX
   567 000001C6 E8 [00000000]                   	CALL	_store_cr0
   568 000001CB 68 C0000000                     	PUSH	-1073741824
   569 000001D0 68 0000FFFF                     	PUSH	65535
   570 000001D5 E8 [00000000]                   	CALL	_load_gdtr
   571 000001DA 68 C0020800                     	PUSH	-1073608704
   572 000001DF 68 0000FFFF                     	PUSH	65535
   573 000001E4 E8 [00000000]                   	CALL	_load_idtr
   574 000001E9 E8 [00000000]                   	CALL	_init_pit
   575 000001EE E8 [00000000]                   	CALL	_support_apic
   576 000001F3 83 C4 18                        	ADD	ESP,24
   577 000001F6 48                              	DEC	EAX
   578 000001F7 0F 84 00000F35                  	JE	L143
   579 000001FD E8 [00000000]                   	CALL	_init_pic
   580 00000202                                 L3:
   581 00000202 8D 9D FFFFFF14                  	LEA	EBX,DWORD [-236+EBP]
   582 00000208 E8 [00000000]                   	CALL	_io_sti
   583 0000020D 6A 00                           	PUSH	0
   584 0000020F 8D 85 FFFFFCF4                  	LEA	EAX,DWORD [-780+EBP]
   585 00000215 50                              	PUSH	EAX
   586 00000216 68 00000080                     	PUSH	128
   587 0000021B 53                              	PUSH	EBX
   588 0000021C E8 [00000000]                   	CALL	_fifo32_init
   589 00000221 89 1D 00000FEC                  	MOV	DWORD [4076],EBX
   590 00000227 68 00000100                     	PUSH	256
   591 0000022C 53                              	PUSH	EBX
   592 0000022D E8 [00000000]                   	CALL	_init_keyboard
   593 00000232 8D 85 FFFFFC54                  	LEA	EAX,DWORD [-940+EBP]
   594 00000238 50                              	PUSH	EAX
   595 00000239 68 00000200                     	PUSH	512
   596 0000023E 53                              	PUSH	EBX
   597 0000023F E8 [00000000]                   	CALL	_enable_mouse
   598 00000244 83 C4 24                        	ADD	ESP,36
   599 00000247 E8 [00000000]                   	CALL	_support_apic
   600 0000024C 85 C0                           	TEST	EAX,EAX
   601 0000024E 75 1E                           	JNE	L4
   602 00000250 68 000000F8                     	PUSH	248
   603 00000255 6A 21                           	PUSH	33
   604 00000257 E8 [00000000]                   	CALL	_io_out8
   605 0000025C 68 000000EF                     	PUSH	239
   606 00000261 68 000000A1                     	PUSH	161
   607 00000266 E8 [00000000]                   	CALL	_io_out8
   608 0000026B 83 C4 10                        	ADD	ESP,16
   609 0000026E                                 L4:
   610 0000026E 6A 00                           	PUSH	0
   611 00000270 8D 85 FFFFFC74                  	LEA	EAX,DWORD [-908+EBP]
   612 00000276 50                              	PUSH	EAX
   613 00000277 31 F6                           	XOR	ESI,ESI
   614 00000279 6A 20                           	PUSH	32
   615 0000027B 8D 85 FFFFFEF4                  	LEA	EAX,DWORD [-268+EBP]
   616 00000281 50                              	PUSH	EAX
   617 00000282 31 DB                           	XOR	EBX,EBX
   618 00000284 E8 [00000000]                   	CALL	_fifo32_init
   619 00000289 68 003C0000                     	PUSH	3932160
   620 0000028E E8 [00000000]                   	CALL	_task_init
   621 00000293 C7 47 78 00268000               	MOV	DWORD [120+EDI],2523136
   622 0000029A C7 80 00000152 003C0000         	MOV	DWORD [338+EAX],3932160
   623 000002A4 6A 02                           	PUSH	2
   624 000002A6 89 85 FFFFF7EC                  	MOV	DWORD [-2068+EBP],EAX
   625 000002AC 6A 01                           	PUSH	1
   626 000002AE 89 85 FFFFFF2C                  	MOV	DWORD [-212+EBP],EAX
   627 000002B4 50                              	PUSH	EAX
   628 000002B5 E8 [00000000]                   	CALL	_task_run
   629 000002BA 83 C4 20                        	ADD	ESP,32
   630 000002BD 8B 95 FFFFF7EC                  	MOV	EDX,DWORD [-2068+EBP]
   631 000002C3 C6 82 000000FC 00               	MOV	BYTE [252+EDX],0
   632 000002CA 68 0000D000                     	PUSH	53248
   633 000002CF 68 003C0000                     	PUSH	3932160
   634 000002D4 E8 [00000000]                   	CALL	_memman_alloc_4k
   635 000002D9 6A 00                           	PUSH	0
   636 000002DB 6A 0D                           	PUSH	13
   637 000002DD 89 C7                           	MOV	EDI,EAX
   638 000002DF 6A 07                           	PUSH	7
   639 000002E1 50                              	PUSH	EAX
   640 000002E2 8D 85 FFFFF814                  	LEA	EAX,DWORD [-2028+EBP]
   641 000002E8 68 00268000                     	PUSH	2523136
   642 000002ED 50                              	PUSH	EAX
   643 000002EE E8 [00000000]                   	CALL	_memmam_link_page_32_m
   644 000002F3 83 C4 20                        	ADD	ESP,32
   645 000002F6 C7 05 0026F01C 00000002         	MOV	DWORD [2551836],2
   646 00000300                                 L9:
   647 00000300 0F BF 05 00000FF6               	MOVSX	EAX,WORD [4086]
   648 00000307 50                              	PUSH	EAX
   649 00000308 8D 95 FFFFF814                  	LEA	EDX,DWORD [-2028+EBP]
   650 0000030E 0F BF 05 00000FF4               	MOVSX	EAX,WORD [4084]
   651 00000315 50                              	PUSH	EAX
   652 00000316 FF 35 00000FF8                  	PUSH	DWORD [4088]
   653 0000031C 52                              	PUSH	EDX
   654 0000031D 68 003C0000                     	PUSH	3932160
   655 00000322 E8 [00000000]                   	CALL	_shtctl_init
   656 00000327 83 C4 14                        	ADD	ESP,20
   657 0000032A 8B 55 08                        	MOV	EDX,DWORD [8+EBP]
   658 0000032D 89 44 9D C4                     	MOV	DWORD [-60+EBP+EBX*4],EAX
   659 00000331 8B 44 B5 C4                     	MOV	EAX,DWORD [-60+EBP+ESI*4]
   660 00000335 46                              	INC	ESI
   661 00000336 89 F3                           	MOV	EBX,ESI
   662 00000338 01 90 00000824                  	ADD	DWORD [2084+EAX],EDX
   663 0000033E 89 B8 0000081C                  	MOV	DWORD [2076+EAX],EDI
   664 00000344 C7 80 00000418 00000200         	MOV	DWORD [1048+EAX],512
   665 0000034E 83 FE 01                        	CMP	ESI,1
   666 00000351 7E AD                           	JLE	L9
   667 00000353                                 L10:
   668 00000353 8B 55 C4                        	MOV	EDX,DWORD [-60+EBP]
   669 00000356 8D 45 C4                        	LEA	EAX,DWORD [-60+EBP]
   670 00000359 89 15 00000FE4                  	MOV	DWORD [4068],EDX
   671 0000035F A3 0026F018                     	MOV	DWORD [2551832],EAX
   672 00000364 52                              	PUSH	EDX
   673 00000365 BE 00000002                     	MOV	ESI,2
   674 0000036A E8 [00000000]                   	CALL	_sheet_alloc
   675 0000036F 0F BF 15 00000FF6               	MOVSX	EDX,WORD [4086]
   676 00000376 89 85 FFFFF824                  	MOV	DWORD [-2012+EBP],EAX
   677 0000037C 0F BF 05 00000FF4               	MOVSX	EAX,WORD [4084]
   678 00000383 0F AF C2                        	IMUL	EAX,EDX
   679 00000386 C1 E0 02                        	SAL	EAX,2
   680 00000389 50                              	PUSH	EAX
   681 0000038A 68 003C0000                     	PUSH	3932160
   682 0000038F E8 [00000000]                   	CALL	_memman_alloc_4k
   683 00000394 6A 00                           	PUSH	0
   684 00000396 0F BF 15 00000FF6               	MOVSX	EDX,WORD [4086]
   685 0000039D 89 C3                           	MOV	EBX,EAX
   686 0000039F 0F BF 05 00000FF4               	MOVSX	EAX,WORD [4084]
   687 000003A6 0F AF C2                        	IMUL	EAX,EDX
   688 000003A9 8D 04 85 00000FFF               	LEA	EAX,DWORD [4095+EAX*4]
   689 000003B0 C1 F8 0C                        	SAR	EAX,12
   690 000003B3 50                              	PUSH	EAX
   691 000003B4 8D 85 FFFFF814                  	LEA	EAX,DWORD [-2028+EBP]
   692 000003BA 6A 07                           	PUSH	7
   693 000003BC 53                              	PUSH	EBX
   694 000003BD 68 00268000                     	PUSH	2523136
   695 000003C2 50                              	PUSH	EAX
   696 000003C3 E8 [00000000]                   	CALL	_memmam_link_page_32_m
   697 000003C8 83 C4 24                        	ADD	ESP,36
   698 000003CB 6A FF                           	PUSH	-1
   699 000003CD 0F BF 05 00000FF6               	MOVSX	EAX,WORD [4086]
   700 000003D4 50                              	PUSH	EAX
   701 000003D5 0F BF 05 00000FF4               	MOVSX	EAX,WORD [4084]
   702 000003DC 50                              	PUSH	EAX
   703 000003DD 53                              	PUSH	EBX
   704 000003DE FF B5 FFFFF824                  	PUSH	DWORD [-2012+EBP]
   705 000003E4 E8 [00000000]                   	CALL	_sheet_setbuf
   706 000003E9 0F BF 05 00000FF6               	MOVSX	EAX,WORD [4086]
   707 000003F0 50                              	PUSH	EAX
   708 000003F1 0F BF 05 00000FF4               	MOVSX	EAX,WORD [4084]
   709 000003F8 50                              	PUSH	EAX
   710 000003F9 53                              	PUSH	EBX
   711 000003FA E8 [00000000]                   	CALL	_init_screen32
   712 000003FF 83 C4 20                        	ADD	ESP,32
   713 00000402 FF 75 C8                        	PUSH	DWORD [-56+EBP]
   714 00000405 E8 [00000000]                   	CALL	_sheet_alloc
   715 0000040A 0F BF 15 00000FF6               	MOVSX	EDX,WORD [4086]
   716 00000411 89 85 FFFFF828                  	MOV	DWORD [-2008+EBP],EAX
   717 00000417 0F BF 05 00000FF4               	MOVSX	EAX,WORD [4084]
   718 0000041E 0F AF C2                        	IMUL	EAX,EDX
   719 00000421 C1 E0 02                        	SAL	EAX,2
   720 00000424 50                              	PUSH	EAX
   721 00000425 68 003C0000                     	PUSH	3932160
   722 0000042A E8 [00000000]                   	CALL	_memman_alloc_4k
   723 0000042F 6A 00                           	PUSH	0
   724 00000431 0F BF 15 00000FF6               	MOVSX	EDX,WORD [4086]
   725 00000438 89 C3                           	MOV	EBX,EAX
   726 0000043A 0F BF 05 00000FF4               	MOVSX	EAX,WORD [4084]
   727 00000441 0F AF C2                        	IMUL	EAX,EDX
   728 00000444 8D 95 FFFFF814                  	LEA	EDX,DWORD [-2028+EBP]
   729 0000044A 8D 04 85 00000FFF               	LEA	EAX,DWORD [4095+EAX*4]
   730 00000451 C1 F8 0C                        	SAR	EAX,12
   731 00000454 50                              	PUSH	EAX
   732 00000455 6A 07                           	PUSH	7
   733 00000457 53                              	PUSH	EBX
   734 00000458 68 00268000                     	PUSH	2523136
   735 0000045D 52                              	PUSH	EDX
   736 0000045E E8 [00000000]                   	CALL	_memmam_link_page_32_m
   737 00000463 83 C4 24                        	ADD	ESP,36
   738 00000466 6A FF                           	PUSH	-1
   739 00000468 0F BF 05 00000FF6               	MOVSX	EAX,WORD [4086]
   740 0000046F 50                              	PUSH	EAX
   741 00000470 0F BF 05 00000FF4               	MOVSX	EAX,WORD [4084]
   742 00000477 50                              	PUSH	EAX
   743 00000478 53                              	PUSH	EBX
   744 00000479 FF B5 FFFFF828                  	PUSH	DWORD [-2008+EBP]
   745 0000047F E8 [00000000]                   	CALL	_sheet_setbuf
   746 00000484 0F BF 05 00000FF6               	MOVSX	EAX,WORD [4086]
   747 0000048B 50                              	PUSH	EAX
   748 0000048C 0F BF 05 00000FF4               	MOVSX	EAX,WORD [4084]
   749 00000493 50                              	PUSH	EAX
   750 00000494 53                              	PUSH	EBX
   751 00000495 8D 9D FFFFF854                  	LEA	EBX,DWORD [-1964+EBP]
   752 0000049B E8 [00000000]                   	CALL	_init_screen32
   753 000004A0 83 C4 20                        	ADD	ESP,32
   754 000004A3 FF 75 C4                        	PUSH	DWORD [-60+EBP]
   755 000004A6 C7 85 FFFFF7BC 00000000         	MOV	DWORD [-2116+EBP],0
   756 000004B0 E8 [00000000]                   	CALL	_sheet_alloc
   757 000004B5 6A 63                           	PUSH	99
   758 000004B7 6A 10                           	PUSH	16
   759 000004B9 6A 10                           	PUSH	16
   760 000004BB 89 85 FFFFF7F0                  	MOV	DWORD [-2064+EBP],EAX
   761 000004C1 53                              	PUSH	EBX
   762 000004C2 50                              	PUSH	EAX
   763 000004C3 E8 [00000000]                   	CALL	_sheet_setbuf
   764 000004C8 6A 63                           	PUSH	99
   765 000004CA 53                              	PUSH	EBX
   766 000004CB 8D 9D FFFFFEF4                  	LEA	EBX,DWORD [-268+EBP]
   767 000004D1 E8 [00000000]                   	CALL	_init_mouse_cursor32
   768 000004D6 83 C4 20                        	ADD	ESP,32
   769 000004D9 0F BF 05 00000FF4               	MOVSX	EAX,WORD [4084]
   770 000004E0 8D 50 F0                        	LEA	EDX,DWORD [-16+EAX]
   771 000004E3 89 D0                           	MOV	EAX,EDX
   772 000004E5 99                              	CDQ
   773 000004E6 F7 FE                           	IDIV	ESI
   774 000004E8 89 85 FFFFF80C                  	MOV	DWORD [-2036+EBP],EAX
   775 000004EE 0F BF 05 00000FF6               	MOVSX	EAX,WORD [4086]
   776 000004F5 6A 00                           	PUSH	0
   777 000004F7 8D 50 D4                        	LEA	EDX,DWORD [-44+EAX]
   778 000004FA 6A 00                           	PUSH	0
   779 000004FC 89 D0                           	MOV	EAX,EDX
   780 000004FE 99                              	CDQ
   781 000004FF F7 FE                           	IDIV	ESI
   782 00000501 FF B5 FFFFF828                  	PUSH	DWORD [-2008+EBP]
   783 00000507 89 85 FFFFF808                  	MOV	DWORD [-2040+EBP],EAX
   784 0000050D E8 [00000000]                   	CALL	_sheet_slide
   785 00000512 6A 00                           	PUSH	0
   786 00000514 FF B5 FFFFF828                  	PUSH	DWORD [-2008+EBP]
   787 0000051A E8 [00000000]                   	CALL	_sheet_updown
   788 0000051F 6A 00                           	PUSH	0
   789 00000521 6A 00                           	PUSH	0
   790 00000523 FF B5 FFFFF824                  	PUSH	DWORD [-2012+EBP]
   791 00000529 E8 [00000000]                   	CALL	_sheet_slide
   792 0000052E 83 C4 20                        	ADD	ESP,32
   793 00000531 FF B5 FFFFF808                  	PUSH	DWORD [-2040+EBP]
   794 00000537 FF B5 FFFFF80C                  	PUSH	DWORD [-2036+EBP]
   795 0000053D FF B5 FFFFF7F0                  	PUSH	DWORD [-2064+EBP]
   796 00000543 E8 [00000000]                   	CALL	_sheet_slide
   797 00000548 6A 00                           	PUSH	0
   798 0000054A FF B5 FFFFF824                  	PUSH	DWORD [-2012+EBP]
   799 00000550 E8 [00000000]                   	CALL	_sheet_updown
   800 00000555 6A 01                           	PUSH	1
   801 00000557 FF B5 FFFFF7F0                  	PUSH	DWORD [-2064+EBP]
   802 0000055D E8 [00000000]                   	CALL	_sheet_updown
   803 00000562 68 000000ED                     	PUSH	237
   804 00000567 8B 95 FFFFF824                  	MOV	EDX,DWORD [-2012+EBP]
   805 0000056D 53                              	PUSH	EBX
   806 0000056E 89 95 FFFFF7E4                  	MOV	DWORD [-2076+EBP],EDX
   807 00000574 E8 [00000000]                   	CALL	_fifo32_put
   808 00000579 83 C4 24                        	ADD	ESP,36
   809 0000057C FF B5 FFFFF7D8                  	PUSH	DWORD [-2088+EBP]
   810 00000582 53                              	PUSH	EBX
   811 00000583 E8 [00000000]                   	CALL	_fifo32_put
   812 00000588 8D 85 FFFFF824                  	LEA	EAX,DWORD [-2012+EBP]
   813 0000058E A3 0026F03C                     	MOV	DWORD [2551868],EAX
   814 00000593 58                              	POP	EAX
   815 00000594 5A                              	POP	EDX
   816 00000595 E8 [00000000]                   	CALL	_system_start
   817 0000059A E8 [00000000]                   	CALL	_device_init
   818 0000059F E8 [00000000]                   	CALL	_start_task_disk
   819 000005A4                                 L28:
   820 000005A4 8D 9D FFFFFEF4                  	LEA	EBX,DWORD [-268+EBP]
   821 000005AA 53                              	PUSH	EBX
   822 000005AB E8 [00000000]                   	CALL	_fifo32_status
   823 000005B0 5F                              	POP	EDI
   824 000005B1 85 C0                           	TEST	EAX,EAX
   825 000005B3 7E 0D                           	JLE	L31
   826 000005B5 83 BD FFFFF7D4 00               	CMP	DWORD [-2092+EBP],0
   827 000005BC 0F 88 00000B4A                  	JS	L144
   828 000005C2                                 L31:
   829 000005C2 8D 9D FFFFFF14                  	LEA	EBX,DWORD [-236+EBP]
   830 000005C8 E8 [00000000]                   	CALL	_io_cli
   831 000005CD 53                              	PUSH	EBX
   832 000005CE E8 [00000000]                   	CALL	_fifo32_status
   833 000005D3 5E                              	POP	ESI
   834 000005D4 85 C0                           	TEST	EAX,EAX
   835 000005D6 0F 84 00000AD1                  	JE	L145
   836 000005DC 53                              	PUSH	EBX
   837 000005DD E8 [00000000]                   	CALL	_fifo32_get
   838 000005E2 89 C6                           	MOV	ESI,EAX
   839 000005E4 E8 [00000000]                   	CALL	_io_sti
   840 000005E9 5B                              	POP	EBX
   841 000005EA 83 BD FFFFF7BC 00               	CMP	DWORD [-2116+EBP],0
   842 000005F1 74 3F                           	JE	L38
   843 000005F3 8B 85 FFFFF7BC                  	MOV	EAX,DWORD [-2116+EBP]
   844 000005F9 83 78 20 00                     	CMP	DWORD [32+EAX],0
   845 000005FD 75 33                           	JNE	L38
   846 000005FF 8B 85 FFFFF810                  	MOV	EAX,DWORD [-2032+EBP]
   847 00000605 C7 85 FFFFF7BC 00000000         	MOV	DWORD [-2116+EBP],0
   848 0000060F 8B 54 85 C4                     	MOV	EDX,DWORD [-60+EBP+EAX*4]
   849 00000613 8B 82 00000414                  	MOV	EAX,DWORD [1044+EDX]
   850 00000619 83 F8 01                        	CMP	EAX,1
   851 0000061C 74 14                           	JE	L38
   852 0000061E 8B 84 82 00000418               	MOV	EAX,DWORD [1048+EDX+EAX*4]
   853 00000625 50                              	PUSH	EAX
   854 00000626 89 85 FFFFF7BC                  	MOV	DWORD [-2116+EBP],EAX
   855 0000062C E8 00000B7D                     	CALL	_keywin_on
   856 00000631 59                              	POP	ECX
   857 00000632                                 L38:
   858 00000632 8D 86 FFFFFF00                  	LEA	EAX,DWORD [-256+ESI]
   859 00000638 3D 000000FF                     	CMP	EAX,255
   860 0000063D 0F 86 00000590                  	JBE	L146
   861 00000643 8D 86 FFFFFE00                  	LEA	EAX,DWORD [-512+ESI]
   862 00000649 3D 000000FF                     	CMP	EAX,255
   863 0000064E 0F 86 000000C1                  	JBE	L147
   864 00000654 8D 86 FFFFFD00                  	LEA	EAX,DWORD [-768+ESI]
   865 0000065A 3D 000000FF                     	CMP	EAX,255
   866 0000065F 0F 86 00000098                  	JBE	L148
   867 00000665 8D 86 FFFFFC00                  	LEA	EAX,DWORD [-1024+ESI]
   868 0000066B 3D 000003E7                     	CMP	EAX,999
   869 00000670 76 6D                           	JBE	L149
   870 00000672 8D 86 FFFFF818                  	LEA	EAX,DWORD [-2024+ESI]
   871 00000678 3D 000000FF                     	CMP	EAX,255
   872 0000067D 0F 87 FFFFFF21                  	JA	L28
   873 00000683 8B 95 FFFFF810                  	MOV	EDX,DWORD [-2032+EBP]
   874 00000689 BF 00000001                     	MOV	EDI,1
   875 0000068E 8B 44 95 C4                     	MOV	EAX,DWORD [-60+EBP+EDX*4]
   876 00000692 8B 9C B0 FFFFE068               	MOV	EBX,DWORD [-8088+EAX+ESI*4]
   877 00000699 31 C0                           	XOR	EAX,EAX
   878 0000069B 31 F6                           	XOR	ESI,ESI
   879 0000069D                                 L127:
   880 0000069D C1 E0 0C                        	SAL	EAX,12
   881 000006A0 6A 01                           	PUSH	1
   882 000006A2 03 03                           	ADD	EAX,DWORD [EBX]
   883 000006A4 50                              	PUSH	EAX
   884 000006A5 8D 85 FFFFF814                  	LEA	EAX,DWORD [-2028+EBP]
   885 000006AB 50                              	PUSH	EAX
   886 000006AC E8 [00000000]                   	CALL	_pageman_unlink_page_32
   887 000006B1 89 F8                           	MOV	EAX,EDI
   888 000006B3 83 C4 0C                        	ADD	ESP,12
   889 000006B6 8D 7E 02                        	LEA	EDI,DWORD [2+ESI]
   890 000006B9 83 F8 0A                        	CMP	EAX,10
   891 000006BC 89 C6                           	MOV	ESI,EAX
   892 000006BE 7E DD                           	JLE	L127
   893 000006C0 68 0000A500                     	PUSH	42240
   894 000006C5 FF 33                           	PUSH	DWORD [EBX]
   895 000006C7 68 003C0000                     	PUSH	3932160
   896 000006CC E8 [00000000]                   	CALL	_memman_free_4k
   897 000006D1 53                              	PUSH	EBX
   898 000006D2 E8 [00000000]                   	CALL	_sheet_free
   899 000006D7 83 C4 10                        	ADD	ESP,16
   900 000006DA E9 FFFFFEC5                     	JMP	L28
   901 000006DF                                 L149:
   902 000006DF 69 F6 0000018A                  	IMUL	ESI,ESI,394
   903 000006E5 03 35 [00000000]                	ADD	ESI,DWORD [_taskctl]
   904 000006EB 8D 86 FFF9E7FD                  	LEA	EAX,DWORD [-399363+ESI]
   905 000006F1 50                              	PUSH	EAX
   906 000006F2 E8 00000D9D                     	CALL	_close_constask
   907 000006F7                                 L139:
   908 000006F7 58                              	POP	EAX
   909 000006F8 E9 FFFFFEA7                     	JMP	L28
   910 000006FD                                 L148:
   911 000006FD 8B 95 FFFFF810                  	MOV	EDX,DWORD [-2032+EBP]
   912 00000703 8B 44 95 C4                     	MOV	EAX,DWORD [-60+EBP+EDX*4]
   913 00000707 FF B4 B0 FFFFF408               	PUSH	DWORD [-3064+EAX+ESI*4]
   914 0000070E E8 00000E47                     	CALL	_close_console
   915 00000713 EB E2                           	JMP	L139
   916 00000715                                 L147:
   917 00000715 89 F2                           	MOV	EDX,ESI
   918 00000717 0F B6 C2                        	MOVZX	EAX,DL
   919 0000071A 50                              	PUSH	EAX
   920 0000071B 8D 85 FFFFFC54                  	LEA	EAX,DWORD [-940+EBP]
   921 00000721 50                              	PUSH	EAX
   922 00000722 E8 [00000000]                   	CALL	_mouse_decode
   923 00000727 59                              	POP	ECX
   924 00000728 5B                              	POP	EBX
   925 00000729 85 C0                           	TEST	EAX,EAX
   926 0000072B 0F 84 FFFFFE73                  	JE	L28
   927 00000731 8B 85 FFFFFC5D                  	MOV	EAX,DWORD [-931+EBP]
   928 00000737 8B 95 FFFFFC59                  	MOV	EDX,DWORD [-935+EBP]
   929 0000073D 01 85 FFFFF808                  	ADD	DWORD [-2040+EBP],EAX
   930 00000743 01 95 FFFFF80C                  	ADD	DWORD [-2036+EBP],EDX
   931 00000749 0F 88 00000475                  	JS	L150
   932 0000074F                                 L81:
   933 0000074F 83 BD FFFFF808 00               	CMP	DWORD [-2040+EBP],0
   934 00000756 0F 88 00000459                  	JS	L151
   935 0000075C                                 L82:
   936 0000075C 0F BF 05 00000FF4               	MOVSX	EAX,WORD [4084]
   937 00000763 48                              	DEC	EAX
   938 00000764 39 85 FFFFF80C                  	CMP	DWORD [-2036+EBP],EAX
   939 0000076A 7E 06                           	JLE	L83
   940 0000076C 89 85 FFFFF80C                  	MOV	DWORD [-2036+EBP],EAX
   941 00000772                                 L83:
   942 00000772 0F BF 05 00000FF6               	MOVSX	EAX,WORD [4086]
   943 00000779 48                              	DEC	EAX
   944 0000077A 39 85 FFFFF808                  	CMP	DWORD [-2040+EBP],EAX
   945 00000780 7E 06                           	JLE	L84
   946 00000782 89 85 FFFFF808                  	MOV	DWORD [-2040+EBP],EAX
   947 00000788                                 L84:
   948 00000788 8B 85 FFFFF80C                  	MOV	EAX,DWORD [-2036+EBP]
   949 0000078E 8B 95 FFFFF808                  	MOV	EDX,DWORD [-2040+EBP]
   950 00000794 89 85 FFFFF804                  	MOV	DWORD [-2044+EBP],EAX
   951 0000079A 89 95 FFFFF800                  	MOV	DWORD [-2048+EBP],EDX
   952 000007A0 8B 85 FFFFF810                  	MOV	EAX,DWORD [-2032+EBP]
   953 000007A6 8B 44 85 C4                     	MOV	EAX,DWORD [-60+EBP+EAX*4]
   954 000007AA 89 85 FFFFF7B8                  	MOV	DWORD [-2120+EBP],EAX
   955 000007B0 8B 98 00000414                  	MOV	EBX,DWORD [1044+EAX]
   956 000007B6 4B                              	DEC	EBX
   957 000007B7 85 DB                           	TEST	EBX,EBX
   958 000007B9 7E 5B                           	JLE	L86
   959 000007BB                                 L93:
   960 000007BB 8B 95 FFFFF7B8                  	MOV	EDX,DWORD [-2120+EBP]
   961 000007C1 8B B5 FFFFF808                  	MOV	ESI,DWORD [-2040+EBP]
   962 000007C7 8B BD FFFFF80C                  	MOV	EDI,DWORD [-2036+EBP]
   963 000007CD 8B 94 9A 0000041C               	MOV	EDX,DWORD [1052+EDX+EBX*4]
   964 000007D4 89 95 FFFFF7C0                  	MOV	DWORD [-2112+EBP],EDX
   965 000007DA 2B 72 14                        	SUB	ESI,DWORD [20+EDX]
   966 000007DD 2B 7A 10                        	SUB	EDI,DWORD [16+EDX]
   967 000007E0 78 2F                           	JS	L87
   968 000007E2 8B 42 08                        	MOV	EAX,DWORD [8+EDX]
   969 000007E5 39 C7                           	CMP	EDI,EAX
   970 000007E7 7D 28                           	JGE	L87
   971 000007E9 85 F6                           	TEST	ESI,ESI
   972 000007EB 78 24                           	JS	L87
   973 000007ED 3B 72 0C                        	CMP	ESI,DWORD [12+EDX]
   974 000007F0 7D 1F                           	JGE	L87
   975 000007F2 0F AF C6                        	IMUL	EAX,ESI
   976 000007F5 01 F8                           	ADD	EAX,EDI
   977 000007F7 89 85 FFFFF7B0                  	MOV	DWORD [-2128+EBP],EAX
   978 000007FD 8B 0A                           	MOV	ECX,DWORD [EDX]
   979 000007FF 8B 85 FFFFF7B0                  	MOV	EAX,DWORD [-2128+EBP]
   980 00000805 8B 52 18                        	MOV	EDX,DWORD [24+EDX]
   981 00000808 39 14 81                        	CMP	DWORD [ECX+EAX*4],EDX
   982 0000080B 0F 85 000002D0                  	JNE	L152
   983 00000811                                 L87:
   984 00000811 4B                              	DEC	EBX
   985 00000812 85 DB                           	TEST	EBX,EBX
   986 00000814 7F A5                           	JG	L93
   987 00000816                                 L86:
   988 00000816 F6 85 FFFFFC61 01               	TEST	BYTE [-927+EBP],1
   989 0000081D 75 57                           	JNE	L153
   990 0000081F C7 85 FFFFF7E8 00000000         	MOV	DWORD [-2072+EBP],0
   991 00000829 C7 85 FFFFF7E0 00000000         	MOV	DWORD [-2080+EBP],0
   992 00000833 C7 85 FFFFF7CC FFFFFFFF         	MOV	DWORD [-2100+EBP],-1
   993 0000083D 81 BD FFFFF7FC 7FFFFFFF         	CMP	DWORD [-2052+EBP],2147483647
   994 00000847 0F 84 FFFFFD57                  	JE	L28
   995 0000084D                                 L140:
   996 0000084D FF B5 FFFFF7F8                  	PUSH	DWORD [-2056+EBP]
   997 00000853 FF B5 FFFFF7FC                  	PUSH	DWORD [-2052+EBP]
   998 00000859 FF B5 FFFFF7C0                  	PUSH	DWORD [-2112+EBP]
   999 0000085F E8 [00000000]                   	CALL	_sheet_slide
  1000 00000864 C7 85 FFFFF7FC 7FFFFFFF         	MOV	DWORD [-2052+EBP],2147483647
  1001 0000086E                                 L141:
  1002 0000086E 83 C4 0C                        	ADD	ESP,12
  1003 00000871 E9 FFFFFD2E                     	JMP	L28
  1004 00000876                                 L153:
  1005 00000876 83 BD FFFFF7CC 00               	CMP	DWORD [-2100+EBP],0
  1006 0000087D 78 46                           	JS	L154
  1007 0000087F 8B BD FFFFF80C                  	MOV	EDI,DWORD [-2036+EBP]
  1008 00000885 8B 85 FFFFF7C4                  	MOV	EAX,DWORD [-2108+EBP]
  1009 0000088B 2B BD FFFFF7CC                  	SUB	EDI,DWORD [-2100+EBP]
  1010 00000891 8B B5 FFFFF808                  	MOV	ESI,DWORD [-2040+EBP]
  1011 00000897 2B B5 FFFFF7C8                  	SUB	ESI,DWORD [-2104+EBP]
  1012 0000089D 8B 95 FFFFF808                  	MOV	EDX,DWORD [-2040+EBP]
  1013 000008A3 8D 7C 07 02                     	LEA	EDI,DWORD [2+EDI+EAX*1]
  1014 000008A7 89 95 FFFFF7C8                  	MOV	DWORD [-2104+EBP],EDX
  1015 000008AD 89 BD FFFFF7FC                  	MOV	DWORD [-2052+EBP],EDI
  1016 000008B3 01 B5 FFFFF7F8                  	ADD	DWORD [-2056+EBP],ESI
  1017 000008B9 83 A5 FFFFF7FC FC               	AND	DWORD [-2052+EBP],-4
  1018 000008C0 E9 FFFFFCDF                     	JMP	L28
  1019 000008C5                                 L154:
  1020 000008C5 8B 95 FFFFF810                  	MOV	EDX,DWORD [-2032+EBP]
  1021 000008CB 8B 54 95 C4                     	MOV	EDX,DWORD [-60+EBP+EDX*4]
  1022 000008CF 89 95 FFFFF7B4                  	MOV	DWORD [-2124+EBP],EDX
  1023 000008D5 8B 9A 00000414                  	MOV	EBX,DWORD [1044+EDX]
  1024 000008DB 4B                              	DEC	EBX
  1025 000008DC 85 DB                           	TEST	EBX,EBX
  1026 000008DE 7E 5D                           	JLE	L134
  1027 000008E0                                 L112:
  1028 000008E0 8B 85 FFFFF7B4                  	MOV	EAX,DWORD [-2124+EBP]
  1029 000008E6 8B B5 FFFFF808                  	MOV	ESI,DWORD [-2040+EBP]
  1030 000008EC 8B BD FFFFF80C                  	MOV	EDI,DWORD [-2036+EBP]
  1031 000008F2 8B 84 98 0000041C               	MOV	EAX,DWORD [1052+EAX+EBX*4]
  1032 000008F9 89 85 FFFFF7C0                  	MOV	DWORD [-2112+EBP],EAX
  1033 000008FF 2B 70 14                        	SUB	ESI,DWORD [20+EAX]
  1034 00000902 2B 78 10                        	SUB	EDI,DWORD [16+EAX]
  1035 00000905 78 31                           	JS	L99
  1036 00000907 8B 40 08                        	MOV	EAX,DWORD [8+EAX]
  1037 0000090A 39 C7                           	CMP	EDI,EAX
  1038 0000090C 7D 2A                           	JGE	L99
  1039 0000090E 85 F6                           	TEST	ESI,ESI
  1040 00000910 78 26                           	JS	L99
  1041 00000912 8B 95 FFFFF7C0                  	MOV	EDX,DWORD [-2112+EBP]
  1042 00000918 3B 72 0C                        	CMP	ESI,DWORD [12+EDX]
  1043 0000091B 7D 1B                           	JGE	L99
  1044 0000091D 0F AF C6                        	IMUL	EAX,ESI
  1045 00000920 01 F8                           	ADD	EAX,EDI
  1046 00000922 89 85 FFFFF7B0                  	MOV	DWORD [-2128+EBP],EAX
  1047 00000928 8B 0A                           	MOV	ECX,DWORD [EDX]
  1048 0000092A 8B 85 FFFFF7B0                  	MOV	EAX,DWORD [-2128+EBP]
  1049 00000930 8B 52 18                        	MOV	EDX,DWORD [24+EDX]
  1050 00000933 39 14 81                        	CMP	DWORD [ECX+EAX*4],EDX
  1051 00000936 75 14                           	JNE	L155
  1052 00000938                                 L99:
  1053 00000938 4B                              	DEC	EBX
  1054 00000939 85 DB                           	TEST	EBX,EBX
  1055 0000093B 7F A3                           	JG	L112
  1056 0000093D                                 L134:
  1057 0000093D C7 85 FFFFF7E8 FFFFFFFF         	MOV	DWORD [-2072+EBP],-1
  1058 00000947 E9 FFFFFC58                     	JMP	L28
  1059 0000094C                                 L155:
  1060 0000094C 8B 95 FFFFF7C0                  	MOV	EDX,DWORD [-2112+EBP]
  1061 00000952 39 95 FFFFF7E8                  	CMP	DWORD [-2072+EBP],EDX
  1062 00000958 74 5A                           	JE	L104
  1063 0000095A 83 BD FFFFF7E8 00               	CMP	DWORD [-2072+EBP],0
  1064 00000961 74 0A                           	JE	L156
  1065 00000963                                 L98:
  1066 00000963 85 DB                           	TEST	EBX,EBX
  1067 00000965 0F 8F FFFFFC39                  	JG	L28
  1068 0000096B EB D0                           	JMP	L134
  1069 0000096D                                 L156:
  1070 0000096D 8B 95 FFFFF7B4                  	MOV	EDX,DWORD [-2124+EBP]
  1071 00000973 8B 82 00000414                  	MOV	EAX,DWORD [1044+EDX]
  1072 00000979 48                              	DEC	EAX
  1073 0000097A 50                              	PUSH	EAX
  1074 0000097B FF B5 FFFFF7C0                  	PUSH	DWORD [-2112+EBP]
  1075 00000981 E8 [00000000]                   	CALL	_sheet_updown
  1076 00000986 58                              	POP	EAX
  1077 00000987 8B 85 FFFFF7BC                  	MOV	EAX,DWORD [-2116+EBP]
  1078 0000098D 5A                              	POP	EDX
  1079 0000098E 39 85 FFFFF7C0                  	CMP	DWORD [-2112+EBP],EAX
  1080 00000994 74 1E                           	JE	L104
  1081 00000996 85 C0                           	TEST	EAX,EAX
  1082 00000998 74 07                           	JE	L106
  1083 0000099A 50                              	PUSH	EAX
  1084 0000099B E8 000007E0                     	CALL	_keywin_off
  1085 000009A0 58                              	POP	EAX
  1086 000009A1                                 L106:
  1087 000009A1 8B 95 FFFFF7C0                  	MOV	EDX,DWORD [-2112+EBP]
  1088 000009A7 52                              	PUSH	EDX
  1089 000009A8 89 95 FFFFF7BC                  	MOV	DWORD [-2116+EBP],EDX
  1090 000009AE E8 000007FB                     	CALL	_keywin_on
  1091 000009B3 58                              	POP	EAX
  1092 000009B4                                 L104:
  1093 000009B4 83 FF 02                        	CMP	EDI,2
  1094 000009B7 0F 8E 00000115                  	JLE	L107
  1095 000009BD 8B 95 FFFFF7C0                  	MOV	EDX,DWORD [-2112+EBP]
  1096 000009C3 8B 42 08                        	MOV	EAX,DWORD [8+EDX]
  1097 000009C6 83 E8 03                        	SUB	EAX,3
  1098 000009C9 39 C7                           	CMP	EDI,EAX
  1099 000009CB 0F 8D 00000101                  	JGE	L107
  1100 000009D1 83 FE 02                        	CMP	ESI,2
  1101 000009D4 0F 8E 000000F8                  	JLE	L107
  1102 000009DA 83 FE 14                        	CMP	ESI,20
  1103 000009DD 0F 8F 000000EF                  	JG	L107
  1104 000009E3 83 BD FFFFF7E0 00               	CMP	DWORD [-2080+EBP],0
  1105 000009EA 0F 85 000000E2                  	JNE	L107
  1106 000009F0 8B 85 FFFFF80C                  	MOV	EAX,DWORD [-2036+EBP]
  1107 000009F6 8B 95 FFFFF808                  	MOV	EDX,DWORD [-2040+EBP]
  1108 000009FC 89 85 FFFFF7CC                  	MOV	DWORD [-2100+EBP],EAX
  1109 00000A02 89 95 FFFFF7C8                  	MOV	DWORD [-2104+EBP],EDX
  1110 00000A08 8B 85 FFFFF7C0                  	MOV	EAX,DWORD [-2112+EBP]
  1111 00000A0E 8B 95 FFFFF7C0                  	MOV	EDX,DWORD [-2112+EBP]
  1112 00000A14 8B 40 10                        	MOV	EAX,DWORD [16+EAX]
  1113 00000A17 8B 52 14                        	MOV	EDX,DWORD [20+EDX]
  1114 00000A1A 89 85 FFFFF7C4                  	MOV	DWORD [-2108+EBP],EAX
  1115 00000A20 89 95 FFFFF7F8                  	MOV	DWORD [-2056+EBP],EDX
  1116 00000A26                                 L108:
  1117 00000A26 8B 95 FFFFF7C0                  	MOV	EDX,DWORD [-2112+EBP]
  1118 00000A2C 8B 42 28                        	MOV	EAX,DWORD [40+EDX]
  1119 00000A2F 83 B8 00000820 00               	CMP	DWORD [2080+EAX],0
  1120 00000A36 75 67                           	JNE	L109
  1121 00000A38 8B 52 08                        	MOV	EDX,DWORD [8+EDX]
  1122 00000A3B 8D 42 EB                        	LEA	EAX,DWORD [-21+EDX]
  1123 00000A3E 39 F8                           	CMP	EAX,EDI
  1124 00000A40 7F 5D                           	JG	L109
  1125 00000A42 8D 42 FB                        	LEA	EAX,DWORD [-5+EDX]
  1126 00000A45 39 C7                           	CMP	EDI,EAX
  1127 00000A47 7D 56                           	JGE	L109
  1128 00000A49 83 FE 04                        	CMP	ESI,4
  1129 00000A4C 7E 51                           	JLE	L109
  1130 00000A4E 83 FE 12                        	CMP	ESI,18
  1131 00000A51 7F 4C                           	JG	L109
  1132 00000A53 8B 95 FFFFF7C0                  	MOV	EDX,DWORD [-2112+EBP]
  1133 00000A59 F6 42 20 10                     	TEST	BYTE [32+EDX],16
  1134 00000A5D 74 51                           	JE	L110
  1135 00000A5F 8B 7A 30                        	MOV	EDI,DWORD [48+EDX]
  1136 00000A62 68 [00000190]                   	PUSH	LC2
  1137 00000A67 FF B7 000000E4                  	PUSH	DWORD [228+EDI]
  1138 00000A6D E8 [00000000]                   	CALL	_cons_putstr0
  1139 00000A72 E8 [00000000]                   	CALL	_io_cli
  1140 00000A77 8D 47 60                        	LEA	EAX,DWORD [96+EDI]
  1141 00000A7A 89 87 00000084                  	MOV	DWORD [132+EDI],EAX
  1142 00000A80 E8 00000B85                     	CALL	_get_this
  1143 00000A85 05 [00000000]                   	ADD	EAX,_asm_end_app
  1144 00000A8A 89 47 7C                        	MOV	DWORD [124+EDI],EAX
  1145 00000A8D E8 [00000000]                   	CALL	_io_sti
  1146 00000A92 6A 00                           	PUSH	0
  1147 00000A94 6A FF                           	PUSH	-1
  1148 00000A96 57                              	PUSH	EDI
  1149 00000A97 E8 [00000000]                   	CALL	_task_run
  1150 00000A9C 83 C4 14                        	ADD	ESP,20
  1151 00000A9F                                 L109:
  1152 00000A9F 8B 95 FFFFF7C0                  	MOV	EDX,DWORD [-2112+EBP]
  1153 00000AA5 89 95 FFFFF7E8                  	MOV	DWORD [-2072+EBP],EDX
  1154 00000AAB E9 FFFFFEB3                     	JMP	L98
  1155 00000AB0                                 L110:
  1156 00000AB0 8B 85 FFFFF7C0                  	MOV	EAX,DWORD [-2112+EBP]
  1157 00000AB6 8B 78 30                        	MOV	EDI,DWORD [48+EAX]
  1158 00000AB9 E8 [00000000]                   	CALL	_io_cli
  1159 00000ABE 6A 04                           	PUSH	4
  1160 00000AC0 8D 47 10                        	LEA	EAX,DWORD [16+EDI]
  1161 00000AC3 50                              	PUSH	EAX
  1162 00000AC4 E8 [00000000]                   	CALL	_fifo32_put
  1163 00000AC9 E8 [00000000]                   	CALL	_io_sti
  1164 00000ACE 5A                              	POP	EDX
  1165 00000ACF 59                              	POP	ECX
  1166 00000AD0 EB CD                           	JMP	L109
  1167 00000AD2                                 L107:
  1168 00000AD2 C7 85 FFFFF7E0 FFFFFFFF         	MOV	DWORD [-2080+EBP],-1
  1169 00000ADC E9 FFFFFF45                     	JMP	L108
  1170 00000AE1                                 L152:
  1171 00000AE1 8B 95 FFFFF7C0                  	MOV	EDX,DWORD [-2112+EBP]
  1172 00000AE7 39 95 FFFFF7E4                  	CMP	DWORD [-2076+EBP],EDX
  1173 00000AED 74 5A                           	JE	L91
  1174 00000AEF 83 BD FFFFF7E4 00               	CMP	DWORD [-2076+EBP],0
  1175 00000AF6 74 51                           	JE	L91
  1176 00000AF8 8B 95 FFFFF7E4                  	MOV	EDX,DWORD [-2076+EBP]
  1177 00000AFE 8B 42 30                        	MOV	EAX,DWORD [48+EDX]
  1178 00000B01 85 C0                           	TEST	EAX,EAX
  1179 00000B03 74 44                           	JE	L91
  1180 00000B05 83 B8 00000176 00               	CMP	DWORD [374+EAX],0
  1181 00000B0C 74 3B                           	JE	L91
  1182 00000B0E FF B5 FFFFFC61                  	PUSH	DWORD [-927+EBP]
  1183 00000B14 6A 00                           	PUSH	0
  1184 00000B16 6A 00                           	PUSH	0
  1185 00000B18 8B 42 30                        	MOV	EAX,DWORD [48+EDX]
  1186 00000B1B 83 C0 2C                        	ADD	EAX,44
  1187 00000B1E 50                              	PUSH	EAX
  1188 00000B1F E8 [00000000]                   	CALL	_fifo_mouse_put
  1189 00000B24 8B 95 FFFFF7E4                  	MOV	EDX,DWORD [-2076+EBP]
  1190 00000B2A C7 40 0C 00000000               	MOV	DWORD [12+EAX],0
  1191 00000B31 8B 42 30                        	MOV	EAX,DWORD [48+EDX]
  1192 00000B34 FF B0 00000176                  	PUSH	DWORD [374+EAX]
  1193 00000B3A 8B 42 30                        	MOV	EAX,DWORD [48+EDX]
  1194 00000B3D 83 C0 10                        	ADD	EAX,16
  1195 00000B40 50                              	PUSH	EAX
  1196 00000B41 E8 [00000000]                   	CALL	_fifo32_put
  1197 00000B46 83 C4 18                        	ADD	ESP,24
  1198 00000B49                                 L91:
  1199 00000B49 8B 95 FFFFF7C0                  	MOV	EDX,DWORD [-2112+EBP]
  1200 00000B4F 8B 42 30                        	MOV	EAX,DWORD [48+EDX]
  1201 00000B52 85 C0                           	TEST	EAX,EAX
  1202 00000B54 74 4E                           	JE	L92
  1203 00000B56 83 B8 00000176 00               	CMP	DWORD [374+EAX],0
  1204 00000B5D 74 45                           	JE	L92
  1205 00000B5F E8 [00000000]                   	CALL	_io_cli
  1206 00000B64 8B 95 FFFFF7C0                  	MOV	EDX,DWORD [-2112+EBP]
  1207 00000B6A FF B5 FFFFFC61                  	PUSH	DWORD [-927+EBP]
  1208 00000B70 56                              	PUSH	ESI
  1209 00000B71 57                              	PUSH	EDI
  1210 00000B72 8B 42 30                        	MOV	EAX,DWORD [48+EDX]
  1211 00000B75 83 C0 2C                        	ADD	EAX,44
  1212 00000B78 50                              	PUSH	EAX
  1213 00000B79 E8 [00000000]                   	CALL	_fifo_mouse_put
  1214 00000B7E 8B 95 FFFFF7C0                  	MOV	EDX,DWORD [-2112+EBP]
  1215 00000B84 89 50 0C                        	MOV	DWORD [12+EAX],EDX
  1216 00000B87 8B 42 30                        	MOV	EAX,DWORD [48+EDX]
  1217 00000B8A FF B0 00000176                  	PUSH	DWORD [374+EAX]
  1218 00000B90 8B 42 30                        	MOV	EAX,DWORD [48+EDX]
  1219 00000B93 83 C0 10                        	ADD	EAX,16
  1220 00000B96 50                              	PUSH	EAX
  1221 00000B97 E8 [00000000]                   	CALL	_fifo32_put
  1222 00000B9C E8 [00000000]                   	CALL	_io_sti
  1223 00000BA1 83 C4 18                        	ADD	ESP,24
  1224 00000BA4                                 L92:
  1225 00000BA4 8B 85 FFFFF7C0                  	MOV	EAX,DWORD [-2112+EBP]
  1226 00000BAA 89 85 FFFFF7E4                  	MOV	DWORD [-2076+EBP],EAX
  1227 00000BB0 E9 FFFFFC61                     	JMP	L86
  1228 00000BB5                                 L151:
  1229 00000BB5 C7 85 FFFFF808 00000000         	MOV	DWORD [-2040+EBP],0
  1230 00000BBF E9 FFFFFB98                     	JMP	L82
  1231 00000BC4                                 L150:
  1232 00000BC4 C7 85 FFFFF80C 00000000         	MOV	DWORD [-2036+EBP],0
  1233 00000BCE E9 FFFFFB7C                     	JMP	L81
  1234 00000BD3                                 L146:
  1235 00000BD3 81 FE 000001E0                  	CMP	ESI,480
  1236 00000BD9 0F 84 000004C4                  	JE	L157
  1237 00000BDF 81 FE 0000017F                  	CMP	ESI,383
  1238 00000BE5 0F 8F 000004AC                  	JG	L44
  1239 00000BEB 83 BD FFFFF7DC 00               	CMP	DWORD [-2084+EBP],0
  1240 00000BF2 0F 85 00000494                  	JNE	L45
  1241 00000BF8 8A 86 [FFFFFF10]                	MOV	AL,BYTE [_keytable0.0-256+ESI]
  1242 00000BFE                                 L142:
  1243 00000BFE 88 85 FFFFFF34                  	MOV	BYTE [-204+EBP],AL
  1244 00000C04                                 L43:
  1245 00000C04 8A 95 FFFFFF34                  	MOV	DL,BYTE [-204+EBP]
  1246 00000C0A 8D 42 BF                        	LEA	EAX,DWORD [-65+EDX]
  1247 00000C0D 3C 19                           	CMP	AL,25
  1248 00000C0F 77 1D                           	JA	L48
  1249 00000C11 F7 85 FFFFF7D8 00000004         	TEST	DWORD [-2088+EBP],4
  1250 00000C1B 0F 85 0000045C                  	JNE	L136
  1251 00000C21 83 BD FFFFF7DC 00               	CMP	DWORD [-2084+EBP],0
  1252 00000C28 0F 84 00000441                  	JE	L50
  1253 00000C2E                                 L48:
  1254 00000C2E 8A 85 FFFFFF34                  	MOV	AL,BYTE [-204+EBP]
  1255 00000C34 84 C0                           	TEST	AL,AL
  1256 00000C36 74 26                           	JE	L52
  1257 00000C38 83 BD FFFFF7BC 00               	CMP	DWORD [-2116+EBP],0
  1258 00000C3F 74 1D                           	JE	L52
  1259 00000C41 0F BE C0                        	MOVSX	EAX,AL
  1260 00000C44 8B 95 FFFFF7BC                  	MOV	EDX,DWORD [-2116+EBP]
  1261 00000C4A 05 00000100                     	ADD	EAX,256
  1262 00000C4F 50                              	PUSH	EAX
  1263 00000C50 8B 42 30                        	MOV	EAX,DWORD [48+EDX]
  1264 00000C53 83 C0 10                        	ADD	EAX,16
  1265 00000C56 50                              	PUSH	EAX
  1266 00000C57 E8 [00000000]                   	CALL	_fifo32_put
  1267 00000C5C 58                              	POP	EAX
  1268 00000C5D 5A                              	POP	EDX
  1269 00000C5E                                 L52:
  1270 00000C5E 81 FE 0000010F                  	CMP	ESI,271
  1271 00000C64 0F 84 000003AC                  	JE	L158
  1272 00000C6A                                 L53:
  1273 00000C6A 81 FE 0000012A                  	CMP	ESI,298
  1274 00000C70 0F 84 00000394                  	JE	L159
  1275 00000C76                                 L55:
  1276 00000C76 81 FE 00000136                  	CMP	ESI,310
  1277 00000C7C 0F 84 0000037C                  	JE	L160
  1278 00000C82                                 L56:
  1279 00000C82 81 FE 000001AA                  	CMP	ESI,426
  1280 00000C88 0F 84 00000364                  	JE	L161
  1281 00000C8E                                 L57:
  1282 00000C8E 81 FE 000001B6                  	CMP	ESI,438
  1283 00000C94 0F 84 0000034C                  	JE	L162
  1284 00000C9A                                 L58:
  1285 00000C9A 81 FE 0000013A                  	CMP	ESI,314
  1286 00000CA0 0F 84 00000314                  	JE	L163
  1287 00000CA6                                 L59:
  1288 00000CA6 81 FE 00000145                  	CMP	ESI,325
  1289 00000CAC 0F 84 000002DC                  	JE	L164
  1290 00000CB2                                 L60:
  1291 00000CB2 81 FE 00000146                  	CMP	ESI,326
  1292 00000CB8 0F 84 000002A4                  	JE	L165
  1293 00000CBE                                 L61:
  1294 00000CBE 81 FE 00000138                  	CMP	ESI,312
  1295 00000CC4 0F 84 0000028C                  	JE	L166
  1296 00000CCA                                 L64:
  1297 00000CCA 81 FE 000001B8                  	CMP	ESI,440
  1298 00000CD0 0F 84 00000274                  	JE	L167
  1299 00000CD6                                 L65:
  1300 00000CD6 83 BD FFFFF7D0 00               	CMP	DWORD [-2096+EBP],0
  1301 00000CDD 0F 84 000000C3                  	JE	L66
  1302 00000CE3 81 FE 0000013A                  	CMP	ESI,314
  1303 00000CE9 0F 8E 000000B7                  	JLE	L66
  1304 00000CEF 81 FE 00000144                  	CMP	ESI,324
  1305 00000CF5 0F 8F 000000AB                  	JG	L66
  1306 00000CFB 8D 9E FFFFFEC5                  	LEA	EBX,DWORD [-315+ESI]
  1307 00000D01 3B 1D 0026F01C                  	CMP	EBX,DWORD [2551836]
  1308 00000D07 0F 8D 00000099                  	JGE	L66
  1309 00000D0D 83 BD FFFFF7E8 00               	CMP	DWORD [-2072+EBP],0
  1310 00000D14 0F 84 000001E4                  	JE	L68
  1311 00000D1A 6A FF                           	PUSH	-1
  1312 00000D1C FF B5 FFFFF7E8                  	PUSH	DWORD [-2072+EBP]
  1313 00000D22 E8 [00000000]                   	CALL	_sheet_updown
  1314 00000D27 8B 95 FFFFF7E8                  	MOV	EDX,DWORD [-2072+EBP]
  1315 00000D2D 8B 44 9D C4                     	MOV	EAX,DWORD [-60+EBP+EBX*4]
  1316 00000D31 89 42 28                        	MOV	DWORD [40+EDX],EAX
  1317 00000D34 8B 44 9D C4                     	MOV	EAX,DWORD [-60+EBP+EBX*4]
  1318 00000D38 C7 42 1C FFFFFFFF               	MOV	DWORD [28+EDX],-1
  1319 00000D3F 8B 80 00000414                  	MOV	EAX,DWORD [1044+EAX]
  1320 00000D45 40                              	INC	EAX
  1321 00000D46 50                              	PUSH	EAX
  1322 00000D47 52                              	PUSH	EDX
  1323 00000D48 E8 [00000000]                   	CALL	_sheet_updown
  1324 00000D4D 6A FF                           	PUSH	-1
  1325 00000D4F FF B5 FFFFF7F0                  	PUSH	DWORD [-2064+EBP]
  1326 00000D55 E8 [00000000]                   	CALL	_sheet_updown
  1327 00000D5A 8B 95 FFFFF7F0                  	MOV	EDX,DWORD [-2064+EBP]
  1328 00000D60 8B 44 9D C4                     	MOV	EAX,DWORD [-60+EBP+EBX*4]
  1329 00000D64 89 42 28                        	MOV	DWORD [40+EDX],EAX
  1330 00000D67 68 000000FE                     	PUSH	254
  1331 00000D6C 52                              	PUSH	EDX
  1332 00000D6D E8 [00000000]                   	CALL	_sheet_updown
  1333 00000D72 83 C4 20                        	ADD	ESP,32
  1334 00000D75                                 L69:
  1335 00000D75 8B 44 9D C4                     	MOV	EAX,DWORD [-60+EBP+EBX*4]
  1336 00000D79 89 9D FFFFF810                  	MOV	DWORD [-2032+EBP],EBX
  1337 00000D7F A3 00000FE4                     	MOV	DWORD [4068],EAX
  1338 00000D84 FF B0 00000414                  	PUSH	DWORD [1044+EAX]
  1339 00000D8A 6A 00                           	PUSH	0
  1340 00000D8C FF B0 00000410                  	PUSH	DWORD [1040+EAX]
  1341 00000D92 FF B0 0000040C                  	PUSH	DWORD [1036+EAX]
  1342 00000D98 6A 00                           	PUSH	0
  1343 00000D9A 6A 00                           	PUSH	0
  1344 00000D9C 50                              	PUSH	EAX
  1345 00000D9D FF 90 00000824                  	CALL	DWORD [2084+EAX]
  1346 00000DA3 83 C4 1C                        	ADD	ESP,28
  1347 00000DA6                                 L66:
  1348 00000DA6 81 FE 0000013B                  	CMP	ESI,315
  1349 00000DAC 0F 84 000000DB                  	JE	L168
  1350 00000DB2                                 L71:
  1351 00000DB2 81 FE 0000013C                  	CMP	ESI,316
  1352 00000DB8 74 62                           	JE	L169
  1353 00000DBA                                 L73:
  1354 00000DBA 81 FE 00000157                  	CMP	ESI,343
  1355 00000DC0 74 39                           	JE	L170
  1356 00000DC2                                 L75:
  1357 00000DC2 81 FE 000001FA                  	CMP	ESI,506
  1358 00000DC8 74 25                           	JE	L171
  1359 00000DCA                                 L76:
  1360 00000DCA 81 FE 000001FE                  	CMP	ESI,510
  1361 00000DD0 0F 85 FFFFF7CE                  	JNE	L28
  1362 00000DD6 E8 [00000000]                   	CALL	_wait_KBC_sendready
  1363 00000DDB FF B5 FFFFF7D4                  	PUSH	DWORD [-2092+EBP]
  1364 00000DE1 6A 60                           	PUSH	96
  1365 00000DE3 E8 [00000000]                   	CALL	_io_out8
  1366 00000DE8 5E                              	POP	ESI
  1367 00000DE9 5F                              	POP	EDI
  1368 00000DEA E9 FFFFF7B5                     	JMP	L28
  1369 00000DEF                                 L171:
  1370 00000DEF C7 85 FFFFF7D4 FFFFFFFF         	MOV	DWORD [-2092+EBP],-1
  1371 00000DF9 EB CF                           	JMP	L76
  1372 00000DFB                                 L170:
  1373 00000DFB 8B 85 FFFFF810                  	MOV	EAX,DWORD [-2032+EBP]
  1374 00000E01 8B 54 85 C4                     	MOV	EDX,DWORD [-60+EBP+EAX*4]
  1375 00000E05 8B 82 00000414                  	MOV	EAX,DWORD [1044+EDX]
  1376 00000E0B 48                              	DEC	EAX
  1377 00000E0C 50                              	PUSH	EAX
  1378 00000E0D FF B2 00000420                  	PUSH	DWORD [1056+EDX]
  1379 00000E13 E8 [00000000]                   	CALL	_sheet_updown
  1380 00000E18 58                              	POP	EAX
  1381 00000E19 5A                              	POP	EDX
  1382 00000E1A EB A6                           	JMP	L75
  1383 00000E1C                                 L169:
  1384 00000E1C 83 BD FFFFF7DC 00               	CMP	DWORD [-2084+EBP],0
  1385 00000E23 74 95                           	JE	L73
  1386 00000E25 83 BD FFFFF7BC 00               	CMP	DWORD [-2116+EBP],0
  1387 00000E2C 74 0C                           	JE	L74
  1388 00000E2E FF B5 FFFFF7BC                  	PUSH	DWORD [-2116+EBP]
  1389 00000E34 E8 00000347                     	CALL	_keywin_off
  1390 00000E39 59                              	POP	ECX
  1391 00000E3A                                 L74:
  1392 00000E3A 8B 95 FFFFF810                  	MOV	EDX,DWORD [-2032+EBP]
  1393 00000E40 FF B5 FFFFF7F4                  	PUSH	DWORD [-2060+EBP]
  1394 00000E46 FF 74 95 C4                     	PUSH	DWORD [-60+EBP+EDX*4]
  1395 00000E4A E8 000005A9                     	CALL	_open_console
  1396 00000E4F 6A 20                           	PUSH	32
  1397 00000E51 6A 20                           	PUSH	32
  1398 00000E53 50                              	PUSH	EAX
  1399 00000E54 89 85 FFFFF7BC                  	MOV	DWORD [-2116+EBP],EAX
  1400 00000E5A E8 [00000000]                   	CALL	_sheet_slide
  1401 00000E5F 8B 95 FFFFF810                  	MOV	EDX,DWORD [-2032+EBP]
  1402 00000E65 8B 44 95 C4                     	MOV	EAX,DWORD [-60+EBP+EDX*4]
  1403 00000E69 FF B0 00000414                  	PUSH	DWORD [1044+EAX]
  1404 00000E6F FF B5 FFFFF7BC                  	PUSH	DWORD [-2116+EBP]
  1405 00000E75 E8 [00000000]                   	CALL	_sheet_updown
  1406 00000E7A FF B5 FFFFF7BC                  	PUSH	DWORD [-2116+EBP]
  1407 00000E80 E8 00000329                     	CALL	_keywin_on
  1408 00000E85 83 C4 20                        	ADD	ESP,32
  1409 00000E88 E9 FFFFFF2D                     	JMP	L73
  1410 00000E8D                                 L168:
  1411 00000E8D 83 BD FFFFF7DC 00               	CMP	DWORD [-2084+EBP],0
  1412 00000E94 0F 84 FFFFFF18                  	JE	L71
  1413 00000E9A 83 BD FFFFF7BC 00               	CMP	DWORD [-2116+EBP],0
  1414 00000EA1 0F 84 FFFFFF0B                  	JE	L71
  1415 00000EA7 8B 85 FFFFF7BC                  	MOV	EAX,DWORD [-2116+EBP]
  1416 00000EAD 8B 78 30                        	MOV	EDI,DWORD [48+EAX]
  1417 00000EB0 85 FF                           	TEST	EDI,EDI
  1418 00000EB2 0F 84 FFFFFEFA                  	JE	L71
  1419 00000EB8 83 7F 64 00                     	CMP	DWORD [100+EDI],0
  1420 00000EBC 0F 84 FFFFFEF0                  	JE	L71
  1421 00000EC2 68 [000001A1]                   	PUSH	LC1
  1422 00000EC7 FF B7 000000E4                  	PUSH	DWORD [228+EDI]
  1423 00000ECD E8 [00000000]                   	CALL	_cons_putstr0
  1424 00000ED2 E8 [00000000]                   	CALL	_io_cli
  1425 00000ED7 8D 47 60                        	LEA	EAX,DWORD [96+EDI]
  1426 00000EDA 89 87 00000084                  	MOV	DWORD [132+EDI],EAX
  1427 00000EE0 C7 47 7C [00000000]             	MOV	DWORD [124+EDI],_asm_end_app
  1428 00000EE7 E8 [00000000]                   	CALL	_io_sti
  1429 00000EEC 6A 00                           	PUSH	0
  1430 00000EEE 6A FF                           	PUSH	-1
  1431 00000EF0 57                              	PUSH	EDI
  1432 00000EF1 E8 [00000000]                   	CALL	_task_run
  1433 00000EF6 83 C4 14                        	ADD	ESP,20
  1434 00000EF9 E9 FFFFFEB4                     	JMP	L71
  1435 00000EFE                                 L68:
  1436 00000EFE 83 BD FFFFF7BC 00               	CMP	DWORD [-2116+EBP],0
  1437 00000F05 74 0C                           	JE	L70
  1438 00000F07 FF B5 FFFFF7BC                  	PUSH	DWORD [-2116+EBP]
  1439 00000F0D E8 0000026E                     	CALL	_keywin_off
  1440 00000F12 5F                              	POP	EDI
  1441 00000F13                                 L70:
  1442 00000F13 6A FF                           	PUSH	-1
  1443 00000F15 FF B5 FFFFF7F0                  	PUSH	DWORD [-2064+EBP]
  1444 00000F1B C7 85 FFFFF7BC 00000000         	MOV	DWORD [-2116+EBP],0
  1445 00000F25 E8 [00000000]                   	CALL	_sheet_updown
  1446 00000F2A 8B 95 FFFFF7F0                  	MOV	EDX,DWORD [-2064+EBP]
  1447 00000F30 8B 44 9D C4                     	MOV	EAX,DWORD [-60+EBP+EBX*4]
  1448 00000F34 89 42 28                        	MOV	DWORD [40+EDX],EAX
  1449 00000F37 68 000000FE                     	PUSH	254
  1450 00000F3C 52                              	PUSH	EDX
  1451 00000F3D E8 [00000000]                   	CALL	_sheet_updown
  1452 00000F42 83 C4 10                        	ADD	ESP,16
  1453 00000F45 E9 FFFFFE2B                     	JMP	L69
  1454 00000F4A                                 L167:
  1455 00000F4A 83 A5 FFFFF7D0 FE               	AND	DWORD [-2096+EBP],-2
  1456 00000F51 E9 FFFFFD80                     	JMP	L65
  1457 00000F56                                 L166:
  1458 00000F56 83 8D FFFFF7D0 01               	OR	DWORD [-2096+EBP],1
  1459 00000F5D E9 FFFFFD68                     	JMP	L64
  1460 00000F62                                 L165:
  1461 00000F62 68 000000ED                     	PUSH	237
  1462 00000F67 8D 9D FFFFFEF4                  	LEA	EBX,DWORD [-268+EBP]
  1463 00000F6D 53                              	PUSH	EBX
  1464 00000F6E 83 B5 FFFFF7D8 01               	XOR	DWORD [-2088+EBP],1
  1465 00000F75 E8 [00000000]                   	CALL	_fifo32_put
  1466 00000F7A FF B5 FFFFF7D8                  	PUSH	DWORD [-2088+EBP]
  1467 00000F80 53                              	PUSH	EBX
  1468 00000F81 E8 [00000000]                   	CALL	_fifo32_put
  1469 00000F86 83 C4 10                        	ADD	ESP,16
  1470 00000F89 E9 FFFFFD30                     	JMP	L61
  1471 00000F8E                                 L164:
  1472 00000F8E 68 000000ED                     	PUSH	237
  1473 00000F93 8D 9D FFFFFEF4                  	LEA	EBX,DWORD [-268+EBP]
  1474 00000F99 53                              	PUSH	EBX
  1475 00000F9A 83 B5 FFFFF7D8 02               	XOR	DWORD [-2088+EBP],2
  1476 00000FA1 E8 [00000000]                   	CALL	_fifo32_put
  1477 00000FA6 FF B5 FFFFF7D8                  	PUSH	DWORD [-2088+EBP]
  1478 00000FAC 53                              	PUSH	EBX
  1479 00000FAD E8 [00000000]                   	CALL	_fifo32_put
  1480 00000FB2 83 C4 10                        	ADD	ESP,16
  1481 00000FB5 E9 FFFFFCF8                     	JMP	L60
  1482 00000FBA                                 L163:
  1483 00000FBA 68 000000ED                     	PUSH	237
  1484 00000FBF 8D 9D FFFFFEF4                  	LEA	EBX,DWORD [-268+EBP]
  1485 00000FC5 53                              	PUSH	EBX
  1486 00000FC6 83 B5 FFFFF7D8 04               	XOR	DWORD [-2088+EBP],4
  1487 00000FCD E8 [00000000]                   	CALL	_fifo32_put
  1488 00000FD2 FF B5 FFFFF7D8                  	PUSH	DWORD [-2088+EBP]
  1489 00000FD8 53                              	PUSH	EBX
  1490 00000FD9 E8 [00000000]                   	CALL	_fifo32_put
  1491 00000FDE 83 C4 10                        	ADD	ESP,16
  1492 00000FE1 E9 FFFFFCC0                     	JMP	L59
  1493 00000FE6                                 L162:
  1494 00000FE6 83 A5 FFFFF7DC FD               	AND	DWORD [-2084+EBP],-3
  1495 00000FED E9 FFFFFCA8                     	JMP	L58
  1496 00000FF2                                 L161:
  1497 00000FF2 83 A5 FFFFF7DC FE               	AND	DWORD [-2084+EBP],-2
  1498 00000FF9 E9 FFFFFC90                     	JMP	L57
  1499 00000FFE                                 L160:
  1500 00000FFE 83 8D FFFFF7DC 02               	OR	DWORD [-2084+EBP],2
  1501 00001005 E9 FFFFFC78                     	JMP	L56
  1502 0000100A                                 L159:
  1503 0000100A 83 8D FFFFF7DC 01               	OR	DWORD [-2084+EBP],1
  1504 00001011 E9 FFFFFC60                     	JMP	L55
  1505 00001016                                 L158:
  1506 00001016 83 BD FFFFF7BC 00               	CMP	DWORD [-2116+EBP],0
  1507 0000101D 0F 84 FFFFFC47                  	JE	L53
  1508 00001023 FF B5 FFFFF7BC                  	PUSH	DWORD [-2116+EBP]
  1509 00001029 E8 00000152                     	CALL	_keywin_off
  1510 0000102E 58                              	POP	EAX
  1511 0000102F 8B 85 FFFFF7BC                  	MOV	EAX,DWORD [-2116+EBP]
  1512 00001035 8B 58 1C                        	MOV	EBX,DWORD [28+EAX]
  1513 00001038 4B                              	DEC	EBX
  1514 00001039 75 11                           	JNE	L54
  1515 0000103B 8B 95 FFFFF810                  	MOV	EDX,DWORD [-2032+EBP]
  1516 00001041 8B 44 95 C4                     	MOV	EAX,DWORD [-60+EBP+EDX*4]
  1517 00001045 8B 98 00000414                  	MOV	EBX,DWORD [1044+EAX]
  1518 0000104B 4B                              	DEC	EBX
  1519 0000104C                                 L54:
  1520 0000104C 8B 95 FFFFF810                  	MOV	EDX,DWORD [-2032+EBP]
  1521 00001052 8B 44 95 C4                     	MOV	EAX,DWORD [-60+EBP+EDX*4]
  1522 00001056 8B 9C 98 0000041C               	MOV	EBX,DWORD [1052+EAX+EBX*4]
  1523 0000105D 53                              	PUSH	EBX
  1524 0000105E 89 9D FFFFF7BC                  	MOV	DWORD [-2116+EBP],EBX
  1525 00001064 E8 00000145                     	CALL	_keywin_on
  1526 00001069 58                              	POP	EAX
  1527 0000106A E9 FFFFFBFB                     	JMP	L53
  1528 0000106F                                 L50:
  1529 0000106F 8D 42 20                        	LEA	EAX,DWORD [32+EDX]
  1530 00001072 88 85 FFFFFF34                  	MOV	BYTE [-204+EBP],AL
  1531 00001078 E9 FFFFFBB1                     	JMP	L48
  1532 0000107D                                 L136:
  1533 0000107D 83 BD FFFFF7DC 00               	CMP	DWORD [-2084+EBP],0
  1534 00001084 0F 84 FFFFFBA4                  	JE	L48
  1535 0000108A EB E3                           	JMP	L50
  1536 0000108C                                 L45:
  1537 0000108C 8A 86 [FFFFFF90]                	MOV	AL,BYTE [_keytable1.1-256+ESI]
  1538 00001092 E9 FFFFFB67                     	JMP	L142
  1539 00001097                                 L44:
  1540 00001097 C6 85 FFFFFF34 00               	MOV	BYTE [-204+EBP],0
  1541 0000109E E9 FFFFFB61                     	JMP	L43
  1542 000010A3                                 L157:
  1543 000010A3 A0 [000001F0]                   	MOV	AL,BYTE [_keytable2.2+224]
  1544 000010A8 E9 FFFFFB51                     	JMP	L142
  1545 000010AD                                 L145:
  1546 000010AD 83 BD FFFFF804 00               	CMP	DWORD [-2044+EBP],0
  1547 000010B4 79 2B                           	JNS	L172
  1548 000010B6 81 BD FFFFF7FC 7FFFFFFF         	CMP	DWORD [-2052+EBP],2147483647
  1549 000010C0 75 15                           	JNE	L173
  1550 000010C2 FF B5 FFFFF7EC                  	PUSH	DWORD [-2068+EBP]
  1551 000010C8 E8 [00000000]                   	CALL	_task_sleep
  1552 000010CD E8 [00000000]                   	CALL	_io_sti
  1553 000010D2 E9 FFFFF620                     	JMP	L139
  1554 000010D7                                 L173:
  1555 000010D7 E8 [00000000]                   	CALL	_io_sti
  1556 000010DC E9 FFFFF76C                     	JMP	L140
  1557 000010E1                                 L172:
  1558 000010E1 E8 [00000000]                   	CALL	_io_sti
  1559 000010E6 FF B5 FFFFF800                  	PUSH	DWORD [-2048+EBP]
  1560 000010EC FF B5 FFFFF804                  	PUSH	DWORD [-2044+EBP]
  1561 000010F2 FF B5 FFFFF7F0                  	PUSH	DWORD [-2064+EBP]
  1562 000010F8 E8 [00000000]                   	CALL	_sheet_slide
  1563 000010FD C7 85 FFFFF804 FFFFFFFF         	MOV	DWORD [-2044+EBP],-1
  1564 00001107 E9 FFFFF762                     	JMP	L141
  1565 0000110C                                 L144:
  1566 0000110C 53                              	PUSH	EBX
  1567 0000110D E8 [00000000]                   	CALL	_fifo32_get
  1568 00001112 89 85 FFFFF7D4                  	MOV	DWORD [-2092+EBP],EAX
  1569 00001118 E8 [00000000]                   	CALL	_wait_KBC_sendready
  1570 0000111D FF B5 FFFFF7D4                  	PUSH	DWORD [-2092+EBP]
  1571 00001123 6A 60                           	PUSH	96
  1572 00001125 E8 [00000000]                   	CALL	_io_out8
  1573 0000112A 83 C4 0C                        	ADD	ESP,12
  1574 0000112D E9 FFFFF490                     	JMP	L31
  1575 00001132                                 L143:
  1576 00001132 68 FEE00000                     	PUSH	-18874368
  1577 00001137 E8 [00000000]                   	CALL	_init_apic
  1578 0000113C 59                              	POP	ECX
  1579 0000113D E9 FFFFF0C0                     	JMP	L3
  1580 00001142                                 	GLOBAL	_get_a_key
  1581 00001142                                 _get_a_key:
  1582 00001142 55                              	PUSH	EBP
  1583 00001143 89 E5                           	MOV	EBP,ESP
  1584 00001145 53                              	PUSH	EBX
  1585 00001146 8B 5D 08                        	MOV	EBX,DWORD [8+EBP]
  1586 00001149 E8 [00000000]                   	CALL	_io_cli
  1587 0000114E 53                              	PUSH	EBX
  1588 0000114F E8 [00000000]                   	CALL	_fifo32_status
  1589 00001154 5A                              	POP	EDX
  1590 00001155 85 C0                           	TEST	EAX,EAX
  1591 00001157 74 11                           	JE	L177
  1592 00001159 E8 [00000000]                   	CALL	_io_sti
  1593 0000115E 89 5D 08                        	MOV	DWORD [8+EBP],EBX
  1594 00001161 8B 5D FC                        	MOV	EBX,DWORD [-4+EBP]
  1595 00001164 C9                              	LEAVE
  1596 00001165 E9 [00000000]                   	JMP	_fifo32_get
  1597 0000116A                                 L177:
  1598 0000116A E8 [00000000]                   	CALL	_io_sti
  1599 0000116F E8 [00000000]                   	CALL	_task_now
  1600 00001174 50                              	PUSH	EAX
  1601 00001175 E8 [00000000]                   	CALL	_task_sleep
  1602 0000117A 5B                              	POP	EBX
  1603 0000117B 8B 5D FC                        	MOV	EBX,DWORD [-4+EBP]
  1604 0000117E C9                              	LEAVE
  1605 0000117F C3                              	RET
  1606 00001180                                 	GLOBAL	_keywin_off
  1607 00001180                                 _keywin_off:
  1608 00001180 55                              	PUSH	EBP
  1609 00001181 89 E5                           	MOV	EBP,ESP
  1610 00001183 53                              	PUSH	EBX
  1611 00001184 6A 00                           	PUSH	0
  1612 00001186 8B 5D 08                        	MOV	EBX,DWORD [8+EBP]
  1613 00001189 53                              	PUSH	EBX
  1614 0000118A E8 [00000000]                   	CALL	_change_wtitle32
  1615 0000118F F6 43 20 20                     	TEST	BYTE [32+EBX],32
  1616 00001193 58                              	POP	EAX
  1617 00001194 5A                              	POP	EDX
  1618 00001195 75 05                           	JNE	L180
  1619 00001197                                 L178:
  1620 00001197 8B 5D FC                        	MOV	EBX,DWORD [-4+EBP]
  1621 0000119A C9                              	LEAVE
  1622 0000119B C3                              	RET
  1623 0000119C                                 L180:
  1624 0000119C 6A 03                           	PUSH	3
  1625 0000119E 8B 43 30                        	MOV	EAX,DWORD [48+EBX]
  1626 000011A1 83 C0 10                        	ADD	EAX,16
  1627 000011A4 50                              	PUSH	EAX
  1628 000011A5 E8 [00000000]                   	CALL	_fifo32_put
  1629 000011AA 59                              	POP	ECX
  1630 000011AB 5B                              	POP	EBX
  1631 000011AC EB E9                           	JMP	L178
  1632 000011AE                                 	GLOBAL	_keywin_on
  1633 000011AE                                 _keywin_on:
  1634 000011AE 55                              	PUSH	EBP
  1635 000011AF 89 E5                           	MOV	EBP,ESP
  1636 000011B1 53                              	PUSH	EBX
  1637 000011B2 6A 01                           	PUSH	1
  1638 000011B4 8B 5D 08                        	MOV	EBX,DWORD [8+EBP]
  1639 000011B7 53                              	PUSH	EBX
  1640 000011B8 E8 [00000000]                   	CALL	_change_wtitle32
  1641 000011BD F6 43 20 20                     	TEST	BYTE [32+EBX],32
  1642 000011C1 58                              	POP	EAX
  1643 000011C2 5A                              	POP	EDX
  1644 000011C3 75 05                           	JNE	L183
  1645 000011C5                                 L181:
  1646 000011C5 8B 5D FC                        	MOV	EBX,DWORD [-4+EBP]
  1647 000011C8 C9                              	LEAVE
  1648 000011C9 C3                              	RET
  1649 000011CA                                 L183:
  1650 000011CA 6A 02                           	PUSH	2
  1651 000011CC 8B 43 30                        	MOV	EAX,DWORD [48+EBX]
  1652 000011CF 83 C0 10                        	ADD	EAX,16
  1653 000011D2 50                              	PUSH	EAX
  1654 000011D3 E8 [00000000]                   	CALL	_fifo32_put
  1655 000011D8 59                              	POP	ECX
  1656 000011D9 5B                              	POP	EBX
  1657 000011DA EB E9                           	JMP	L181
  1658                                          [SECTION .data]
  1659 000001B0                                 LC3:
  1660 000001B0 63 6F 6E 73 6F 6C 65 00         	DB	"console",0x00
  1661                                          [SECTION .text]
  1662 000011DC                                 	GLOBAL	_open_constask
  1663 000011DC                                 _open_constask:
  1664 000011DC 55                              	PUSH	EBP
  1665 000011DD 89 E5                           	MOV	EBP,ESP
  1666 000011DF 57                              	PUSH	EDI
  1667 000011E0 56                              	PUSH	ESI
  1668 000011E1 53                              	PUSH	EBX
  1669 000011E2 83 EC 0C                        	SUB	ESP,12
  1670 000011E5 A1 0026F000                     	MOV	EAX,DWORD [2551808]
  1671 000011EA 89 45 F0                        	MOV	DWORD [-16+EBP],EAX
  1672 000011ED E8 [00000000]                   	CALL	_task_alloc
  1673 000011F2 89 C3                           	MOV	EBX,EAX
  1674 000011F4 E8 [00000000]                   	CALL	_task_now
  1675 000011F9 68 00000200                     	PUSH	512
  1676 000011FE 68 003C0000                     	PUSH	3932160
  1677 00001203 E8 [00000000]                   	CALL	_memman_alloc_4k
  1678 00001208 6A 00                           	PUSH	0
  1679 0000120A 6A 01                           	PUSH	1
  1680 0000120C 6A 07                           	PUSH	7
  1681 0000120E 89 45 EC                        	MOV	DWORD [-20+EBP],EAX
  1682 00001211 50                              	PUSH	EAX
  1683 00001212 68 00268000                     	PUSH	2523136
  1684 00001217 FF 75 F0                        	PUSH	DWORD [-16+EBP]
  1685 0000121A E8 [00000000]                   	CALL	_memmam_link_page_32_m
  1686 0000121F 83 C4 20                        	ADD	ESP,32
  1687 00001222 68 00001000                     	PUSH	4096
  1688 00001227 68 003C0000                     	PUSH	3932160
  1689 0000122C E8 [00000000]                   	CALL	_memman_alloc_4k
  1690 00001231 6A 00                           	PUSH	0
  1691 00001233 6A 01                           	PUSH	1
  1692 00001235 6A 07                           	PUSH	7
  1693 00001237 89 45 E8                        	MOV	DWORD [-24+EBP],EAX
  1694 0000123A 50                              	PUSH	EAX
  1695 0000123B 68 00268000                     	PUSH	2523136
  1696 00001240 FF 75 F0                        	PUSH	DWORD [-16+EBP]
  1697 00001243 E8 [00000000]                   	CALL	_memmam_link_page_32_m
  1698 00001248 83 C4 20                        	ADD	ESP,32
  1699 0000124B 68 00010000                     	PUSH	65536
  1700 00001250 68 003C0000                     	PUSH	3932160
  1701 00001255 E8 [00000000]                   	CALL	_memman_alloc_4k
  1702 0000125A 89 83 000000EC                  	MOV	DWORD [236+EBX],EAX
  1703 00001260 6A 00                           	PUSH	0
  1704 00001262 6A 10                           	PUSH	16
  1705 00001264 6A 07                           	PUSH	7
  1706 00001266 50                              	PUSH	EAX
  1707 00001267 FF 75 F0                        	PUSH	DWORD [-16+EBP]
  1708 0000126A E8 [00000000]                   	CALL	_pageman_link_page_32_m
  1709 0000126F 8B 83 000000EC                  	MOV	EAX,DWORD [236+EBX]
  1710 00001275 05 0000FFF4                     	ADD	EAX,65524
  1711 0000127A 89 83 00000094                  	MOV	DWORD [148+EBX],EAX
  1712 00001280 E8 00000385                     	CALL	_get_this
  1713 00001285 05 [00000000]                   	ADD	EAX,_console_task
  1714 0000128A 89 43 7C                        	MOV	DWORD [124+EBX],EAX
  1715 0000128D C7 83 000000A4 00000008         	MOV	DWORD [164+EBX],8
  1716 00001297 C7 83 000000A8 00000010         	MOV	DWORD [168+EBX],16
  1717 000012A1 C7 83 000000AC 00000008         	MOV	DWORD [172+EBX],8
  1718 000012AB C7 83 000000B0 00000008         	MOV	DWORD [176+EBX],8
  1719 000012B5 C7 83 000000B4 00000008         	MOV	DWORD [180+EBX],8
  1720 000012BF C7 83 000000B8 00000008         	MOV	DWORD [184+EBX],8
  1721 000012C9 C7 83 0000013E 00000008         	MOV	DWORD [318+EBX],8
  1722 000012D3 C7 83 00000172 [000001B0]       	MOV	DWORD [370+EBX],LC3
  1723 000012DD 68 00001000                     	PUSH	4096
  1724 000012E2 68 003C0000                     	PUSH	3932160
  1725 000012E7 E8 [00000000]                   	CALL	_memman_alloc_4k
  1726 000012EC 83 C4 24                        	ADD	ESP,36
  1727 000012EF FF 75 F0                        	PUSH	DWORD [-16+EBP]
  1728 000012F2 89 C6                           	MOV	ESI,EAX
  1729 000012F4 E8 [00000000]                   	CALL	_memman_alloc_page_32
  1730 000012F9 89 C7                           	MOV	EDI,EAX
  1731 000012FB 6A 01                           	PUSH	1
  1732 000012FD 83 C8 07                        	OR	EAX,7
  1733 00001300 50                              	PUSH	EAX
  1734 00001301 56                              	PUSH	ESI
  1735 00001302 FF 75 F0                        	PUSH	DWORD [-16+EBP]
  1736 00001305 E8 [00000000]                   	CALL	_pageman_link_page_32
  1737 0000130A 83 C4 14                        	ADD	ESP,20
  1738 0000130D 31 D2                           	XOR	EDX,EDX
  1739 0000130F                                 L189:
  1740 0000130F C6 04 32 00                     	MOV	BYTE [EDX+ESI*1],0
  1741 00001313 42                              	INC	EDX
  1742 00001314 81 FA 00000FFF                  	CMP	EDX,4095
  1743 0000131A 7E F3                           	JLE	L189
  1744 0000131C 89 F8                           	MOV	EAX,EDI
  1745 0000131E BA 00000C00                     	MOV	EDX,3072
  1746 00001323 83 C8 07                        	OR	EAX,7
  1747 00001326 89 86 00000FFC                  	MOV	DWORD [4092+ESI],EAX
  1748 0000132C                                 L194:
  1749 0000132C 8A 82 FFFFF000                  	MOV	AL,BYTE [-4096+EDX]
  1750 00001332 88 04 32                        	MOV	BYTE [EDX+ESI*1],AL
  1751 00001335 42                              	INC	EDX
  1752 00001336 81 FA 00000FFB                  	CMP	EDX,4091
  1753 0000133C 7E EE                           	JLE	L194
  1754 0000133E 31 D2                           	XOR	EDX,EDX
  1755 00001340                                 L199:
  1756 00001340 8B 04 95 FFFFF000               	MOV	EAX,DWORD [-4096+EDX*4]
  1757 00001347 89 04 96                        	MOV	DWORD [ESI+EDX*4],EAX
  1758 0000134A 42                              	INC	EDX
  1759 0000134B 83 FA 02                        	CMP	EDX,2
  1760 0000134E 7E F0                           	JLE	L199
  1761 00001350 81 E7 FFFFF000                  	AND	EDI,-4096
  1762 00001356 89 7B 78                        	MOV	DWORD [120+EBX],EDI
  1763 00001359 68 00007FE0                     	PUSH	32736
  1764 0000135E 68 003C0000                     	PUSH	3932160
  1765 00001363 E8 [00000000]                   	CALL	_memman_alloc_4k
  1766 00001368 89 83 00000152                  	MOV	DWORD [338+EBX],EAX
  1767 0000136E 6A 00                           	PUSH	0
  1768 00001370 6A 08                           	PUSH	8
  1769 00001372 6A 07                           	PUSH	7
  1770 00001374 50                              	PUSH	EAX
  1771 00001375 68 00268000                     	PUSH	2523136
  1772 0000137A FF 75 F0                        	PUSH	DWORD [-16+EBP]
  1773 0000137D E8 [00000000]                   	CALL	_memmam_link_page_32_m
  1774 00001382 83 C4 20                        	ADD	ESP,32
  1775 00001385 FF B3 00000152                  	PUSH	DWORD [338+EBX]
  1776 0000138B E8 [00000000]                   	CALL	_memman_init
  1777 00001390 68 BFFFFFFF                     	PUSH	-1073741825
  1778 00001395 68 00C00000                     	PUSH	12582912
  1779 0000139A FF B3 00000152                  	PUSH	DWORD [338+EBX]
  1780 000013A0 E8 [00000000]                   	CALL	_memman_free
  1781 000013A5 8B 45 08                        	MOV	EAX,DWORD [8+EBP]
  1782 000013A8 8B 93 00000094                  	MOV	EDX,DWORD [148+EBX]
  1783 000013AE 89 42 04                        	MOV	DWORD [4+EDX],EAX
  1784 000013B1 8B 93 00000094                  	MOV	EDX,DWORD [148+EBX]
  1785 000013B7 8B 45 0C                        	MOV	EAX,DWORD [12+EBP]
  1786 000013BA 89 42 08                        	MOV	DWORD [8+EDX],EAX
  1787 000013BD 6A 02                           	PUSH	2
  1788 000013BF 6A 02                           	PUSH	2
  1789 000013C1 53                              	PUSH	EBX
  1790 000013C2 E8 [00000000]                   	CALL	_task_run
  1791 000013C7 8D 43 10                        	LEA	EAX,DWORD [16+EBX]
  1792 000013CA 53                              	PUSH	EBX
  1793 000013CB FF 75 EC                        	PUSH	DWORD [-20+EBP]
  1794 000013CE 68 00000080                     	PUSH	128
  1795 000013D3 50                              	PUSH	EAX
  1796 000013D4 E8 [00000000]                   	CALL	_fifo32_init
  1797 000013D9 8D 43 2C                        	LEA	EAX,DWORD [44+EBX]
  1798 000013DC 83 C4 2C                        	ADD	ESP,44
  1799 000013DF 53                              	PUSH	EBX
  1800 000013E0 FF 75 E8                        	PUSH	DWORD [-24+EBP]
  1801 000013E3 68 00000080                     	PUSH	128
  1802 000013E8 50                              	PUSH	EAX
  1803 000013E9 E8 [00000000]                   	CALL	_fifo_mouse_init
  1804 000013EE 8D 65 F4                        	LEA	ESP,DWORD [-12+EBP]
  1805 000013F1 89 D8                           	MOV	EAX,EBX
  1806 000013F3 5B                              	POP	EBX
  1807 000013F4 5E                              	POP	ESI
  1808 000013F5 5F                              	POP	EDI
  1809 000013F6 5D                              	POP	EBP
  1810 000013F7 C3                              	RET
  1811 000013F8                                 	GLOBAL	_open_console
  1812 000013F8                                 _open_console:
  1813 000013F8 55                              	PUSH	EBP
  1814 000013F9 89 E5                           	MOV	EBP,ESP
  1815 000013FB 57                              	PUSH	EDI
  1816 000013FC 56                              	PUSH	ESI
  1817 000013FD 53                              	PUSH	EBX
  1818 000013FE 8B 3D 0026F000                  	MOV	EDI,DWORD [2551808]
  1819 00001404 FF 75 08                        	PUSH	DWORD [8+EBP]
  1820 00001407 E8 [00000000]                   	CALL	_sheet_alloc
  1821 0000140C 68 00300000                     	PUSH	3145728
  1822 00001411 68 003C0000                     	PUSH	3932160
  1823 00001416 89 C3                           	MOV	EBX,EAX
  1824 00001418 E8 [00000000]                   	CALL	_memman_alloc_4k
  1825 0000141D 6A 00                           	PUSH	0
  1826 0000141F 68 0000030A                     	PUSH	778
  1827 00001424 89 C6                           	MOV	ESI,EAX
  1828 00001426 6A 07                           	PUSH	7
  1829 00001428 50                              	PUSH	EAX
  1830 00001429 68 00268000                     	PUSH	2523136
  1831 0000142E 57                              	PUSH	EDI
  1832 0000142F E8 [00000000]                   	CALL	_memmam_link_page_32_m
  1833 00001434 83 C4 24                        	ADD	ESP,36
  1834 00001437 6A FF                           	PUSH	-1
  1835 00001439 68 00000300                     	PUSH	768
  1836 0000143E 68 00000400                     	PUSH	1024
  1837 00001443 56                              	PUSH	ESI
  1838 00001444 53                              	PUSH	EBX
  1839 00001445 E8 [00000000]                   	CALL	_sheet_setbuf
  1840 0000144A 6A 00                           	PUSH	0
  1841 0000144C 68 [000001B0]                   	PUSH	LC3
  1842 00001451 68 00000300                     	PUSH	768
  1843 00001456 68 00000400                     	PUSH	1024
  1844 0000145B 56                              	PUSH	ESI
  1845 0000145C E8 [00000000]                   	CALL	_make_window32
  1846 00001461 83 C4 28                        	ADD	ESP,40
  1847 00001464 6A 00                           	PUSH	0
  1848 00001466 68 000002C8                     	PUSH	712
  1849 0000146B 68 000003F0                     	PUSH	1008
  1850 00001470 6A 1C                           	PUSH	28
  1851 00001472 6A 08                           	PUSH	8
  1852 00001474 53                              	PUSH	EBX
  1853 00001475 E8 [00000000]                   	CALL	_make_textbox32
  1854 0000147A FF 75 0C                        	PUSH	DWORD [12+EBP]
  1855 0000147D 53                              	PUSH	EBX
  1856 0000147E E8 FFFFFD59                     	CALL	_open_constask
  1857 00001483 83 4B 20 20                     	OR	DWORD [32+EBX],32
  1858 00001487 89 43 30                        	MOV	DWORD [48+EBX],EAX
  1859 0000148A 8D 65 F4                        	LEA	ESP,DWORD [-12+EBP]
  1860 0000148D 89 D8                           	MOV	EAX,EBX
  1861 0000148F 5B                              	POP	EBX
  1862 00001490 5E                              	POP	ESI
  1863 00001491 5F                              	POP	EDI
  1864 00001492 5D                              	POP	EBP
  1865 00001493 C3                              	RET
  1866 00001494                                 	GLOBAL	_close_constask
  1867 00001494                                 _close_constask:
  1868 00001494 55                              	PUSH	EBP
  1869 00001495 89 E5                           	MOV	EBP,ESP
  1870 00001497 57                              	PUSH	EDI
  1871 00001498 56                              	PUSH	ESI
  1872 00001499 31 F6                           	XOR	ESI,ESI
  1873 0000149B 53                              	PUSH	EBX
  1874 0000149C 53                              	PUSH	EBX
  1875 0000149D BB 00000007                     	MOV	EBX,7
  1876 000014A2 8B 7D 08                        	MOV	EDI,DWORD [8+EBP]
  1877 000014A5 A1 0026F000                     	MOV	EAX,DWORD [2551808]
  1878 000014AA 57                              	PUSH	EDI
  1879 000014AB 89 45 F0                        	MOV	DWORD [-16+EBP],EAX
  1880 000014AE E8 [00000000]                   	CALL	_task_sleep
  1881 000014B3 59                              	POP	ECX
  1882 000014B4                                 L212:
  1883 000014B4 6A 01                           	PUSH	1
  1884 000014B6 8B 87 00000152                  	MOV	EAX,DWORD [338+EDI]
  1885 000014BC 01 F0                           	ADD	EAX,ESI
  1886 000014BE 81 C6 00001000                  	ADD	ESI,4096
  1887 000014C4 50                              	PUSH	EAX
  1888 000014C5 FF 75 F0                        	PUSH	DWORD [-16+EBP]
  1889 000014C8 E8 [00000000]                   	CALL	_pageman_unlink_page_32
  1890 000014CD 83 C4 0C                        	ADD	ESP,12
  1891 000014D0 4B                              	DEC	EBX
  1892 000014D1 79 E1                           	JNS	L212
  1893 000014D3 68 00007FE0                     	PUSH	32736
  1894 000014D8 31 F6                           	XOR	ESI,ESI
  1895 000014DA FF B7 00000152                  	PUSH	DWORD [338+EDI]
  1896 000014E0 68 003C0000                     	PUSH	3932160
  1897 000014E5 BB 0000000F                     	MOV	EBX,15
  1898 000014EA E8 [00000000]                   	CALL	_memman_free_4k
  1899 000014EF 83 C4 0C                        	ADD	ESP,12
  1900 000014F2                                 L217:
  1901 000014F2 6A 01                           	PUSH	1
  1902 000014F4 8B 87 000000EC                  	MOV	EAX,DWORD [236+EDI]
  1903 000014FA 01 F0                           	ADD	EAX,ESI
  1904 000014FC 81 C6 00001000                  	ADD	ESI,4096
  1905 00001502 50                              	PUSH	EAX
  1906 00001503 FF 75 F0                        	PUSH	DWORD [-16+EBP]
  1907 00001506 E8 [00000000]                   	CALL	_pageman_unlink_page_32
  1908 0000150B 83 C4 0C                        	ADD	ESP,12
  1909 0000150E 4B                              	DEC	EBX
  1910 0000150F 79 E1                           	JNS	L217
  1911 00001511 68 00010000                     	PUSH	65536
  1912 00001516 FF B7 000000EC                  	PUSH	DWORD [236+EDI]
  1913 0000151C 68 003C0000                     	PUSH	3932160
  1914 00001521 E8 [00000000]                   	CALL	_memman_free_4k
  1915 00001526 83 C4 0C                        	ADD	ESP,12
  1916 00001529 6A 01                           	PUSH	1
  1917 0000152B FF 77 10                        	PUSH	DWORD [16+EDI]
  1918 0000152E FF 75 F0                        	PUSH	DWORD [-16+EBP]
  1919 00001531 E8 [00000000]                   	CALL	_pageman_unlink_page_32
  1920 00001536 83 C4 0C                        	ADD	ESP,12
  1921 00001539 68 00000200                     	PUSH	512
  1922 0000153E FF 77 10                        	PUSH	DWORD [16+EDI]
  1923 00001541 68 003C0000                     	PUSH	3932160
  1924 00001546 E8 [00000000]                   	CALL	_memman_free_4k
  1925 0000154B C7 47 04 00000000               	MOV	DWORD [4+EDI],0
  1926 00001552 8D 65 F4                        	LEA	ESP,DWORD [-12+EBP]
  1927 00001555 5B                              	POP	EBX
  1928 00001556 5E                              	POP	ESI
  1929 00001557 5F                              	POP	EDI
  1930 00001558 5D                              	POP	EBP
  1931 00001559 C3                              	RET
  1932 0000155A                                 	GLOBAL	_close_console
  1933 0000155A                                 _close_console:
  1934 0000155A 55                              	PUSH	EBP
  1935 0000155B 89 E5                           	MOV	EBP,ESP
  1936 0000155D 57                              	PUSH	EDI
  1937 0000155E 56                              	PUSH	ESI
  1938 0000155F 31 FF                           	XOR	EDI,EDI
  1939 00001561 53                              	PUSH	EBX
  1940 00001562 56                              	PUSH	ESI
  1941 00001563 56                              	PUSH	ESI
  1942 00001564 BE 000002FF                     	MOV	ESI,767
  1943 00001569 8B 5D 08                        	MOV	EBX,DWORD [8+EBP]
  1944 0000156C A1 0026F000                     	MOV	EAX,DWORD [2551808]
  1945 00001571 89 45 F0                        	MOV	DWORD [-16+EBP],EAX
  1946 00001574 8B 43 30                        	MOV	EAX,DWORD [48+EBX]
  1947 00001577 89 45 EC                        	MOV	DWORD [-20+EBP],EAX
  1948 0000157A                                 L234:
  1949 0000157A 6A 01                           	PUSH	1
  1950 0000157C 8B 03                           	MOV	EAX,DWORD [EBX]
  1951 0000157E 01 F8                           	ADD	EAX,EDI
  1952 00001580 81 C7 00001000                  	ADD	EDI,4096
  1953 00001586 50                              	PUSH	EAX
  1954 00001587 FF 75 F0                        	PUSH	DWORD [-16+EBP]
  1955 0000158A E8 [00000000]                   	CALL	_pageman_unlink_page_32
  1956 0000158F 83 C4 0C                        	ADD	ESP,12
  1957 00001592 4E                              	DEC	ESI
  1958 00001593 79 E5                           	JNS	L234
  1959 00001595 68 00300000                     	PUSH	3145728
  1960 0000159A FF 33                           	PUSH	DWORD [EBX]
  1961 0000159C 68 003C0000                     	PUSH	3932160
  1962 000015A1 E8 [00000000]                   	CALL	_memman_free_4k
  1963 000015A6 53                              	PUSH	EBX
  1964 000015A7 E8 [00000000]                   	CALL	_sheet_free
  1965 000015AC 8B 45 EC                        	MOV	EAX,DWORD [-20+EBP]
  1966 000015AF 89 45 08                        	MOV	DWORD [8+EBP],EAX
  1967 000015B2 83 C4 10                        	ADD	ESP,16
  1968 000015B5 8D 65 F4                        	LEA	ESP,DWORD [-12+EBP]
  1969 000015B8 5B                              	POP	EBX
  1970 000015B9 5E                              	POP	ESI
  1971 000015BA 5F                              	POP	EDI
  1972 000015BB 5D                              	POP	EBP
  1973 000015BC E9 FFFFFED3                     	JMP	_close_constask
  1974 000015C1                                 	GLOBAL	_top_bar_task
  1975 000015C1                                 _top_bar_task:
  1976 000015C1 55                              	PUSH	EBP
  1977 000015C2 89 E5                           	MOV	EBP,ESP
  1978 000015C4 56                              	PUSH	ESI
  1979 000015C5 53                              	PUSH	EBX
  1980 000015C6 E8 [00000000]                   	CALL	_task_now
  1981 000015CB 89 C6                           	MOV	ESI,EAX
  1982 000015CD                                 L238:
  1983 000015CD 8D 5E 10                        	LEA	EBX,DWORD [16+ESI]
  1984 000015D0 E8 [00000000]                   	CALL	_io_cli
  1985 000015D5 53                              	PUSH	EBX
  1986 000015D6 E8 [00000000]                   	CALL	_fifo32_status
  1987 000015DB 5A                              	POP	EDX
  1988 000015DC 85 C0                           	TEST	EAX,EAX
  1989 000015DE 74 0E                           	JE	L244
  1990 000015E0 53                              	PUSH	EBX
  1991 000015E1 E8 [00000000]                   	CALL	_fifo32_get
  1992 000015E6                                 L243:
  1993 000015E6 E8 [00000000]                   	CALL	_io_sti
  1994 000015EB 58                              	POP	EAX
  1995 000015EC EB DF                           	JMP	L238
  1996 000015EE                                 L244:
  1997 000015EE 56                              	PUSH	ESI
  1998 000015EF E8 [00000000]                   	CALL	_task_sleep
  1999 000015F4 EB F0                           	JMP	L243
  2000 000015F6                                 	GLOBAL	_get_sys_table_addr
  2001 000015F6                                 _get_sys_table_addr:
  2002 000015F6 55                              	PUSH	EBP
  2003 000015F7 A1 [000001B8]                   	MOV	EAX,DWORD [_Systemtable_base]
  2004 000015FC 89 E5                           	MOV	EBP,ESP
  2005 000015FE 5D                              	POP	EBP
  2006 000015FF C3                              	RET
  2007 00001600                                 	GLOBAL	_get_var_guid
  2008 00001600                                 _get_var_guid:
  2009 00001600 55                              	PUSH	EBP
  2010 00001601 B8 [00000000]                   	MOV	EAX,_varGuid
  2011 00001606 89 E5                           	MOV	EBP,ESP
  2012 00001608 5D                              	POP	EBP
  2013 00001609 C3                              	RET
  2014 0000160A                                 	GLOBAL	_get_this
  2015 0000160A                                 _get_this:
  2016 0000160A 55                              	PUSH	EBP
  2017 0000160B A1 [000001BC]                   	MOV	EAX,DWORD [_gThis]
  2018 00001610 89 E5                           	MOV	EBP,ESP
  2019 00001612 5D                              	POP	EBP
  2020 00001613 C3                              	RET
  2021 00001614                                 	GLOBAL	_Systemtable_base
  2022                                          [SECTION .data]
  2023 000001B8                                 	ALIGNB	4
  2024 000001B8                                 _Systemtable_base:
  2025 000001B8 00 00 00 00                     	RESB	4
  2026 000001BC                                 	GLOBAL	_gThis
  2027                                          [SECTION .data]
  2028 000001BC                                 	ALIGNB	4
  2029 000001BC                                 _gThis:
  2030 000001BC 00 00 00 00                     	RESB	4
