     1 00000000                                 [FORMAT "WCOFF"]
     2 00000000                                 [INSTRSET "i486p"]
     3 00000000                                 [OPTIMIZE 1]
     4 00000000                                 [OPTION 1]
     5 00000000                                 [BITS 32]
     6 00000000                                 	EXTERN	_init_gdtidt
     7 00000000                                 	EXTERN	_init_acpi
     8 00000000                                 	EXTERN	_memman_init
     9 00000000                                 	EXTERN	_memman_free
    10 00000000                                 	EXTERN	_init_page
    11 00000000                                 	EXTERN	_memmam_link_page_32_m
    12 00000000                                 	EXTERN	_load_cr0
    13 00000000                                 	EXTERN	_store_cr3
    14 00000000                                 	EXTERN	_store_cr0
    15 00000000                                 	EXTERN	_load_gdtr
    16 00000000                                 	EXTERN	_load_idtr
    17 00000000                                 	EXTERN	_support_apic
    18 00000000                                 	EXTERN	_init_pic
    19 00000000                                 	EXTERN	_io_sti
    20 00000000                                 	EXTERN	_fifo32_init
    21 00000000                                 	EXTERN	_init_pit
    22 00000000                                 	EXTERN	_init_keyboard
    23 00000000                                 	EXTERN	_enable_mouse
    24 00000000                                 	EXTERN	_io_out8
    25 00000000                                 	EXTERN	_memman_alloc_4k
    26 00000000                                 	EXTERN	_shtctl_init
    27 00000000                                 	EXTERN	_task_init
    28 00000000                                 	EXTERN	_task_run
    29 00000000                                 	EXTERN	_sheet_alloc
    30 00000000                                 	EXTERN	_sheet_setbuf
    31 00000000                                 	EXTERN	_init_screen32
    32 00000000                                 	EXTERN	_init_mouse_cursor32
    33 00000000                                 	EXTERN	_sheet_slide
    34 00000000                                 	EXTERN	_sheet_updown
    35 00000000                                 	EXTERN	_fifo32_put
    36 00000000                                 	EXTERN	_file_readfat
    37 00000000                                 	EXTERN	_file_search
    38 00000000                                 	EXTERN	_file_loadfile2
    39 00000000                                 	EXTERN	_pageman_unlink_page_32
    40 00000000                                 	EXTERN	_memman_free_4k
    41 00000000                                 	EXTERN	_system_start
    42 00000000                                 	EXTERN	_fifo32_status
    43 00000000                                 	EXTERN	_io_cli
    44 00000000                                 	EXTERN	_fifo32_get
    45 00000000                                 	EXTERN	_sheet_free
    46 00000000                                 	EXTERN	_taskctl
    47 00000000                                 	EXTERN	_mouse_decode
    48 00000000                                 	EXTERN	_cons_putstr0
    49 00000000                                 	EXTERN	_asm_end_app
    50 00000000                                 	EXTERN	_keytable0.0
    51 00000000                                 	EXTERN	_wait_KBC_sendready
    52 00000000                                 	EXTERN	_keytable1.1
    53 00000000                                 	EXTERN	_keytable2.2
    54 00000000                                 	EXTERN	_task_sleep
    55 00000000                                 	EXTERN	_hankaku
    56 00000000                                 	EXTERN	_init_apic
    57 00000000                                 	EXTERN	_task_now
    58 00000000                                 	EXTERN	_change_wtitle32
    59 00000000                                 	EXTERN	_task_alloc
    60 00000000                                 	EXTERN	_pageman_link_page_32_m
    61 00000000                                 	EXTERN	_console_task
    62 00000000                                 	EXTERN	_memman_alloc_page_32
    63 00000000                                 	EXTERN	_pageman_link_page_32
    64 00000000                                 	EXTERN	_add_child_task
    65 00000000                                 	EXTERN	_make_window32
    66 00000000                                 	EXTERN	_make_textbox32
    67 00000000                                 [FILE "bootpack.c"]
    68                                          [SECTION .data]
    69 00000000                                 _keytable0.0:
    70 00000000 00                              	DB	0
    71 00000001 00                              	DB	0
    72 00000002 31                              	DB	49
    73 00000003 32                              	DB	50
    74 00000004 33                              	DB	51
    75 00000005 34                              	DB	52
    76 00000006 35                              	DB	53
    77 00000007 36                              	DB	54
    78 00000008 37                              	DB	55
    79 00000009 38                              	DB	56
    80 0000000A 39                              	DB	57
    81 0000000B 30                              	DB	48
    82 0000000C 2D                              	DB	45
    83 0000000D 5E                              	DB	94
    84 0000000E 08                              	DB	8
    85 0000000F 00                              	DB	0
    86 00000010 51                              	DB	81
    87 00000011 57                              	DB	87
    88 00000012 45                              	DB	69
    89 00000013 52                              	DB	82
    90 00000014 54                              	DB	84
    91 00000015 59                              	DB	89
    92 00000016 55                              	DB	85
    93 00000017 49                              	DB	73
    94 00000018 4F                              	DB	79
    95 00000019 50                              	DB	80
    96 0000001A 40                              	DB	64
    97 0000001B 5B                              	DB	91
    98 0000001C 0A                              	DB	10
    99 0000001D 00                              	DB	0
   100 0000001E 41                              	DB	65
   101 0000001F 53                              	DB	83
   102 00000020 44                              	DB	68
   103 00000021 46                              	DB	70
   104 00000022 47                              	DB	71
   105 00000023 48                              	DB	72
   106 00000024 4A                              	DB	74
   107 00000025 4B                              	DB	75
   108 00000026 4C                              	DB	76
   109 00000027 3B                              	DB	59
   110 00000028 3A                              	DB	58
   111 00000029 00                              	DB	0
   112 0000002A 00                              	DB	0
   113 0000002B 5D                              	DB	93
   114 0000002C 5A                              	DB	90
   115 0000002D 58                              	DB	88
   116 0000002E 43                              	DB	67
   117 0000002F 56                              	DB	86
   118 00000030 42                              	DB	66
   119 00000031 4E                              	DB	78
   120 00000032 4D                              	DB	77
   121 00000033 2C                              	DB	44
   122 00000034 2E                              	DB	46
   123 00000035 2F                              	DB	47
   124 00000036 00                              	DB	0
   125 00000037 2A                              	DB	42
   126 00000038 00                              	DB	0
   127 00000039 20                              	DB	32
   128 0000003A 00                              	DB	0
   129 0000003B 00                              	DB	0
   130 0000003C 00                              	DB	0
   131 0000003D 00                              	DB	0
   132 0000003E 00                              	DB	0
   133 0000003F 00                              	DB	0
   134 00000040 00                              	DB	0
   135 00000041 00                              	DB	0
   136 00000042 00                              	DB	0
   137 00000043 00                              	DB	0
   138 00000044 00                              	DB	0
   139 00000045 00                              	DB	0
   140 00000046 00                              	DB	0
   141 00000047 37                              	DB	55
   142 00000048 38                              	DB	56
   143 00000049 39                              	DB	57
   144 0000004A 2D                              	DB	45
   145 0000004B 34                              	DB	52
   146 0000004C 35                              	DB	53
   147 0000004D 36                              	DB	54
   148 0000004E 2B                              	DB	43
   149 0000004F 31                              	DB	49
   150 00000050 32                              	DB	50
   151 00000051 33                              	DB	51
   152 00000052 30                              	DB	48
   153 00000053 2E                              	DB	46
   154 00000054 00                              	DB	0
   155 00000055 00                              	DB	0
   156 00000056 00                              	DB	0
   157 00000057 00                              	DB	0
   158 00000058 00                              	DB	0
   159 00000059 00                              	DB	0
   160 0000005A 00                              	DB	0
   161 0000005B 00                              	DB	0
   162 0000005C 00                              	DB	0
   163 0000005D 00                              	DB	0
   164 0000005E 00                              	DB	0
   165 0000005F 00                              	DB	0
   166 00000060 00                              	DB	0
   167 00000061 00                              	DB	0
   168 00000062 00                              	DB	0
   169 00000063 00                              	DB	0
   170 00000064 00                              	DB	0
   171 00000065 00                              	DB	0
   172 00000066 00                              	DB	0
   173 00000067 00                              	DB	0
   174 00000068 00                              	DB	0
   175 00000069 00                              	DB	0
   176 0000006A 00                              	DB	0
   177 0000006B 00                              	DB	0
   178 0000006C 00                              	DB	0
   179 0000006D 00                              	DB	0
   180 0000006E 00                              	DB	0
   181 0000006F 00                              	DB	0
   182 00000070 00                              	DB	0
   183 00000071 00                              	DB	0
   184 00000072 00                              	DB	0
   185 00000073 5C                              	DB	92
   186 00000074 00                              	DB	0
   187 00000075 00                              	DB	0
   188 00000076 00                              	DB	0
   189 00000077 00                              	DB	0
   190 00000078 00                              	DB	0
   191 00000079 00                              	DB	0
   192 0000007A 00                              	DB	0
   193 0000007B 00                              	DB	0
   194 0000007C 00                              	DB	0
   195 0000007D 5C                              	DB	92
   196 0000007E 00                              	DB	0
   197 0000007F 00                              	DB	0
   198 00000080                                 _keytable1.1:
   199 00000080 00                              	DB	0
   200 00000081 00                              	DB	0
   201 00000082 21                              	DB	33
   202 00000083 22                              	DB	34
   203 00000084 23                              	DB	35
   204 00000085 24                              	DB	36
   205 00000086 25                              	DB	37
   206 00000087 26                              	DB	38
   207 00000088 27                              	DB	39
   208 00000089 28                              	DB	40
   209 0000008A 29                              	DB	41
   210 0000008B 7E                              	DB	126
   211 0000008C 3D                              	DB	61
   212 0000008D 7E                              	DB	126
   213 0000008E 08                              	DB	8
   214 0000008F 00                              	DB	0
   215 00000090 51                              	DB	81
   216 00000091 57                              	DB	87
   217 00000092 45                              	DB	69
   218 00000093 52                              	DB	82
   219 00000094 54                              	DB	84
   220 00000095 59                              	DB	89
   221 00000096 55                              	DB	85
   222 00000097 49                              	DB	73
   223 00000098 4F                              	DB	79
   224 00000099 50                              	DB	80
   225 0000009A 60                              	DB	96
   226 0000009B 7B                              	DB	123
   227 0000009C 0A                              	DB	10
   228 0000009D 00                              	DB	0
   229 0000009E 41                              	DB	65
   230 0000009F 53                              	DB	83
   231 000000A0 44                              	DB	68
   232 000000A1 46                              	DB	70
   233 000000A2 47                              	DB	71
   234 000000A3 48                              	DB	72
   235 000000A4 4A                              	DB	74
   236 000000A5 4B                              	DB	75
   237 000000A6 4C                              	DB	76
   238 000000A7 2B                              	DB	43
   239 000000A8 2A                              	DB	42
   240 000000A9 00                              	DB	0
   241 000000AA 00                              	DB	0
   242 000000AB 7D                              	DB	125
   243 000000AC 5A                              	DB	90
   244 000000AD 58                              	DB	88
   245 000000AE 43                              	DB	67
   246 000000AF 56                              	DB	86
   247 000000B0 42                              	DB	66
   248 000000B1 4E                              	DB	78
   249 000000B2 4D                              	DB	77
   250 000000B3 3C                              	DB	60
   251 000000B4 3E                              	DB	62
   252 000000B5 3F                              	DB	63
   253 000000B6 00                              	DB	0
   254 000000B7 2A                              	DB	42
   255 000000B8 00                              	DB	0
   256 000000B9 20                              	DB	32
   257 000000BA 00                              	DB	0
   258 000000BB 00                              	DB	0
   259 000000BC 00                              	DB	0
   260 000000BD 00                              	DB	0
   261 000000BE 00                              	DB	0
   262 000000BF 00                              	DB	0
   263 000000C0 00                              	DB	0
   264 000000C1 00                              	DB	0
   265 000000C2 00                              	DB	0
   266 000000C3 00                              	DB	0
   267 000000C4 00                              	DB	0
   268 000000C5 00                              	DB	0
   269 000000C6 00                              	DB	0
   270 000000C7 37                              	DB	55
   271 000000C8 38                              	DB	56
   272 000000C9 39                              	DB	57
   273 000000CA 2D                              	DB	45
   274 000000CB 34                              	DB	52
   275 000000CC 35                              	DB	53
   276 000000CD 36                              	DB	54
   277 000000CE 2B                              	DB	43
   278 000000CF 31                              	DB	49
   279 000000D0 32                              	DB	50
   280 000000D1 33                              	DB	51
   281 000000D2 30                              	DB	48
   282 000000D3 2E                              	DB	46
   283 000000D4 00                              	DB	0
   284 000000D5 00                              	DB	0
   285 000000D6 00                              	DB	0
   286 000000D7 00                              	DB	0
   287 000000D8 00                              	DB	0
   288 000000D9 00                              	DB	0
   289 000000DA 00                              	DB	0
   290 000000DB 00                              	DB	0
   291 000000DC 00                              	DB	0
   292 000000DD 00                              	DB	0
   293 000000DE 00                              	DB	0
   294 000000DF 00                              	DB	0
   295 000000E0 00                              	DB	0
   296 000000E1 00                              	DB	0
   297 000000E2 00                              	DB	0
   298 000000E3 00                              	DB	0
   299 000000E4 00                              	DB	0
   300 000000E5 00                              	DB	0
   301 000000E6 00                              	DB	0
   302 000000E7 00                              	DB	0
   303 000000E8 00                              	DB	0
   304 000000E9 00                              	DB	0
   305 000000EA 00                              	DB	0
   306 000000EB 00                              	DB	0
   307 000000EC 00                              	DB	0
   308 000000ED 00                              	DB	0
   309 000000EE 00                              	DB	0
   310 000000EF 00                              	DB	0
   311 000000F0 00                              	DB	0
   312 000000F1 00                              	DB	0
   313 000000F2 00                              	DB	0
   314 000000F3 5F                              	DB	95
   315 000000F4 00                              	DB	0
   316 000000F5 00                              	DB	0
   317 000000F6 00                              	DB	0
   318 000000F7 00                              	DB	0
   319 000000F8 00                              	DB	0
   320 000000F9 00                              	DB	0
   321 000000FA 00                              	DB	0
   322 000000FB 00                              	DB	0
   323 000000FC 00                              	DB	0
   324 000000FD 7C                              	DB	124
   325 000000FE 00                              	DB	0
   326 000000FF 00                              	DB	0
   327 00000100                                 _keytable2.2:
   328 00000100 00                              	DB	0
   329 00000101 00                              	DB	0
   330 00000102 00                              	DB	0
   331 00000103 00                              	DB	0
   332 00000104 00                              	DB	0
   333 00000105 00                              	DB	0
   334 00000106 00                              	DB	0
   335 00000107 00                              	DB	0
   336 00000108 00                              	DB	0
   337 00000109 00                              	DB	0
   338 0000010A 00                              	DB	0
   339 0000010B 00                              	DB	0
   340 0000010C 00                              	DB	0
   341 0000010D 00                              	DB	0
   342 0000010E 00                              	DB	0
   343 0000010F 00                              	DB	0
   344 00000110 00                              	DB	0
   345 00000111 00                              	DB	0
   346 00000112 00                              	DB	0
   347 00000113 00                              	DB	0
   348 00000114 00                              	DB	0
   349 00000115 00                              	DB	0
   350 00000116 00                              	DB	0
   351 00000117 00                              	DB	0
   352 00000118 00                              	DB	0
   353 00000119 00                              	DB	0
   354 0000011A 00                              	DB	0
   355 0000011B 00                              	DB	0
   356 0000011C 0A                              	DB	10
   357 0000011D 00                              	DB	0
   358 0000011E 00                              	DB	0
   359 0000011F 00                              	DB	0
   360 00000120 00                              	DB	0
   361 00000121 00                              	DB	0
   362 00000122 00                              	DB	0
   363 00000123 00                              	DB	0
   364 00000124 00                              	DB	0
   365 00000125 00                              	DB	0
   366 00000126 00                              	DB	0
   367 00000127 00                              	DB	0
   368 00000128 00                              	DB	0
   369 00000129 00                              	DB	0
   370 0000012A 00                              	DB	0
   371 0000012B 00                              	DB	0
   372 0000012C 00                              	DB	0
   373 0000012D 00                              	DB	0
   374 0000012E 00                              	DB	0
   375 0000012F 00                              	DB	0
   376 00000130 00                              	DB	0
   377 00000131 00                              	DB	0
   378 00000132 00                              	DB	0
   379 00000133 3F                              	DB	63
   380 00000134 00                              	DB	0
   381 00000135 00                              	DB	0
   382 00000136 00                              	DB	0
   383 00000137 00                              	DB	0
   384 00000138 00                              	DB	0
   385 00000139 00                              	DB	0
   386 0000013A 00                              	DB	0
   387 0000013B 00                              	DB	0
   388 0000013C 00                              	DB	0
   389 0000013D 00                              	DB	0
   390 0000013E 00                              	DB	0
   391 0000013F 00                              	DB	0
   392 00000140 00                              	DB	0
   393 00000141 00                              	DB	0
   394 00000142 00                              	DB	0
   395 00000143 00                              	DB	0
   396 00000144 00                              	DB	0
   397 00000145 00                              	DB	0
   398 00000146 00                              	DB	0
   399 00000147 00                              	DB	0
   400 00000148 00                              	DB	0
   401 00000149 00                              	DB	0
   402 0000014A 00                              	DB	0
   403 0000014B 00                              	DB	0
   404 0000014C 00                              	DB	0
   405 0000014D 00                              	DB	0
   406 0000014E 00                              	DB	0
   407 0000014F 00                              	DB	0
   408 00000150 00                              	DB	0
   409 00000151 00                              	DB	0
   410 00000152 00                              	DB	0
   411 00000153 00                              	DB	0
   412 00000154 00                              	DB	0
   413 00000155 00                              	DB	0
   414 00000156 00                              	DB	0
   415 00000157 00                              	DB	0
   416 00000158 00                              	DB	0
   417 00000159 00                              	DB	0
   418 0000015A 00                              	DB	0
   419 0000015B 00                              	DB	0
   420 0000015C 00                              	DB	0
   421 0000015D 00                              	DB	0
   422 0000015E 00                              	DB	0
   423 0000015F 00                              	DB	0
   424 00000160 00                              	DB	0
   425 00000161 00                              	DB	0
   426 00000162 00                              	DB	0
   427 00000163 00                              	DB	0
   428 00000164 00                              	DB	0
   429 00000165 00                              	DB	0
   430 00000166 00                              	DB	0
   431 00000167 00                              	DB	0
   432 00000168 00                              	DB	0
   433 00000169 00                              	DB	0
   434 0000016A 00                              	DB	0
   435 0000016B 00                              	DB	0
   436 0000016C 00                              	DB	0
   437 0000016D 00                              	DB	0
   438 0000016E 00                              	DB	0
   439 0000016F 00                              	DB	0
   440 00000170 00                              	DB	0
   441 00000171 00                              	DB	0
   442 00000172 00                              	DB	0
   443 00000173 00                              	DB	0
   444 00000174 00                              	DB	0
   445 00000175 00                              	DB	0
   446 00000176 00                              	DB	0
   447 00000177 00                              	DB	0
   448 00000178 00                              	DB	0
   449 00000179 00                              	DB	0
   450 0000017A 00                              	DB	0
   451 0000017B 00                              	DB	0
   452 0000017C 00                              	DB	0
   453 0000017D 00                              	DB	0
   454 0000017E 00                              	DB	0
   455 0000017F 00                              	DB	0
   456 00000180                                 LC0:
   457 00000180 6E 69 68 6F 6E 67 6F 2E 66 6E   	DB	"nihongo.fnt",0x00
       0000018A 74 00 
   458 0000018C                                 LC2:
   459 0000018C 0A 42 72 65 61 6B 28 6D 6F 75   	DB	0x0A,"Break(mouse) :",0x0A,0x00
       00000196 73 65 29 20 3A 0A 00 
   460 0000019D                                 LC1:
   461 0000019D 0A 42 72 65 61 6B 28 6B 65 79   	DB	0x0A,"Break(key) :",0x0A,0x00
       000001A7 29 20 3A 0A 00 
   462                                          [SECTION .text]
   463 00000000                                 	GLOBAL	_HariMain
   464 00000000                                 _HariMain:
   465 00000000 55                              	PUSH	EBP
   466 00000001 89 E5                           	MOV	EBP,ESP
   467 00000003 57                              	PUSH	EDI
   468 00000004 56                              	PUSH	ESI
   469 00000005 53                              	PUSH	EBX
   470 00000006 81 EC 00000814                  	SUB	ESP,2068
   471 0000000C C7 85 FFFFF83C 00000000         	MOV	DWORD [-1988+EBP],0
   472 00000016 C7 85 FFFFF830 FFFFFFFF         	MOV	DWORD [-2000+EBP],-1
   473 00000020 C7 85 FFFFF82C 00000000         	MOV	DWORD [-2004+EBP],0
   474 0000002A C7 85 FFFFF828 7FFFFFFF         	MOV	DWORD [-2008+EBP],2147483647
   475 00000034 C7 85 FFFFF824 00000000         	MOV	DWORD [-2012+EBP],0
   476 0000003E C7 85 FFFFF814 00000000         	MOV	DWORD [-2028+EBP],0
   477 00000048 C7 85 FFFFF810 00000000         	MOV	DWORD [-2032+EBP],0
   478 00000052 C7 85 FFFFF80C 00000000         	MOV	DWORD [-2036+EBP],0
   479 0000005C A0 00000FF1                     	MOV	AL,BYTE [4081]
   480 00000061 C0 F8 04                        	SAR	AL,4
   481 00000064 89 C2                           	MOV	EDX,EAX
   482 00000066 83 E2 07                        	AND	EDX,7
   483 00000069 89 95 FFFFF808                  	MOV	DWORD [-2040+EBP],EDX
   484 0000006F C7 85 FFFFF804 FFFFFFFF         	MOV	DWORD [-2044+EBP],-1
   485 00000079 C7 85 FFFFF800 00000000         	MOV	DWORD [-2048+EBP],0
   486 00000083 C7 85 FFFFF7FC FFFFFFFF         	MOV	DWORD [-2052+EBP],-1
   487 0000008D C7 85 FFFFF7F8 FFFFFFFF         	MOV	DWORD [-2056+EBP],-1
   488 00000097 C7 85 FFFFF7F4 00000000         	MOV	DWORD [-2060+EBP],0
   489 000000A1 C7 85 FFFFF7F0 00000000         	MOV	DWORD [-2064+EBP],0
   490 000000AB E8 [00000000]                   	CALL	_init_gdtidt
   491 000000B0 E8 [00000000]                   	CALL	_init_acpi
   492 000000B5 68 003C0000                     	PUSH	3932160
   493 000000BA E8 [00000000]                   	CALL	_memman_init
   494 000000BF 68 DFFFFFFF                     	PUSH	-536870913
   495 000000C4 68 C0200000                     	PUSH	-1071644672
   496 000000C9 68 003C0000                     	PUSH	3932160
   497 000000CE E8 [00000000]                   	CALL	_memman_free
   498 000000D3 8D 8D FFFFF844                  	LEA	ECX,DWORD [-1980+EBP]
   499 000000D9 51                              	PUSH	ECX
   500 000000DA E8 [00000000]                   	CALL	_init_page
   501 000000DF 8D 85 FFFFF844                  	LEA	EAX,DWORD [-1980+EBP]
   502 000000E5 6A 01                           	PUSH	1
   503 000000E7 6A 10                           	PUSH	16
   504 000000E9 68 00270007                     	PUSH	2555911
   505 000000EE 68 C0000000                     	PUSH	-1073741824
   506 000000F3 68 00268000                     	PUSH	2523136
   507 000000F8 50                              	PUSH	EAX
   508 000000F9 E8 [00000000]                   	CALL	_memmam_link_page_32_m
   509 000000FE 8D 95 FFFFF844                  	LEA	EDX,DWORD [-1980+EBP]
   510 00000104 83 C4 2C                        	ADD	ESP,44
   511 00000107 6A 01                           	PUSH	1
   512 00000109 6A 01                           	PUSH	1
   513 0000010B 68 0026F007                     	PUSH	2551815
   514 00000110 68 C0020000                     	PUSH	-1073610752
   515 00000115 68 00268000                     	PUSH	2523136
   516 0000011A 52                              	PUSH	EDX
   517 0000011B E8 [00000000]                   	CALL	_memmam_link_page_32_m
   518 00000120 8D 8D FFFFF844                  	LEA	ECX,DWORD [-1980+EBP]
   519 00000126 6A 01                           	PUSH	1
   520 00000128 68 00000080                     	PUSH	128
   521 0000012D 68 00280007                     	PUSH	2621447
   522 00000132 68 C0100000                     	PUSH	-1072693248
   523 00000137 68 00268000                     	PUSH	2523136
   524 0000013C 51                              	PUSH	ECX
   525 0000013D E8 [00000000]                   	CALL	_memmam_link_page_32_m
   526 00000142 8D 85 FFFFF844                  	LEA	EAX,DWORD [-1980+EBP]
   527 00000148 83 C4 30                        	ADD	ESP,48
   528 0000014B 6A 01                           	PUSH	1
   529 0000014D 68 00000900                     	PUSH	2304
   530 00000152 6A 07                           	PUSH	7
   531 00000154 6A 07                           	PUSH	7
   532 00000156 68 00268000                     	PUSH	2523136
   533 0000015B 50                              	PUSH	EAX
   534 0000015C E8 [00000000]                   	CALL	_memmam_link_page_32_m
   535 00000161 8D 95 FFFFF844                  	LEA	EDX,DWORD [-1980+EBP]
   536 00000167 6A 01                           	PUSH	1
   537 00000169 68 0001FC00                     	PUSH	130048
   538 0000016E 68 E0000007                     	PUSH	-536870905
   539 00000173 68 E0000000                     	PUSH	-536870912
   540 00000178 68 00268000                     	PUSH	2523136
   541 0000017D 52                              	PUSH	EDX
   542 0000017E E8 [00000000]                   	CALL	_memmam_link_page_32_m
   543 00000183 83 C4 30                        	ADD	ESP,48
   544 00000186 8D 8D FFFFF844                  	LEA	ECX,DWORD [-1980+EBP]
   545 0000018C 89 0D 0026F000                  	MOV	DWORD [2551808],ECX
   546 00000192 E8 [00000000]                   	CALL	_load_cr0
   547 00000197 89 C7                           	MOV	EDI,EAX
   548 00000199 68 00268000                     	PUSH	2523136
   549 0000019E 81 CF 80000000                  	OR	EDI,-2147483648
   550 000001A4 E8 [00000000]                   	CALL	_store_cr3
   551 000001A9 57                              	PUSH	EDI
   552 000001AA E8 [00000000]                   	CALL	_store_cr0
   553 000001AF 68 C0000000                     	PUSH	-1073741824
   554 000001B4 68 0000FFFF                     	PUSH	65535
   555 000001B9 E8 [00000000]                   	CALL	_load_gdtr
   556 000001BE 68 C0020800                     	PUSH	-1073608704
   557 000001C3 68 0000FFFF                     	PUSH	65535
   558 000001C8 E8 [00000000]                   	CALL	_load_idtr
   559 000001CD E8 [00000000]                   	CALL	_support_apic
   560 000001D2 83 C4 18                        	ADD	ESP,24
   561 000001D5 48                              	DEC	EAX
   562 000001D6 0F 84 00000F39                  	JE	L134
   563 000001DC E8 [00000000]                   	CALL	_init_pic
   564 000001E1                                 L3:
   565 000001E1 8D 9D FFFFFF34                  	LEA	EBX,DWORD [-204+EBP]
   566 000001E7 E8 [00000000]                   	CALL	_io_sti
   567 000001EC 6A 00                           	PUSH	0
   568 000001EE 8D 85 FFFFFD14                  	LEA	EAX,DWORD [-748+EBP]
   569 000001F4 50                              	PUSH	EAX
   570 000001F5 68 00000080                     	PUSH	128
   571 000001FA 53                              	PUSH	EBX
   572 000001FB E8 [00000000]                   	CALL	_fifo32_init
   573 00000200 89 1D 00000FEC                  	MOV	DWORD [4076],EBX
   574 00000206 E8 [00000000]                   	CALL	_init_pit
   575 0000020B 68 00000100                     	PUSH	256
   576 00000210 53                              	PUSH	EBX
   577 00000211 E8 [00000000]                   	CALL	_init_keyboard
   578 00000216 8D 85 FFFFFC84                  	LEA	EAX,DWORD [-892+EBP]
   579 0000021C 50                              	PUSH	EAX
   580 0000021D 68 00000200                     	PUSH	512
   581 00000222 53                              	PUSH	EBX
   582 00000223 E8 [00000000]                   	CALL	_enable_mouse
   583 00000228 83 C4 24                        	ADD	ESP,36
   584 0000022B E8 [00000000]                   	CALL	_support_apic
   585 00000230 85 C0                           	TEST	EAX,EAX
   586 00000232 75 1E                           	JNE	L4
   587 00000234 68 000000F8                     	PUSH	248
   588 00000239 6A 21                           	PUSH	33
   589 0000023B E8 [00000000]                   	CALL	_io_out8
   590 00000240 68 000000EF                     	PUSH	239
   591 00000245 68 000000A1                     	PUSH	161
   592 0000024A E8 [00000000]                   	CALL	_io_out8
   593 0000024F 83 C4 10                        	ADD	ESP,16
   594 00000252                                 L4:
   595 00000252 6A 00                           	PUSH	0
   596 00000254 8D 85 FFFFFC94                  	LEA	EAX,DWORD [-876+EBP]
   597 0000025A 50                              	PUSH	EAX
   598 0000025B 31 DB                           	XOR	EBX,EBX
   599 0000025D 6A 20                           	PUSH	32
   600 0000025F 8D 85 FFFFFF14                  	LEA	EAX,DWORD [-236+EBP]
   601 00000265 50                              	PUSH	EAX
   602 00000266 E8 [00000000]                   	CALL	_fifo32_init
   603 0000026B 68 00009000                     	PUSH	36864
   604 00000270 68 003C0000                     	PUSH	3932160
   605 00000275 E8 [00000000]                   	CALL	_memman_alloc_4k
   606 0000027A 6A 00                           	PUSH	0
   607 0000027C 6A 09                           	PUSH	9
   608 0000027E 89 C7                           	MOV	EDI,EAX
   609 00000280 6A 07                           	PUSH	7
   610 00000282 50                              	PUSH	EAX
   611 00000283 8D 85 FFFFF844                  	LEA	EAX,DWORD [-1980+EBP]
   612 00000289 68 00268000                     	PUSH	2523136
   613 0000028E 50                              	PUSH	EAX
   614 0000028F E8 [00000000]                   	CALL	_memmam_link_page_32_m
   615 00000294 83 C4 30                        	ADD	ESP,48
   616 00000297 C7 05 0026F01C 00000002         	MOV	DWORD [2551836],2
   617 000002A1 C7 85 FFFFF840 00000000         	MOV	DWORD [-1984+EBP],0
   618 000002AB                                 L9:
   619 000002AB 0F BF 05 00000FF6               	MOVSX	EAX,WORD [4086]
   620 000002B2 50                              	PUSH	EAX
   621 000002B3 8D 95 FFFFF844                  	LEA	EDX,DWORD [-1980+EBP]
   622 000002B9 0F BF 05 00000FF4               	MOVSX	EAX,WORD [4084]
   623 000002C0 50                              	PUSH	EAX
   624 000002C1 FF 35 00000FF8                  	PUSH	DWORD [4088]
   625 000002C7 52                              	PUSH	EDX
   626 000002C8 68 003C0000                     	PUSH	3932160
   627 000002CD E8 [00000000]                   	CALL	_shtctl_init
   628 000002D2 83 C4 14                        	ADD	ESP,20
   629 000002D5 89 44 9D C4                     	MOV	DWORD [-60+EBP+EBX*4],EAX
   630 000002D9 8B 85 FFFFF840                  	MOV	EAX,DWORD [-1984+EBP]
   631 000002DF 8B 54 85 C4                     	MOV	EDX,DWORD [-60+EBP+EAX*4]
   632 000002E3 40                              	INC	EAX
   633 000002E4 89 C3                           	MOV	EBX,EAX
   634 000002E6 83 F8 01                        	CMP	EAX,1
   635 000002E9 C7 82 00000418 00000200         	MOV	DWORD [1048+EDX],512
   636 000002F3 89 BA 0000081C                  	MOV	DWORD [2076+EDX],EDI
   637 000002F9 89 85 FFFFF840                  	MOV	DWORD [-1984+EBP],EAX
   638 000002FF 7E AA                           	JLE	L9
   639 00000301 68 003C0000                     	PUSH	3932160
   640 00000306 E8 [00000000]                   	CALL	_task_init
   641 0000030B C7 46 48 00268000               	MOV	DWORD [72+ESI],2523136
   642 00000312 C7 80 00000104 003C0000         	MOV	DWORD [260+EAX],3932160
   643 0000031C 6A 02                           	PUSH	2
   644 0000031E 89 85 FFFFF818                  	MOV	DWORD [-2024+EBP],EAX
   645 00000324 6A 01                           	PUSH	1
   646 00000326 89 85 FFFFFF4C                  	MOV	DWORD [-180+EBP],EAX
   647 0000032C 50                              	PUSH	EAX
   648 0000032D E8 [00000000]                   	CALL	_task_run
   649 00000332 8B 45 C4                        	MOV	EAX,DWORD [-60+EBP]
   650 00000335 A3 00000FE4                     	MOV	DWORD [4068],EAX
   651 0000033A 8D 45 C4                        	LEA	EAX,DWORD [-60+EBP]
   652 0000033D A3 0026F018                     	MOV	DWORD [2551832],EAX
   653 00000342 8B 85 FFFFF818                  	MOV	EAX,DWORD [-2024+EBP]
   654 00000348 C6 80 000000CC 00               	MOV	BYTE [204+EAX],0
   655 0000034F FF 75 C4                        	PUSH	DWORD [-60+EBP]
   656 00000352 E8 [00000000]                   	CALL	_sheet_alloc
   657 00000357 0F BF 15 00000FF6               	MOVSX	EDX,WORD [4086]
   658 0000035E 89 85 FFFFF854                  	MOV	DWORD [-1964+EBP],EAX
   659 00000364 0F BF 05 00000FF4               	MOVSX	EAX,WORD [4084]
   660 0000036B 0F AF C2                        	IMUL	EAX,EDX
   661 0000036E C1 E0 02                        	SAL	EAX,2
   662 00000371 50                              	PUSH	EAX
   663 00000372 68 003C0000                     	PUSH	3932160
   664 00000377 E8 [00000000]                   	CALL	_memman_alloc_4k
   665 0000037C 6A 00                           	PUSH	0
   666 0000037E 0F BF 15 00000FF6               	MOVSX	EDX,WORD [4086]
   667 00000385 89 C3                           	MOV	EBX,EAX
   668 00000387 0F BF 05 00000FF4               	MOVSX	EAX,WORD [4084]
   669 0000038E 0F AF C2                        	IMUL	EAX,EDX
   670 00000391 8D 95 FFFFF844                  	LEA	EDX,DWORD [-1980+EBP]
   671 00000397 8D 04 85 00000FFF               	LEA	EAX,DWORD [4095+EAX*4]
   672 0000039E C1 F8 0C                        	SAR	EAX,12
   673 000003A1 50                              	PUSH	EAX
   674 000003A2 6A 07                           	PUSH	7
   675 000003A4 53                              	PUSH	EBX
   676 000003A5 68 00268000                     	PUSH	2523136
   677 000003AA 52                              	PUSH	EDX
   678 000003AB E8 [00000000]                   	CALL	_memmam_link_page_32_m
   679 000003B0 83 C4 34                        	ADD	ESP,52
   680 000003B3 6A FF                           	PUSH	-1
   681 000003B5 0F BF 05 00000FF6               	MOVSX	EAX,WORD [4086]
   682 000003BC 50                              	PUSH	EAX
   683 000003BD 0F BF 05 00000FF4               	MOVSX	EAX,WORD [4084]
   684 000003C4 50                              	PUSH	EAX
   685 000003C5 53                              	PUSH	EBX
   686 000003C6 FF B5 FFFFF854                  	PUSH	DWORD [-1964+EBP]
   687 000003CC E8 [00000000]                   	CALL	_sheet_setbuf
   688 000003D1 0F BF 05 00000FF6               	MOVSX	EAX,WORD [4086]
   689 000003D8 50                              	PUSH	EAX
   690 000003D9 0F BF 05 00000FF4               	MOVSX	EAX,WORD [4084]
   691 000003E0 50                              	PUSH	EAX
   692 000003E1 53                              	PUSH	EBX
   693 000003E2 E8 [00000000]                   	CALL	_init_screen32
   694 000003E7 83 C4 20                        	ADD	ESP,32
   695 000003EA FF 75 C8                        	PUSH	DWORD [-56+EBP]
   696 000003ED E8 [00000000]                   	CALL	_sheet_alloc
   697 000003F2 0F BF 15 00000FF6               	MOVSX	EDX,WORD [4086]
   698 000003F9 89 85 FFFFF858                  	MOV	DWORD [-1960+EBP],EAX
   699 000003FF 0F BF 05 00000FF4               	MOVSX	EAX,WORD [4084]
   700 00000406 0F AF C2                        	IMUL	EAX,EDX
   701 00000409 C1 E0 02                        	SAL	EAX,2
   702 0000040C 50                              	PUSH	EAX
   703 0000040D 68 003C0000                     	PUSH	3932160
   704 00000412 E8 [00000000]                   	CALL	_memman_alloc_4k
   705 00000417 8D 8D FFFFF844                  	LEA	ECX,DWORD [-1980+EBP]
   706 0000041D 6A 00                           	PUSH	0
   707 0000041F 89 C3                           	MOV	EBX,EAX
   708 00000421 0F BF 15 00000FF6               	MOVSX	EDX,WORD [4086]
   709 00000428 0F BF 05 00000FF4               	MOVSX	EAX,WORD [4084]
   710 0000042F 0F AF C2                        	IMUL	EAX,EDX
   711 00000432 8D 04 85 00000FFF               	LEA	EAX,DWORD [4095+EAX*4]
   712 00000439 C1 F8 0C                        	SAR	EAX,12
   713 0000043C 50                              	PUSH	EAX
   714 0000043D 6A 07                           	PUSH	7
   715 0000043F 53                              	PUSH	EBX
   716 00000440 68 00268000                     	PUSH	2523136
   717 00000445 51                              	PUSH	ECX
   718 00000446 E8 [00000000]                   	CALL	_memmam_link_page_32_m
   719 0000044B 83 C4 24                        	ADD	ESP,36
   720 0000044E 6A FF                           	PUSH	-1
   721 00000450 0F BF 05 00000FF6               	MOVSX	EAX,WORD [4086]
   722 00000457 50                              	PUSH	EAX
   723 00000458 0F BF 05 00000FF4               	MOVSX	EAX,WORD [4084]
   724 0000045F 50                              	PUSH	EAX
   725 00000460 53                              	PUSH	EBX
   726 00000461 FF B5 FFFFF858                  	PUSH	DWORD [-1960+EBP]
   727 00000467 E8 [00000000]                   	CALL	_sheet_setbuf
   728 0000046C 0F BF 05 00000FF6               	MOVSX	EAX,WORD [4086]
   729 00000473 50                              	PUSH	EAX
   730 00000474 0F BF 05 00000FF4               	MOVSX	EAX,WORD [4084]
   731 0000047B 50                              	PUSH	EAX
   732 0000047C 53                              	PUSH	EBX
   733 0000047D 8D 9D FFFFF884                  	LEA	EBX,DWORD [-1916+EBP]
   734 00000483 E8 [00000000]                   	CALL	_init_screen32
   735 00000488 83 C4 20                        	ADD	ESP,32
   736 0000048B FF 75 C4                        	PUSH	DWORD [-60+EBP]
   737 0000048E C7 85 FFFFF7EC 00000000         	MOV	DWORD [-2068+EBP],0
   738 00000498 E8 [00000000]                   	CALL	_sheet_alloc
   739 0000049D 6A 63                           	PUSH	99
   740 0000049F 6A 10                           	PUSH	16
   741 000004A1 6A 10                           	PUSH	16
   742 000004A3 89 85 FFFFF81C                  	MOV	DWORD [-2020+EBP],EAX
   743 000004A9 53                              	PUSH	EBX
   744 000004AA 50                              	PUSH	EAX
   745 000004AB E8 [00000000]                   	CALL	_sheet_setbuf
   746 000004B0 6A 63                           	PUSH	99
   747 000004B2 53                              	PUSH	EBX
   748 000004B3 BB 00000002                     	MOV	EBX,2
   749 000004B8 E8 [00000000]                   	CALL	_init_mouse_cursor32
   750 000004BD 83 C4 20                        	ADD	ESP,32
   751 000004C0 0F BF 05 00000FF4               	MOVSX	EAX,WORD [4084]
   752 000004C7 8D 48 F0                        	LEA	ECX,DWORD [-16+EAX]
   753 000004CA 89 C8                           	MOV	EAX,ECX
   754 000004CC 99                              	CDQ
   755 000004CD F7 FB                           	IDIV	EBX
   756 000004CF 89 85 FFFFF838                  	MOV	DWORD [-1992+EBP],EAX
   757 000004D5 0F BF 05 00000FF6               	MOVSX	EAX,WORD [4086]
   758 000004DC 6A 00                           	PUSH	0
   759 000004DE 8D 48 D4                        	LEA	ECX,DWORD [-44+EAX]
   760 000004E1 6A 00                           	PUSH	0
   761 000004E3 89 C8                           	MOV	EAX,ECX
   762 000004E5 99                              	CDQ
   763 000004E6 F7 FB                           	IDIV	EBX
   764 000004E8 FF B5 FFFFF858                  	PUSH	DWORD [-1960+EBP]
   765 000004EE 89 85 FFFFF834                  	MOV	DWORD [-1996+EBP],EAX
   766 000004F4 8D 9D FFFFFF14                  	LEA	EBX,DWORD [-236+EBP]
   767 000004FA E8 [00000000]                   	CALL	_sheet_slide
   768 000004FF 6A 00                           	PUSH	0
   769 00000501 FF B5 FFFFF858                  	PUSH	DWORD [-1960+EBP]
   770 00000507 E8 [00000000]                   	CALL	_sheet_updown
   771 0000050C 6A 00                           	PUSH	0
   772 0000050E 6A 00                           	PUSH	0
   773 00000510 FF B5 FFFFF854                  	PUSH	DWORD [-1964+EBP]
   774 00000516 E8 [00000000]                   	CALL	_sheet_slide
   775 0000051B 83 C4 20                        	ADD	ESP,32
   776 0000051E FF B5 FFFFF834                  	PUSH	DWORD [-1996+EBP]
   777 00000524 FF B5 FFFFF838                  	PUSH	DWORD [-1992+EBP]
   778 0000052A FF B5 FFFFF81C                  	PUSH	DWORD [-2020+EBP]
   779 00000530 E8 [00000000]                   	CALL	_sheet_slide
   780 00000535 6A 00                           	PUSH	0
   781 00000537 FF B5 FFFFF854                  	PUSH	DWORD [-1964+EBP]
   782 0000053D E8 [00000000]                   	CALL	_sheet_updown
   783 00000542 6A 01                           	PUSH	1
   784 00000544 FF B5 FFFFF81C                  	PUSH	DWORD [-2020+EBP]
   785 0000054A E8 [00000000]                   	CALL	_sheet_updown
   786 0000054F 68 000000ED                     	PUSH	237
   787 00000554 53                              	PUSH	EBX
   788 00000555 E8 [00000000]                   	CALL	_fifo32_put
   789 0000055A 83 C4 24                        	ADD	ESP,36
   790 0000055D FF B5 FFFFF808                  	PUSH	DWORD [-2040+EBP]
   791 00000563 53                              	PUSH	EBX
   792 00000564 E8 [00000000]                   	CALL	_fifo32_put
   793 00000569 68 00002D00                     	PUSH	11520
   794 0000056E 68 003C0000                     	PUSH	3932160
   795 00000573 E8 [00000000]                   	CALL	_memman_alloc_4k
   796 00000578 8D 95 FFFFF844                  	LEA	EDX,DWORD [-1980+EBP]
   797 0000057E 6A 00                           	PUSH	0
   798 00000580 89 C6                           	MOV	ESI,EAX
   799 00000582 6A 03                           	PUSH	3
   800 00000584 6A 07                           	PUSH	7
   801 00000586 50                              	PUSH	EAX
   802 00000587 68 00268000                     	PUSH	2523136
   803 0000058C 52                              	PUSH	EDX
   804 0000058D E8 [00000000]                   	CALL	_memmam_link_page_32_m
   805 00000592 83 C4 28                        	ADD	ESP,40
   806 00000595 68 00100200                     	PUSH	1049088
   807 0000059A 56                              	PUSH	ESI
   808 0000059B E8 [00000000]                   	CALL	_file_readfat
   809 000005A0 68 000000E0                     	PUSH	224
   810 000005A5 68 00102600                     	PUSH	1058304
   811 000005AA 68 [00000180]                   	PUSH	LC0
   812 000005AF E8 [00000000]                   	CALL	_file_search
   813 000005B4 83 C4 14                        	ADD	ESP,20
   814 000005B7 89 C2                           	MOV	EDX,EAX
   815 000005B9 85 C0                           	TEST	EAX,EAX
   816 000005BB 0F 84 00000ACE                  	JE	L10
   817 000005C1 8B 40 1C                        	MOV	EAX,DWORD [28+EAX]
   818 000005C4 56                              	PUSH	ESI
   819 000005C5 89 85 FFFFF840                  	MOV	DWORD [-1984+EBP],EAX
   820 000005CB 8D 85 FFFFF840                  	LEA	EAX,DWORD [-1984+EBP]
   821 000005D1 50                              	PUSH	EAX
   822 000005D2 0F B7 42 1A                     	MOVZX	EAX,WORD [26+EDX]
   823 000005D6 50                              	PUSH	EAX
   824 000005D7 E8 [00000000]                   	CALL	_file_loadfile2
   825 000005DC 83 C4 0C                        	ADD	ESP,12
   826 000005DF 89 C3                           	MOV	EBX,EAX
   827 000005E1                                 L11:
   828 000005E1 89 1D 00000FE8                  	MOV	DWORD [4072],EBX
   829 000005E7 31 C0                           	XOR	EAX,EAX
   830 000005E9 C7 85 FFFFF840 00000000         	MOV	DWORD [-1984+EBP],0
   831 000005F3                                 L26:
   832 000005F3 C1 E0 0C                        	SAL	EAX,12
   833 000005F6 6A 01                           	PUSH	1
   834 000005F8 8D 04 30                        	LEA	EAX,DWORD [EAX+ESI*1]
   835 000005FB 50                              	PUSH	EAX
   836 000005FC 8D 85 FFFFF844                  	LEA	EAX,DWORD [-1980+EBP]
   837 00000602 50                              	PUSH	EAX
   838 00000603 E8 [00000000]                   	CALL	_pageman_unlink_page_32
   839 00000608 8B 85 FFFFF840                  	MOV	EAX,DWORD [-1984+EBP]
   840 0000060E 40                              	INC	EAX
   841 0000060F 83 C4 0C                        	ADD	ESP,12
   842 00000612 89 85 FFFFF840                  	MOV	DWORD [-1984+EBP],EAX
   843 00000618 83 F8 02                        	CMP	EAX,2
   844 0000061B 7E D6                           	JLE	L26
   845 0000061D 68 00002D00                     	PUSH	11520
   846 00000622 56                              	PUSH	ESI
   847 00000623 68 003C0000                     	PUSH	3932160
   848 00000628 E8 [00000000]                   	CALL	_memman_free_4k
   849 0000062D E8 [00000000]                   	CALL	_system_start
   850 00000632                                 L131:
   851 00000632 83 C4 0C                        	ADD	ESP,12
   852 00000635                                 L27:
   853 00000635 8D 9D FFFFFF14                  	LEA	EBX,DWORD [-236+EBP]
   854 0000063B 53                              	PUSH	EBX
   855 0000063C E8 [00000000]                   	CALL	_fifo32_status
   856 00000641 5F                              	POP	EDI
   857 00000642 85 C0                           	TEST	EAX,EAX
   858 00000644 7E 0D                           	JLE	L30
   859 00000646 83 BD FFFFF804 00               	CMP	DWORD [-2044+EBP],0
   860 0000064D 0F 88 00000A16                  	JS	L135
   861 00000653                                 L30:
   862 00000653 8D 9D FFFFFF34                  	LEA	EBX,DWORD [-204+EBP]
   863 00000659 E8 [00000000]                   	CALL	_io_cli
   864 0000065E 53                              	PUSH	EBX
   865 0000065F E8 [00000000]                   	CALL	_fifo32_status
   866 00000664 5E                              	POP	ESI
   867 00000665 85 C0                           	TEST	EAX,EAX
   868 00000667 0F 84 0000099D                  	JE	L136
   869 0000066D 53                              	PUSH	EBX
   870 0000066E E8 [00000000]                   	CALL	_fifo32_get
   871 00000673 89 85 FFFFF840                  	MOV	DWORD [-1984+EBP],EAX
   872 00000679 E8 [00000000]                   	CALL	_io_sti
   873 0000067E 5B                              	POP	EBX
   874 0000067F 83 BD FFFFF7EC 00               	CMP	DWORD [-2068+EBP],0
   875 00000686 74 3F                           	JE	L37
   876 00000688 8B 95 FFFFF7EC                  	MOV	EDX,DWORD [-2068+EBP]
   877 0000068E 83 7A 20 00                     	CMP	DWORD [32+EDX],0
   878 00000692 75 33                           	JNE	L37
   879 00000694 8B 8D FFFFF83C                  	MOV	ECX,DWORD [-1988+EBP]
   880 0000069A C7 85 FFFFF7EC 00000000         	MOV	DWORD [-2068+EBP],0
   881 000006A4 8B 54 8D C4                     	MOV	EDX,DWORD [-60+EBP+ECX*4]
   882 000006A8 8B 82 00000414                  	MOV	EAX,DWORD [1044+EDX]
   883 000006AE 83 F8 01                        	CMP	EAX,1
   884 000006B1 74 14                           	JE	L37
   885 000006B3 8B 84 82 00000418               	MOV	EAX,DWORD [1048+EDX+EAX*4]
   886 000006BA 50                              	PUSH	EAX
   887 000006BB 89 85 FFFFF7EC                  	MOV	DWORD [-2068+EBP],EAX
   888 000006C1 E8 00000ACB                     	CALL	_keywin_on
   889 000006C6 59                              	POP	ECX
   890 000006C7                                 L37:
   891 000006C7 8B 95 FFFFF840                  	MOV	EDX,DWORD [-1984+EBP]
   892 000006CD 8D 82 FFFFFF00                  	LEA	EAX,DWORD [-256+EDX]
   893 000006D3 3D 000000FF                     	CMP	EAX,255
   894 000006D8 0F 86 00000436                  	JBE	L137
   895 000006DE 8D 82 FFFFFE00                  	LEA	EAX,DWORD [-512+EDX]
   896 000006E4 3D 000000FF                     	CMP	EAX,255
   897 000006E9 0F 86 000000CA                  	JBE	L138
   898 000006EF 8D 82 FFFFFD00                  	LEA	EAX,DWORD [-768+EDX]
   899 000006F5 3D 000000FF                     	CMP	EAX,255
   900 000006FA 0F 86 000000A1                  	JBE	L139
   901 00000700 8D 82 FFFFFC00                  	LEA	EAX,DWORD [-1024+EDX]
   902 00000706 3D 000003E7                     	CMP	EAX,999
   903 0000070B 76 76                           	JBE	L140
   904 0000070D 8D 82 FFFFF818                  	LEA	EAX,DWORD [-2024+EDX]
   905 00000713 3D 000000FF                     	CMP	EAX,255
   906 00000718 0F 87 FFFFFF17                  	JA	L27
   907 0000071E 8B 8D FFFFF83C                  	MOV	ECX,DWORD [-1988+EBP]
   908 00000724 C7 85 FFFFF840 00000000         	MOV	DWORD [-1984+EBP],0
   909 0000072E 8B 44 8D C4                     	MOV	EAX,DWORD [-60+EBP+ECX*4]
   910 00000732 8B 9C 90 FFFFE068               	MOV	EBX,DWORD [-8088+EAX+EDX*4]
   911 00000739 31 C0                           	XOR	EAX,EAX
   912 0000073B                                 L115:
   913 0000073B C1 E0 0C                        	SAL	EAX,12
   914 0000073E 6A 01                           	PUSH	1
   915 00000740 03 03                           	ADD	EAX,DWORD [EBX]
   916 00000742 50                              	PUSH	EAX
   917 00000743 8D 85 FFFFF844                  	LEA	EAX,DWORD [-1980+EBP]
   918 00000749 50                              	PUSH	EAX
   919 0000074A E8 [00000000]                   	CALL	_pageman_unlink_page_32
   920 0000074F 8B 85 FFFFF840                  	MOV	EAX,DWORD [-1984+EBP]
   921 00000755 40                              	INC	EAX
   922 00000756 83 C4 0C                        	ADD	ESP,12
   923 00000759 89 85 FFFFF840                  	MOV	DWORD [-1984+EBP],EAX
   924 0000075F 83 F8 0A                        	CMP	EAX,10
   925 00000762 7E D7                           	JLE	L115
   926 00000764 68 0000A500                     	PUSH	42240
   927 00000769 FF 33                           	PUSH	DWORD [EBX]
   928 0000076B 68 003C0000                     	PUSH	3932160
   929 00000770 E8 [00000000]                   	CALL	_memman_free_4k
   930 00000775 53                              	PUSH	EBX
   931 00000776 E8 [00000000]                   	CALL	_sheet_free
   932 0000077B 83 C4 10                        	ADD	ESP,16
   933 0000077E E9 FFFFFEB2                     	JMP	L27
   934 00000783                                 L140:
   935 00000783 69 D2 0000011C                  	IMUL	EDX,EDX,284
   936 00000789 03 15 [00000000]                	ADD	EDX,DWORD [_taskctl]
   937 0000078F 8D 82 FFFBA000                  	LEA	EAX,DWORD [-286720+EDX]
   938 00000795 50                              	PUSH	EAX
   939 00000796 E8 00000C7B                     	CALL	_close_constask
   940 0000079B                                 L130:
   941 0000079B 58                              	POP	EAX
   942 0000079C E9 FFFFFE94                     	JMP	L27
   943 000007A1                                 L139:
   944 000007A1 8B 8D FFFFF83C                  	MOV	ECX,DWORD [-1988+EBP]
   945 000007A7 8B 44 8D C4                     	MOV	EAX,DWORD [-60+EBP+ECX*4]
   946 000007AB FF B4 90 FFFFF408               	PUSH	DWORD [-3064+EAX+EDX*4]
   947 000007B2 E8 00000D25                     	CALL	_close_console
   948 000007B7 EB E2                           	JMP	L130
   949 000007B9                                 L138:
   950 000007B9 0F B6 85 FFFFF840               	MOVZX	EAX,BYTE [-1984+EBP]
   951 000007C0 50                              	PUSH	EAX
   952 000007C1 8D 85 FFFFFC84                  	LEA	EAX,DWORD [-892+EBP]
   953 000007C7 50                              	PUSH	EAX
   954 000007C8 E8 [00000000]                   	CALL	_mouse_decode
   955 000007CD 5A                              	POP	EDX
   956 000007CE 59                              	POP	ECX
   957 000007CF 85 C0                           	TEST	EAX,EAX
   958 000007D1 0F 84 FFFFFE5E                  	JE	L27
   959 000007D7 8B 85 FFFFFC8C                  	MOV	EAX,DWORD [-884+EBP]
   960 000007DD 8B 95 FFFFFC88                  	MOV	EDX,DWORD [-888+EBP]
   961 000007E3 01 85 FFFFF834                  	ADD	DWORD [-1996+EBP],EAX
   962 000007E9 01 95 FFFFF838                  	ADD	DWORD [-1992+EBP],EDX
   963 000007EF 0F 88 00000310                  	JS	L141
   964 000007F5                                 L80:
   965 000007F5 83 BD FFFFF834 00               	CMP	DWORD [-1996+EBP],0
   966 000007FC 0F 88 000002F4                  	JS	L142
   967 00000802                                 L81:
   968 00000802 0F BF 05 00000FF4               	MOVSX	EAX,WORD [4084]
   969 00000809 48                              	DEC	EAX
   970 0000080A 39 85 FFFFF838                  	CMP	DWORD [-1992+EBP],EAX
   971 00000810 7E 06                           	JLE	L82
   972 00000812 89 85 FFFFF838                  	MOV	DWORD [-1992+EBP],EAX
   973 00000818                                 L82:
   974 00000818 0F BF 05 00000FF6               	MOVSX	EAX,WORD [4086]
   975 0000081F 48                              	DEC	EAX
   976 00000820 39 85 FFFFF834                  	CMP	DWORD [-1996+EBP],EAX
   977 00000826 7E 06                           	JLE	L83
   978 00000828 89 85 FFFFF834                  	MOV	DWORD [-1996+EBP],EAX
   979 0000082E                                 L83:
   980 0000082E 8B 8D FFFFF838                  	MOV	ECX,DWORD [-1992+EBP]
   981 00000834 8B 85 FFFFF834                  	MOV	EAX,DWORD [-1996+EBP]
   982 0000083A 89 8D FFFFF830                  	MOV	DWORD [-2000+EBP],ECX
   983 00000840 89 85 FFFFF82C                  	MOV	DWORD [-2004+EBP],EAX
   984 00000846 F7 85 FFFFFC90 00000001         	TEST	DWORD [-880+EBP],1
   985 00000850 75 54                           	JNE	L143
   986 00000852 C7 85 FFFFF814 00000000         	MOV	DWORD [-2028+EBP],0
   987 0000085C C7 85 FFFFF810 00000000         	MOV	DWORD [-2032+EBP],0
   988 00000866 C7 85 FFFFF7FC FFFFFFFF         	MOV	DWORD [-2052+EBP],-1
   989 00000870 81 BD FFFFF828 7FFFFFFF         	CMP	DWORD [-2008+EBP],2147483647
   990 0000087A 0F 84 FFFFFDB5                  	JE	L27
   991 00000880                                 L132:
   992 00000880 FF B5 FFFFF824                  	PUSH	DWORD [-2012+EBP]
   993 00000886 FF B5 FFFFF828                  	PUSH	DWORD [-2008+EBP]
   994 0000088C FF B5 FFFFF7F0                  	PUSH	DWORD [-2064+EBP]
   995 00000892 E8 [00000000]                   	CALL	_sheet_slide
   996 00000897 C7 85 FFFFF828 7FFFFFFF         	MOV	DWORD [-2008+EBP],2147483647
   997 000008A1 E9 FFFFFD8C                     	JMP	L131
   998 000008A6                                 L143:
   999 000008A6 83 BD FFFFF7FC 00               	CMP	DWORD [-2052+EBP],0
  1000 000008AD 78 46                           	JS	L144
  1001 000008AF 8B 9D FFFFF838                  	MOV	EBX,DWORD [-1992+EBP]
  1002 000008B5 8B 8D FFFFF7F4                  	MOV	ECX,DWORD [-2060+EBP]
  1003 000008BB 2B 9D FFFFF7FC                  	SUB	EBX,DWORD [-2052+EBP]
  1004 000008C1 8B B5 FFFFF834                  	MOV	ESI,DWORD [-1996+EBP]
  1005 000008C7 2B B5 FFFFF7F8                  	SUB	ESI,DWORD [-2056+EBP]
  1006 000008CD 8B 85 FFFFF834                  	MOV	EAX,DWORD [-1996+EBP]
  1007 000008D3 8D 5C 0B 02                     	LEA	EBX,DWORD [2+EBX+ECX*1]
  1008 000008D7 89 85 FFFFF7F8                  	MOV	DWORD [-2056+EBP],EAX
  1009 000008DD 89 9D FFFFF828                  	MOV	DWORD [-2008+EBP],EBX
  1010 000008E3 01 B5 FFFFF824                  	ADD	DWORD [-2012+EBP],ESI
  1011 000008E9 83 A5 FFFFF828 FC               	AND	DWORD [-2008+EBP],-4
  1012 000008F0 E9 FFFFFD40                     	JMP	L27
  1013 000008F5                                 L144:
  1014 000008F5 8B 95 FFFFF83C                  	MOV	EDX,DWORD [-1988+EBP]
  1015 000008FB 8B 54 95 C4                     	MOV	EDX,DWORD [-60+EBP+EDX*4]
  1016 000008FF 89 95 FFFFF7E4                  	MOV	DWORD [-2076+EBP],EDX
  1017 00000905 8B BA 00000414                  	MOV	EDI,DWORD [1044+EDX]
  1018 0000090B 4F                              	DEC	EDI
  1019 0000090C 85 FF                           	TEST	EDI,EDI
  1020 0000090E 7E 59                           	JLE	L126
  1021 00000910                                 L100:
  1022 00000910 8B 8D FFFFF7E4                  	MOV	ECX,DWORD [-2076+EBP]
  1023 00000916 8B B5 FFFFF834                  	MOV	ESI,DWORD [-1996+EBP]
  1024 0000091C 8B 9D FFFFF838                  	MOV	EBX,DWORD [-1992+EBP]
  1025 00000922 8B 8C B9 0000041C               	MOV	ECX,DWORD [1052+ECX+EDI*4]
  1026 00000929 89 8D FFFFF7F0                  	MOV	DWORD [-2064+EBP],ECX
  1027 0000092F 2B 71 14                        	SUB	ESI,DWORD [20+ECX]
  1028 00000932 2B 59 10                        	SUB	EBX,DWORD [16+ECX]
  1029 00000935 78 2D                           	JS	L89
  1030 00000937 8B 41 08                        	MOV	EAX,DWORD [8+ECX]
  1031 0000093A 39 C3                           	CMP	EBX,EAX
  1032 0000093C 7D 26                           	JGE	L89
  1033 0000093E 85 F6                           	TEST	ESI,ESI
  1034 00000940 78 22                           	JS	L89
  1035 00000942 3B 71 0C                        	CMP	ESI,DWORD [12+ECX]
  1036 00000945 7D 1D                           	JGE	L89
  1037 00000947 0F AF C6                        	IMUL	EAX,ESI
  1038 0000094A 01 D8                           	ADD	EAX,EBX
  1039 0000094C 89 85 FFFFF7E0                  	MOV	DWORD [-2080+EBP],EAX
  1040 00000952 89 C8                           	MOV	EAX,ECX
  1041 00000954 8B 09                           	MOV	ECX,DWORD [ECX]
  1042 00000956 8B 50 18                        	MOV	EDX,DWORD [24+EAX]
  1043 00000959 8B 85 FFFFF7E0                  	MOV	EAX,DWORD [-2080+EBP]
  1044 0000095F 39 14 81                        	CMP	DWORD [ECX+EAX*4],EDX
  1045 00000962 75 14                           	JNE	L145
  1046 00000964                                 L89:
  1047 00000964 4F                              	DEC	EDI
  1048 00000965 85 FF                           	TEST	EDI,EDI
  1049 00000967 7F A7                           	JG	L100
  1050 00000969                                 L126:
  1051 00000969 C7 85 FFFFF814 FFFFFFFF         	MOV	DWORD [-2028+EBP],-1
  1052 00000973 E9 FFFFFCBD                     	JMP	L27
  1053 00000978                                 L145:
  1054 00000978 8B 95 FFFFF7F0                  	MOV	EDX,DWORD [-2064+EBP]
  1055 0000097E 39 95 FFFFF814                  	CMP	DWORD [-2028+EBP],EDX
  1056 00000984 74 13                           	JE	L93
  1057 00000986 83 BD FFFFF814 00               	CMP	DWORD [-2028+EBP],0
  1058 0000098D 74 0A                           	JE	L93
  1059 0000098F                                 L88:
  1060 0000098F 85 FF                           	TEST	EDI,EDI
  1061 00000991 0F 8F FFFFFC9E                  	JG	L27
  1062 00000997 EB D0                           	JMP	L126
  1063 00000999                                 L93:
  1064 00000999 8B 8D FFFFF7E4                  	MOV	ECX,DWORD [-2076+EBP]
  1065 0000099F 8B 81 00000414                  	MOV	EAX,DWORD [1044+ECX]
  1066 000009A5 48                              	DEC	EAX
  1067 000009A6 50                              	PUSH	EAX
  1068 000009A7 FF B5 FFFFF7F0                  	PUSH	DWORD [-2064+EBP]
  1069 000009AD E8 [00000000]                   	CALL	_sheet_updown
  1070 000009B2 59                              	POP	ECX
  1071 000009B3 58                              	POP	EAX
  1072 000009B4 8B 85 FFFFF7EC                  	MOV	EAX,DWORD [-2068+EBP]
  1073 000009BA 39 85 FFFFF7F0                  	CMP	DWORD [-2064+EBP],EAX
  1074 000009C0 74 1A                           	JE	L94
  1075 000009C2 50                              	PUSH	EAX
  1076 000009C3 E8 0000079B                     	CALL	_keywin_off
  1077 000009C8 8B 95 FFFFF7F0                  	MOV	EDX,DWORD [-2064+EBP]
  1078 000009CE 52                              	PUSH	EDX
  1079 000009CF 89 95 FFFFF7EC                  	MOV	DWORD [-2068+EBP],EDX
  1080 000009D5 E8 000007B7                     	CALL	_keywin_on
  1081 000009DA 58                              	POP	EAX
  1082 000009DB 5A                              	POP	EDX
  1083 000009DC                                 L94:
  1084 000009DC 83 FB 02                        	CMP	EBX,2
  1085 000009DF 0F 8E 00000102                  	JLE	L95
  1086 000009E5 8B 8D FFFFF7F0                  	MOV	ECX,DWORD [-2064+EBP]
  1087 000009EB 8B 41 08                        	MOV	EAX,DWORD [8+ECX]
  1088 000009EE 83 E8 03                        	SUB	EAX,3
  1089 000009F1 39 C3                           	CMP	EBX,EAX
  1090 000009F3 0F 8D 000000EE                  	JGE	L95
  1091 000009F9 83 FE 02                        	CMP	ESI,2
  1092 000009FC 0F 8E 000000E5                  	JLE	L95
  1093 00000A02 83 FE 14                        	CMP	ESI,20
  1094 00000A05 0F 8F 000000DC                  	JG	L95
  1095 00000A0B 83 BD FFFFF810 00               	CMP	DWORD [-2032+EBP],0
  1096 00000A12 0F 85 000000CF                  	JNE	L95
  1097 00000A18 8B 85 FFFFF838                  	MOV	EAX,DWORD [-1992+EBP]
  1098 00000A1E 8B 95 FFFFF834                  	MOV	EDX,DWORD [-1996+EBP]
  1099 00000A24 89 85 FFFFF7FC                  	MOV	DWORD [-2052+EBP],EAX
  1100 00000A2A 8B 49 10                        	MOV	ECX,DWORD [16+ECX]
  1101 00000A2D 8B 85 FFFFF7F0                  	MOV	EAX,DWORD [-2064+EBP]
  1102 00000A33 89 95 FFFFF7F8                  	MOV	DWORD [-2056+EBP],EDX
  1103 00000A39 89 8D FFFFF7F4                  	MOV	DWORD [-2060+EBP],ECX
  1104 00000A3F 8B 40 14                        	MOV	EAX,DWORD [20+EAX]
  1105 00000A42 89 85 FFFFF824                  	MOV	DWORD [-2012+EBP],EAX
  1106 00000A48                                 L96:
  1107 00000A48 8B 95 FFFFF7F0                  	MOV	EDX,DWORD [-2064+EBP]
  1108 00000A4E 8B 42 28                        	MOV	EAX,DWORD [40+EDX]
  1109 00000A51 83 B8 00000820 00               	CMP	DWORD [2080+EAX],0
  1110 00000A58 75 5A                           	JNE	L97
  1111 00000A5A 89 D1                           	MOV	ECX,EDX
  1112 00000A5C 8B 52 08                        	MOV	EDX,DWORD [8+EDX]
  1113 00000A5F 8D 42 EB                        	LEA	EAX,DWORD [-21+EDX]
  1114 00000A62 39 D8                           	CMP	EAX,EBX
  1115 00000A64 7F 4E                           	JG	L97
  1116 00000A66 8D 42 FB                        	LEA	EAX,DWORD [-5+EDX]
  1117 00000A69 39 C3                           	CMP	EBX,EAX
  1118 00000A6B 7D 47                           	JGE	L97
  1119 00000A6D 83 FE 04                        	CMP	ESI,4
  1120 00000A70 7E 42                           	JLE	L97
  1121 00000A72 83 FE 12                        	CMP	ESI,18
  1122 00000A75 7F 3D                           	JG	L97
  1123 00000A77 F6 41 20 10                     	TEST	BYTE [32+ECX],16
  1124 00000A7B 74 48                           	JE	L98
  1125 00000A7D 8B 71 30                        	MOV	ESI,DWORD [48+ECX]
  1126 00000A80 68 [0000018C]                   	PUSH	LC2
  1127 00000A85 FF B6 000000B4                  	PUSH	DWORD [180+ESI]
  1128 00000A8B E8 [00000000]                   	CALL	_cons_putstr0
  1129 00000A90 E8 [00000000]                   	CALL	_io_cli
  1130 00000A95 8D 46 30                        	LEA	EAX,DWORD [48+ESI]
  1131 00000A98 89 46 54                        	MOV	DWORD [84+ESI],EAX
  1132 00000A9B C7 46 4C [00000000]             	MOV	DWORD [76+ESI],_asm_end_app
  1133 00000AA2 E8 [00000000]                   	CALL	_io_sti
  1134 00000AA7 6A 00                           	PUSH	0
  1135 00000AA9 6A FF                           	PUSH	-1
  1136 00000AAB 56                              	PUSH	ESI
  1137 00000AAC E8 [00000000]                   	CALL	_task_run
  1138 00000AB1 83 C4 14                        	ADD	ESP,20
  1139 00000AB4                                 L97:
  1140 00000AB4 8B 95 FFFFF7F0                  	MOV	EDX,DWORD [-2064+EBP]
  1141 00000ABA 89 95 FFFFF814                  	MOV	DWORD [-2028+EBP],EDX
  1142 00000AC0 E9 FFFFFECA                     	JMP	L88
  1143 00000AC5                                 L98:
  1144 00000AC5 8B 85 FFFFF7F0                  	MOV	EAX,DWORD [-2064+EBP]
  1145 00000ACB 8B 70 30                        	MOV	ESI,DWORD [48+EAX]
  1146 00000ACE E8 [00000000]                   	CALL	_io_cli
  1147 00000AD3 6A 04                           	PUSH	4
  1148 00000AD5 8D 46 10                        	LEA	EAX,DWORD [16+ESI]
  1149 00000AD8 50                              	PUSH	EAX
  1150 00000AD9 E8 [00000000]                   	CALL	_fifo32_put
  1151 00000ADE E8 [00000000]                   	CALL	_io_sti
  1152 00000AE3 5A                              	POP	EDX
  1153 00000AE4 59                              	POP	ECX
  1154 00000AE5 EB CD                           	JMP	L97
  1155 00000AE7                                 L95:
  1156 00000AE7 C7 85 FFFFF810 FFFFFFFF         	MOV	DWORD [-2032+EBP],-1
  1157 00000AF1 E9 FFFFFF52                     	JMP	L96
  1158 00000AF6                                 L142:
  1159 00000AF6 C7 85 FFFFF834 00000000         	MOV	DWORD [-1996+EBP],0
  1160 00000B00 E9 FFFFFCFD                     	JMP	L81
  1161 00000B05                                 L141:
  1162 00000B05 C7 85 FFFFF838 00000000         	MOV	DWORD [-1992+EBP],0
  1163 00000B0F E9 FFFFFCE1                     	JMP	L80
  1164 00000B14                                 L137:
  1165 00000B14 81 FA 000001E0                  	CMP	EDX,480
  1166 00000B1A 0F 84 000004E0                  	JE	L146
  1167 00000B20 81 FA 0000017F                  	CMP	EDX,383
  1168 00000B26 0F 8F 000004C8                  	JG	L43
  1169 00000B2C 83 BD FFFFF80C 00               	CMP	DWORD [-2036+EBP],0
  1170 00000B33 0F 85 000004B0                  	JNE	L44
  1171 00000B39 8A 82 [FFFFFF00]                	MOV	AL,BYTE [_keytable0.0-256+EDX]
  1172 00000B3F                                 L133:
  1173 00000B3F 88 85 FFFFFF54                  	MOV	BYTE [-172+EBP],AL
  1174 00000B45                                 L42:
  1175 00000B45 8A 95 FFFFFF54                  	MOV	DL,BYTE [-172+EBP]
  1176 00000B4B 8D 42 BF                        	LEA	EAX,DWORD [-65+EDX]
  1177 00000B4E 3C 19                           	CMP	AL,25
  1178 00000B50 77 1D                           	JA	L47
  1179 00000B52 F7 85 FFFFF808 00000004         	TEST	DWORD [-2040+EBP],4
  1180 00000B5C 0F 85 00000478                  	JNE	L127
  1181 00000B62 83 BD FFFFF80C 00               	CMP	DWORD [-2036+EBP],0
  1182 00000B69 0F 84 0000045D                  	JE	L49
  1183 00000B6F                                 L47:
  1184 00000B6F 8A 85 FFFFFF54                  	MOV	AL,BYTE [-172+EBP]
  1185 00000B75 84 C0                           	TEST	AL,AL
  1186 00000B77 74 26                           	JE	L51
  1187 00000B79 83 BD FFFFF7EC 00               	CMP	DWORD [-2068+EBP],0
  1188 00000B80 74 1D                           	JE	L51
  1189 00000B82 0F BE C0                        	MOVSX	EAX,AL
  1190 00000B85 8B 95 FFFFF7EC                  	MOV	EDX,DWORD [-2068+EBP]
  1191 00000B8B 05 00000100                     	ADD	EAX,256
  1192 00000B90 50                              	PUSH	EAX
  1193 00000B91 8B 42 30                        	MOV	EAX,DWORD [48+EDX]
  1194 00000B94 83 C0 10                        	ADD	EAX,16
  1195 00000B97 50                              	PUSH	EAX
  1196 00000B98 E8 [00000000]                   	CALL	_fifo32_put
  1197 00000B9D 58                              	POP	EAX
  1198 00000B9E 5A                              	POP	EDX
  1199 00000B9F                                 L51:
  1200 00000B9F 81 BD FFFFF840 0000010F         	CMP	DWORD [-1984+EBP],271
  1201 00000BA9 0F 84 000003C4                  	JE	L147
  1202 00000BAF                                 L52:
  1203 00000BAF 8B 85 FFFFF840                  	MOV	EAX,DWORD [-1984+EBP]
  1204 00000BB5 3D 0000012A                     	CMP	EAX,298
  1205 00000BBA 0F 84 000003A7                  	JE	L148
  1206 00000BC0                                 L54:
  1207 00000BC0 3D 00000136                     	CMP	EAX,310
  1208 00000BC5 0F 84 00000390                  	JE	L149
  1209 00000BCB                                 L55:
  1210 00000BCB 3D 000001AA                     	CMP	EAX,426
  1211 00000BD0 0F 84 00000379                  	JE	L150
  1212 00000BD6                                 L56:
  1213 00000BD6 3D 000001B6                     	CMP	EAX,438
  1214 00000BDB 0F 84 00000362                  	JE	L151
  1215 00000BE1                                 L57:
  1216 00000BE1 3D 0000013A                     	CMP	EAX,314
  1217 00000BE6 0F 84 0000032B                  	JE	L152
  1218 00000BEC                                 L58:
  1219 00000BEC 81 BD FFFFF840 00000145         	CMP	DWORD [-1984+EBP],325
  1220 00000BF6 0F 84 000002EF                  	JE	L153
  1221 00000BFC                                 L59:
  1222 00000BFC 81 BD FFFFF840 00000146         	CMP	DWORD [-1984+EBP],326
  1223 00000C06 0F 84 000002B3                  	JE	L154
  1224 00000C0C                                 L60:
  1225 00000C0C 8B 85 FFFFF840                  	MOV	EAX,DWORD [-1984+EBP]
  1226 00000C12 3D 00000138                     	CMP	EAX,312
  1227 00000C17 0F 84 00000296                  	JE	L155
  1228 00000C1D                                 L63:
  1229 00000C1D 3D 000001B8                     	CMP	EAX,440
  1230 00000C22 0F 84 0000027F                  	JE	L156
  1231 00000C28                                 L64:
  1232 00000C28 83 BD FFFFF800 00               	CMP	DWORD [-2048+EBP],0
  1233 00000C2F 0F 84 000000C1                  	JE	L65
  1234 00000C35 3D 0000013A                     	CMP	EAX,314
  1235 00000C3A 0F 8E 000000B6                  	JLE	L65
  1236 00000C40 3D 00000144                     	CMP	EAX,324
  1237 00000C45 0F 8F 000000AB                  	JG	L65
  1238 00000C4B 8D 98 FFFFFEC5                  	LEA	EBX,DWORD [-315+EAX]
  1239 00000C51 3B 1D 0026F01C                  	CMP	EBX,DWORD [2551836]
  1240 00000C57 0F 8D 00000099                  	JGE	L65
  1241 00000C5D 83 BD FFFFF814 00               	CMP	DWORD [-2028+EBP],0
  1242 00000C64 0F 84 000001F1                  	JE	L67
  1243 00000C6A 6A FF                           	PUSH	-1
  1244 00000C6C FF B5 FFFFF814                  	PUSH	DWORD [-2028+EBP]
  1245 00000C72 E8 [00000000]                   	CALL	_sheet_updown
  1246 00000C77 8B 95 FFFFF814                  	MOV	EDX,DWORD [-2028+EBP]
  1247 00000C7D 8B 44 9D C4                     	MOV	EAX,DWORD [-60+EBP+EBX*4]
  1248 00000C81 89 42 28                        	MOV	DWORD [40+EDX],EAX
  1249 00000C84 8B 44 9D C4                     	MOV	EAX,DWORD [-60+EBP+EBX*4]
  1250 00000C88 C7 42 1C FFFFFFFF               	MOV	DWORD [28+EDX],-1
  1251 00000C8F 8B 80 00000414                  	MOV	EAX,DWORD [1044+EAX]
  1252 00000C95 40                              	INC	EAX
  1253 00000C96 50                              	PUSH	EAX
  1254 00000C97 52                              	PUSH	EDX
  1255 00000C98 E8 [00000000]                   	CALL	_sheet_updown
  1256 00000C9D 6A FF                           	PUSH	-1
  1257 00000C9F FF B5 FFFFF81C                  	PUSH	DWORD [-2020+EBP]
  1258 00000CA5 E8 [00000000]                   	CALL	_sheet_updown
  1259 00000CAA 8B 8D FFFFF81C                  	MOV	ECX,DWORD [-2020+EBP]
  1260 00000CB0 8B 44 9D C4                     	MOV	EAX,DWORD [-60+EBP+EBX*4]
  1261 00000CB4 89 41 28                        	MOV	DWORD [40+ECX],EAX
  1262 00000CB7 68 000000FF                     	PUSH	255
  1263 00000CBC 51                              	PUSH	ECX
  1264 00000CBD E8 [00000000]                   	CALL	_sheet_updown
  1265 00000CC2 83 C4 20                        	ADD	ESP,32
  1266 00000CC5                                 L68:
  1267 00000CC5 8B 44 9D C4                     	MOV	EAX,DWORD [-60+EBP+EBX*4]
  1268 00000CC9 89 9D FFFFF83C                  	MOV	DWORD [-1988+EBP],EBX
  1269 00000CCF A3 00000FE4                     	MOV	DWORD [4068],EAX
  1270 00000CD4 FF B0 00000414                  	PUSH	DWORD [1044+EAX]
  1271 00000CDA 6A 00                           	PUSH	0
  1272 00000CDC FF B0 00000410                  	PUSH	DWORD [1040+EAX]
  1273 00000CE2 FF B0 0000040C                  	PUSH	DWORD [1036+EAX]
  1274 00000CE8 6A 00                           	PUSH	0
  1275 00000CEA 6A 00                           	PUSH	0
  1276 00000CEC 50                              	PUSH	EAX
  1277 00000CED FF 90 00000824                  	CALL	DWORD [2084+EAX]
  1278 00000CF3 83 C4 1C                        	ADD	ESP,28
  1279 00000CF6                                 L65:
  1280 00000CF6 81 BD FFFFF840 0000013B         	CMP	DWORD [-1984+EBP],315
  1281 00000D00 0F 84 000000E7                  	JE	L157
  1282 00000D06                                 L70:
  1283 00000D06 81 BD FFFFF840 0000013C         	CMP	DWORD [-1984+EBP],316
  1284 00000D10 74 6A                           	JE	L158
  1285 00000D12                                 L72:
  1286 00000D12 81 BD FFFFF840 00000157         	CMP	DWORD [-1984+EBP],343
  1287 00000D1C 74 3D                           	JE	L159
  1288 00000D1E                                 L74:
  1289 00000D1E 8B 85 FFFFF840                  	MOV	EAX,DWORD [-1984+EBP]
  1290 00000D24 3D 000001FA                     	CMP	EAX,506
  1291 00000D29 74 24                           	JE	L160
  1292 00000D2B                                 L75:
  1293 00000D2B 3D 000001FE                     	CMP	EAX,510
  1294 00000D30 0F 85 FFFFF8FF                  	JNE	L27
  1295 00000D36 E8 [00000000]                   	CALL	_wait_KBC_sendready
  1296 00000D3B FF B5 FFFFF804                  	PUSH	DWORD [-2044+EBP]
  1297 00000D41 6A 60                           	PUSH	96
  1298 00000D43 E8 [00000000]                   	CALL	_io_out8
  1299 00000D48 5B                              	POP	EBX
  1300 00000D49 5E                              	POP	ESI
  1301 00000D4A E9 FFFFF8E6                     	JMP	L27
  1302 00000D4F                                 L160:
  1303 00000D4F C7 85 FFFFF804 FFFFFFFF         	MOV	DWORD [-2044+EBP],-1
  1304 00000D59 EB D0                           	JMP	L75
  1305 00000D5B                                 L159:
  1306 00000D5B 8B 8D FFFFF83C                  	MOV	ECX,DWORD [-1988+EBP]
  1307 00000D61 8B 54 8D C4                     	MOV	EDX,DWORD [-60+EBP+ECX*4]
  1308 00000D65 8B 82 00000414                  	MOV	EAX,DWORD [1044+EDX]
  1309 00000D6B 48                              	DEC	EAX
  1310 00000D6C 50                              	PUSH	EAX
  1311 00000D6D FF B2 00000420                  	PUSH	DWORD [1056+EDX]
  1312 00000D73 E8 [00000000]                   	CALL	_sheet_updown
  1313 00000D78 5F                              	POP	EDI
  1314 00000D79 58                              	POP	EAX
  1315 00000D7A EB A2                           	JMP	L74
  1316 00000D7C                                 L158:
  1317 00000D7C 83 BD FFFFF80C 00               	CMP	DWORD [-2036+EBP],0
  1318 00000D83 74 8D                           	JE	L72
  1319 00000D85 83 BD FFFFF7EC 00               	CMP	DWORD [-2068+EBP],0
  1320 00000D8C 74 0C                           	JE	L73
  1321 00000D8E FF B5 FFFFF7EC                  	PUSH	DWORD [-2068+EBP]
  1322 00000D94 E8 000003CA                     	CALL	_keywin_off
  1323 00000D99 58                              	POP	EAX
  1324 00000D9A                                 L73:
  1325 00000D9A 8B 85 FFFFF83C                  	MOV	EAX,DWORD [-1988+EBP]
  1326 00000DA0 FF B5 FFFFF820                  	PUSH	DWORD [-2016+EBP]
  1327 00000DA6 FF 74 85 C4                     	PUSH	DWORD [-60+EBP+EAX*4]
  1328 00000DAA E8 000005CE                     	CALL	_open_console
  1329 00000DAF 6A 20                           	PUSH	32
  1330 00000DB1 6A 20                           	PUSH	32
  1331 00000DB3 50                              	PUSH	EAX
  1332 00000DB4 89 85 FFFFF7EC                  	MOV	DWORD [-2068+EBP],EAX
  1333 00000DBA E8 [00000000]                   	CALL	_sheet_slide
  1334 00000DBF 8B 95 FFFFF83C                  	MOV	EDX,DWORD [-1988+EBP]
  1335 00000DC5 8B 44 95 C4                     	MOV	EAX,DWORD [-60+EBP+EDX*4]
  1336 00000DC9 FF B0 00000414                  	PUSH	DWORD [1044+EAX]
  1337 00000DCF FF B5 FFFFF7EC                  	PUSH	DWORD [-2068+EBP]
  1338 00000DD5 E8 [00000000]                   	CALL	_sheet_updown
  1339 00000DDA FF B5 FFFFF7EC                  	PUSH	DWORD [-2068+EBP]
  1340 00000DE0 E8 000003AC                     	CALL	_keywin_on
  1341 00000DE5 83 C4 20                        	ADD	ESP,32
  1342 00000DE8 E9 FFFFFF25                     	JMP	L72
  1343 00000DED                                 L157:
  1344 00000DED 83 BD FFFFF80C 00               	CMP	DWORD [-2036+EBP],0
  1345 00000DF4 0F 84 FFFFFF0C                  	JE	L70
  1346 00000DFA 83 BD FFFFF7EC 00               	CMP	DWORD [-2068+EBP],0
  1347 00000E01 0F 84 FFFFFEFF                  	JE	L70
  1348 00000E07 8B 8D FFFFF7EC                  	MOV	ECX,DWORD [-2068+EBP]
  1349 00000E0D 8B 71 30                        	MOV	ESI,DWORD [48+ECX]
  1350 00000E10 85 F6                           	TEST	ESI,ESI
  1351 00000E12 0F 84 FFFFFEEE                  	JE	L70
  1352 00000E18 83 7E 34 00                     	CMP	DWORD [52+ESI],0
  1353 00000E1C 0F 84 FFFFFEE4                  	JE	L70
  1354 00000E22 68 [0000019D]                   	PUSH	LC1
  1355 00000E27 FF B6 000000B4                  	PUSH	DWORD [180+ESI]
  1356 00000E2D E8 [00000000]                   	CALL	_cons_putstr0
  1357 00000E32 E8 [00000000]                   	CALL	_io_cli
  1358 00000E37 8D 46 30                        	LEA	EAX,DWORD [48+ESI]
  1359 00000E3A 89 46 54                        	MOV	DWORD [84+ESI],EAX
  1360 00000E3D C7 46 4C [00000000]             	MOV	DWORD [76+ESI],_asm_end_app
  1361 00000E44 E8 [00000000]                   	CALL	_io_sti
  1362 00000E49 6A 00                           	PUSH	0
  1363 00000E4B 6A FF                           	PUSH	-1
  1364 00000E4D 56                              	PUSH	ESI
  1365 00000E4E E8 [00000000]                   	CALL	_task_run
  1366 00000E53 83 C4 14                        	ADD	ESP,20
  1367 00000E56 E9 FFFFFEAB                     	JMP	L70
  1368 00000E5B                                 L67:
  1369 00000E5B 83 BD FFFFF7EC 00               	CMP	DWORD [-2068+EBP],0
  1370 00000E62 74 0C                           	JE	L69
  1371 00000E64 FF B5 FFFFF7EC                  	PUSH	DWORD [-2068+EBP]
  1372 00000E6A E8 000002F4                     	CALL	_keywin_off
  1373 00000E6F 58                              	POP	EAX
  1374 00000E70                                 L69:
  1375 00000E70 6A FF                           	PUSH	-1
  1376 00000E72 FF B5 FFFFF81C                  	PUSH	DWORD [-2020+EBP]
  1377 00000E78 C7 85 FFFFF7EC 00000000         	MOV	DWORD [-2068+EBP],0
  1378 00000E82 E8 [00000000]                   	CALL	_sheet_updown
  1379 00000E87 8B 95 FFFFF81C                  	MOV	EDX,DWORD [-2020+EBP]
  1380 00000E8D 8B 44 9D C4                     	MOV	EAX,DWORD [-60+EBP+EBX*4]
  1381 00000E91 89 42 28                        	MOV	DWORD [40+EDX],EAX
  1382 00000E94 68 000000FF                     	PUSH	255
  1383 00000E99 52                              	PUSH	EDX
  1384 00000E9A E8 [00000000]                   	CALL	_sheet_updown
  1385 00000E9F 83 C4 10                        	ADD	ESP,16
  1386 00000EA2 E9 FFFFFE1E                     	JMP	L68
  1387 00000EA7                                 L156:
  1388 00000EA7 83 A5 FFFFF800 FE               	AND	DWORD [-2048+EBP],-2
  1389 00000EAE E9 FFFFFD75                     	JMP	L64
  1390 00000EB3                                 L155:
  1391 00000EB3 83 8D FFFFF800 01               	OR	DWORD [-2048+EBP],1
  1392 00000EBA E9 FFFFFD5E                     	JMP	L63
  1393 00000EBF                                 L154:
  1394 00000EBF 68 000000ED                     	PUSH	237
  1395 00000EC4 8D 9D FFFFFF14                  	LEA	EBX,DWORD [-236+EBP]
  1396 00000ECA 53                              	PUSH	EBX
  1397 00000ECB 83 B5 FFFFF808 01               	XOR	DWORD [-2040+EBP],1
  1398 00000ED2 E8 [00000000]                   	CALL	_fifo32_put
  1399 00000ED7 FF B5 FFFFF808                  	PUSH	DWORD [-2040+EBP]
  1400 00000EDD 53                              	PUSH	EBX
  1401 00000EDE E8 [00000000]                   	CALL	_fifo32_put
  1402 00000EE3 83 C4 10                        	ADD	ESP,16
  1403 00000EE6 E9 FFFFFD21                     	JMP	L60
  1404 00000EEB                                 L153:
  1405 00000EEB 68 000000ED                     	PUSH	237
  1406 00000EF0 8D 9D FFFFFF14                  	LEA	EBX,DWORD [-236+EBP]
  1407 00000EF6 53                              	PUSH	EBX
  1408 00000EF7 83 B5 FFFFF808 02               	XOR	DWORD [-2040+EBP],2
  1409 00000EFE E8 [00000000]                   	CALL	_fifo32_put
  1410 00000F03 FF B5 FFFFF808                  	PUSH	DWORD [-2040+EBP]
  1411 00000F09 53                              	PUSH	EBX
  1412 00000F0A E8 [00000000]                   	CALL	_fifo32_put
  1413 00000F0F 83 C4 10                        	ADD	ESP,16
  1414 00000F12 E9 FFFFFCE5                     	JMP	L59
  1415 00000F17                                 L152:
  1416 00000F17 68 000000ED                     	PUSH	237
  1417 00000F1C 8D 9D FFFFFF14                  	LEA	EBX,DWORD [-236+EBP]
  1418 00000F22 53                              	PUSH	EBX
  1419 00000F23 83 B5 FFFFF808 04               	XOR	DWORD [-2040+EBP],4
  1420 00000F2A E8 [00000000]                   	CALL	_fifo32_put
  1421 00000F2F FF B5 FFFFF808                  	PUSH	DWORD [-2040+EBP]
  1422 00000F35 53                              	PUSH	EBX
  1423 00000F36 E8 [00000000]                   	CALL	_fifo32_put
  1424 00000F3B 83 C4 10                        	ADD	ESP,16
  1425 00000F3E E9 FFFFFCA9                     	JMP	L58
  1426 00000F43                                 L151:
  1427 00000F43 83 A5 FFFFF80C FD               	AND	DWORD [-2036+EBP],-3
  1428 00000F4A E9 FFFFFC92                     	JMP	L57
  1429 00000F4F                                 L150:
  1430 00000F4F 83 A5 FFFFF80C FE               	AND	DWORD [-2036+EBP],-2
  1431 00000F56 E9 FFFFFC7B                     	JMP	L56
  1432 00000F5B                                 L149:
  1433 00000F5B 83 8D FFFFF80C 02               	OR	DWORD [-2036+EBP],2
  1434 00000F62 E9 FFFFFC64                     	JMP	L55
  1435 00000F67                                 L148:
  1436 00000F67 83 8D FFFFF80C 01               	OR	DWORD [-2036+EBP],1
  1437 00000F6E E9 FFFFFC4D                     	JMP	L54
  1438 00000F73                                 L147:
  1439 00000F73 83 BD FFFFF7EC 00               	CMP	DWORD [-2068+EBP],0
  1440 00000F7A 0F 84 FFFFFC2F                  	JE	L52
  1441 00000F80 FF B5 FFFFF7EC                  	PUSH	DWORD [-2068+EBP]
  1442 00000F86 E8 000001D8                     	CALL	_keywin_off
  1443 00000F8B 8B 8D FFFFF7EC                  	MOV	ECX,DWORD [-2068+EBP]
  1444 00000F91 58                              	POP	EAX
  1445 00000F92 8B 79 1C                        	MOV	EDI,DWORD [28+ECX]
  1446 00000F95 4F                              	DEC	EDI
  1447 00000F96 75 11                           	JNE	L53
  1448 00000F98 8B 95 FFFFF83C                  	MOV	EDX,DWORD [-1988+EBP]
  1449 00000F9E 8B 44 95 C4                     	MOV	EAX,DWORD [-60+EBP+EDX*4]
  1450 00000FA2 8B B8 00000414                  	MOV	EDI,DWORD [1044+EAX]
  1451 00000FA8 4F                              	DEC	EDI
  1452 00000FA9                                 L53:
  1453 00000FA9 8B 8D FFFFF83C                  	MOV	ECX,DWORD [-1988+EBP]
  1454 00000FAF 8B 44 8D C4                     	MOV	EAX,DWORD [-60+EBP+ECX*4]
  1455 00000FB3 8B BC B8 0000041C               	MOV	EDI,DWORD [1052+EAX+EDI*4]
  1456 00000FBA 57                              	PUSH	EDI
  1457 00000FBB 89 BD FFFFF7EC                  	MOV	DWORD [-2068+EBP],EDI
  1458 00000FC1 E8 000001CB                     	CALL	_keywin_on
  1459 00000FC6 58                              	POP	EAX
  1460 00000FC7 E9 FFFFFBE3                     	JMP	L52
  1461 00000FCC                                 L49:
  1462 00000FCC 8D 42 20                        	LEA	EAX,DWORD [32+EDX]
  1463 00000FCF 88 85 FFFFFF54                  	MOV	BYTE [-172+EBP],AL
  1464 00000FD5 E9 FFFFFB95                     	JMP	L47
  1465 00000FDA                                 L127:
  1466 00000FDA 83 BD FFFFF80C 00               	CMP	DWORD [-2036+EBP],0
  1467 00000FE1 0F 84 FFFFFB88                  	JE	L47
  1468 00000FE7 EB E3                           	JMP	L49
  1469 00000FE9                                 L44:
  1470 00000FE9 8A 82 [FFFFFF80]                	MOV	AL,BYTE [_keytable1.1-256+EDX]
  1471 00000FEF E9 FFFFFB4B                     	JMP	L133
  1472 00000FF4                                 L43:
  1473 00000FF4 C6 85 FFFFFF54 00               	MOV	BYTE [-172+EBP],0
  1474 00000FFB E9 FFFFFB45                     	JMP	L42
  1475 00001000                                 L146:
  1476 00001000 A0 [000001E0]                   	MOV	AL,BYTE [_keytable2.2+224]
  1477 00001005 E9 FFFFFB35                     	JMP	L133
  1478 0000100A                                 L136:
  1479 0000100A 83 BD FFFFF830 00               	CMP	DWORD [-2000+EBP],0
  1480 00001011 79 2B                           	JNS	L161
  1481 00001013 81 BD FFFFF828 7FFFFFFF         	CMP	DWORD [-2008+EBP],2147483647
  1482 0000101D 75 15                           	JNE	L162
  1483 0000101F FF B5 FFFFF818                  	PUSH	DWORD [-2024+EBP]
  1484 00001025 E8 [00000000]                   	CALL	_task_sleep
  1485 0000102A E8 [00000000]                   	CALL	_io_sti
  1486 0000102F E9 FFFFF767                     	JMP	L130
  1487 00001034                                 L162:
  1488 00001034 E8 [00000000]                   	CALL	_io_sti
  1489 00001039 E9 FFFFF842                     	JMP	L132
  1490 0000103E                                 L161:
  1491 0000103E E8 [00000000]                   	CALL	_io_sti
  1492 00001043 FF B5 FFFFF82C                  	PUSH	DWORD [-2004+EBP]
  1493 00001049 FF B5 FFFFF830                  	PUSH	DWORD [-2000+EBP]
  1494 0000104F FF B5 FFFFF81C                  	PUSH	DWORD [-2020+EBP]
  1495 00001055 E8 [00000000]                   	CALL	_sheet_slide
  1496 0000105A C7 85 FFFFF830 FFFFFFFF         	MOV	DWORD [-2000+EBP],-1
  1497 00001064 E9 FFFFF5C9                     	JMP	L131
  1498 00001069                                 L135:
  1499 00001069 53                              	PUSH	EBX
  1500 0000106A E8 [00000000]                   	CALL	_fifo32_get
  1501 0000106F 89 85 FFFFF804                  	MOV	DWORD [-2044+EBP],EAX
  1502 00001075 E8 [00000000]                   	CALL	_wait_KBC_sendready
  1503 0000107A FF B5 FFFFF804                  	PUSH	DWORD [-2044+EBP]
  1504 00001080 6A 60                           	PUSH	96
  1505 00001082 E8 [00000000]                   	CALL	_io_out8
  1506 00001087 83 C4 0C                        	ADD	ESP,12
  1507 0000108A E9 FFFFF5C4                     	JMP	L30
  1508 0000108F                                 L10:
  1509 0000108F 68 00023840                     	PUSH	145472
  1510 00001094 68 003C0000                     	PUSH	3932160
  1511 00001099 E8 [00000000]                   	CALL	_memman_alloc_4k
  1512 0000109E 8D 8D FFFFF844                  	LEA	ECX,DWORD [-1980+EBP]
  1513 000010A4 6A 00                           	PUSH	0
  1514 000010A6 89 C3                           	MOV	EBX,EAX
  1515 000010A8 68 00005939                     	PUSH	22841
  1516 000010AD 6A 07                           	PUSH	7
  1517 000010AF 50                              	PUSH	EAX
  1518 000010B0 68 00268000                     	PUSH	2523136
  1519 000010B5 51                              	PUSH	ECX
  1520 000010B6 E8 [00000000]                   	CALL	_memmam_link_page_32_m
  1521 000010BB 31 D2                           	XOR	EDX,EDX
  1522 000010BD C7 85 FFFFF840 00000000         	MOV	DWORD [-1984+EBP],0
  1523 000010C7 83 C4 20                        	ADD	ESP,32
  1524 000010CA                                 L16:
  1525 000010CA 8A 82 [00000000]                	MOV	AL,BYTE [_hankaku+EDX]
  1526 000010D0 88 04 1A                        	MOV	BYTE [EDX+EBX*1],AL
  1527 000010D3 8B 85 FFFFF840                  	MOV	EAX,DWORD [-1984+EBP]
  1528 000010D9 40                              	INC	EAX
  1529 000010DA 89 85 FFFFF840                  	MOV	DWORD [-1984+EBP],EAX
  1530 000010E0 89 C2                           	MOV	EDX,EAX
  1531 000010E2 3D 00000FFF                     	CMP	EAX,4095
  1532 000010E7 7E E1                           	JLE	L16
  1533 000010E9 C7 85 FFFFF840 00001000         	MOV	DWORD [-1984+EBP],4096
  1534 000010F3 B8 00001000                     	MOV	EAX,4096
  1535 000010F8                                 L21:
  1536 000010F8 C6 04 18 FF                     	MOV	BYTE [EAX+EBX*1],-1
  1537 000010FC 8B 85 FFFFF840                  	MOV	EAX,DWORD [-1984+EBP]
  1538 00001102 40                              	INC	EAX
  1539 00001103 89 85 FFFFF840                  	MOV	DWORD [-1984+EBP],EAX
  1540 00001109 3D 0002383F                     	CMP	EAX,145471
  1541 0000110E 7E E8                           	JLE	L21
  1542 00001110 E9 FFFFF4CC                     	JMP	L11
  1543 00001115                                 L134:
  1544 00001115 68 FEE00000                     	PUSH	-18874368
  1545 0000111A E8 [00000000]                   	CALL	_init_apic
  1546 0000111F 58                              	POP	EAX
  1547 00001120 E9 FFFFF0BC                     	JMP	L3
  1548 00001125                                 	GLOBAL	_get_a_key
  1549 00001125                                 _get_a_key:
  1550 00001125 55                              	PUSH	EBP
  1551 00001126 89 E5                           	MOV	EBP,ESP
  1552 00001128 53                              	PUSH	EBX
  1553 00001129 8B 5D 08                        	MOV	EBX,DWORD [8+EBP]
  1554 0000112C E8 [00000000]                   	CALL	_io_cli
  1555 00001131 53                              	PUSH	EBX
  1556 00001132 E8 [00000000]                   	CALL	_fifo32_status
  1557 00001137 5A                              	POP	EDX
  1558 00001138 85 C0                           	TEST	EAX,EAX
  1559 0000113A 74 11                           	JE	L166
  1560 0000113C E8 [00000000]                   	CALL	_io_sti
  1561 00001141 89 5D 08                        	MOV	DWORD [8+EBP],EBX
  1562 00001144 8B 5D FC                        	MOV	EBX,DWORD [-4+EBP]
  1563 00001147 C9                              	LEAVE
  1564 00001148 E9 [00000000]                   	JMP	_fifo32_get
  1565 0000114D                                 L166:
  1566 0000114D E8 [00000000]                   	CALL	_io_sti
  1567 00001152 E8 [00000000]                   	CALL	_task_now
  1568 00001157 50                              	PUSH	EAX
  1569 00001158 E8 [00000000]                   	CALL	_task_sleep
  1570 0000115D 8B 5D FC                        	MOV	EBX,DWORD [-4+EBP]
  1571 00001160 58                              	POP	EAX
  1572 00001161 C9                              	LEAVE
  1573 00001162 C3                              	RET
  1574 00001163                                 	GLOBAL	_keywin_off
  1575 00001163                                 _keywin_off:
  1576 00001163 55                              	PUSH	EBP
  1577 00001164 89 E5                           	MOV	EBP,ESP
  1578 00001166 53                              	PUSH	EBX
  1579 00001167 6A 00                           	PUSH	0
  1580 00001169 8B 5D 08                        	MOV	EBX,DWORD [8+EBP]
  1581 0000116C 53                              	PUSH	EBX
  1582 0000116D E8 [00000000]                   	CALL	_change_wtitle32
  1583 00001172 F6 43 20 20                     	TEST	BYTE [32+EBX],32
  1584 00001176 58                              	POP	EAX
  1585 00001177 5A                              	POP	EDX
  1586 00001178 75 05                           	JNE	L169
  1587 0000117A                                 L167:
  1588 0000117A 8B 5D FC                        	MOV	EBX,DWORD [-4+EBP]
  1589 0000117D C9                              	LEAVE
  1590 0000117E C3                              	RET
  1591 0000117F                                 L169:
  1592 0000117F 6A 03                           	PUSH	3
  1593 00001181 8B 43 30                        	MOV	EAX,DWORD [48+EBX]
  1594 00001184 83 C0 10                        	ADD	EAX,16
  1595 00001187 50                              	PUSH	EAX
  1596 00001188 E8 [00000000]                   	CALL	_fifo32_put
  1597 0000118D 59                              	POP	ECX
  1598 0000118E 5B                              	POP	EBX
  1599 0000118F EB E9                           	JMP	L167
  1600 00001191                                 	GLOBAL	_keywin_on
  1601 00001191                                 _keywin_on:
  1602 00001191 55                              	PUSH	EBP
  1603 00001192 89 E5                           	MOV	EBP,ESP
  1604 00001194 53                              	PUSH	EBX
  1605 00001195 6A 01                           	PUSH	1
  1606 00001197 8B 5D 08                        	MOV	EBX,DWORD [8+EBP]
  1607 0000119A 53                              	PUSH	EBX
  1608 0000119B E8 [00000000]                   	CALL	_change_wtitle32
  1609 000011A0 F6 43 20 20                     	TEST	BYTE [32+EBX],32
  1610 000011A4 58                              	POP	EAX
  1611 000011A5 5A                              	POP	EDX
  1612 000011A6 75 05                           	JNE	L172
  1613 000011A8                                 L170:
  1614 000011A8 8B 5D FC                        	MOV	EBX,DWORD [-4+EBP]
  1615 000011AB C9                              	LEAVE
  1616 000011AC C3                              	RET
  1617 000011AD                                 L172:
  1618 000011AD 6A 02                           	PUSH	2
  1619 000011AF 8B 43 30                        	MOV	EAX,DWORD [48+EBX]
  1620 000011B2 83 C0 10                        	ADD	EAX,16
  1621 000011B5 50                              	PUSH	EAX
  1622 000011B6 E8 [00000000]                   	CALL	_fifo32_put
  1623 000011BB 59                              	POP	ECX
  1624 000011BC 5B                              	POP	EBX
  1625 000011BD EB E9                           	JMP	L170
  1626 000011BF                                 	GLOBAL	_open_constask
  1627 000011BF                                 _open_constask:
  1628 000011BF 55                              	PUSH	EBP
  1629 000011C0 89 E5                           	MOV	EBP,ESP
  1630 000011C2 57                              	PUSH	EDI
  1631 000011C3 56                              	PUSH	ESI
  1632 000011C4 53                              	PUSH	EBX
  1633 000011C5 83 EC 10                        	SUB	ESP,16
  1634 000011C8 A1 0026F000                     	MOV	EAX,DWORD [2551808]
  1635 000011CD 89 45 F0                        	MOV	DWORD [-16+EBP],EAX
  1636 000011D0 E8 [00000000]                   	CALL	_task_alloc
  1637 000011D5 89 C6                           	MOV	ESI,EAX
  1638 000011D7 E8 [00000000]                   	CALL	_task_now
  1639 000011DC 68 00000200                     	PUSH	512
  1640 000011E1 68 003C0000                     	PUSH	3932160
  1641 000011E6 89 45 EC                        	MOV	DWORD [-20+EBP],EAX
  1642 000011E9 E8 [00000000]                   	CALL	_memman_alloc_4k
  1643 000011EE 6A 00                           	PUSH	0
  1644 000011F0 6A 01                           	PUSH	1
  1645 000011F2 6A 07                           	PUSH	7
  1646 000011F4 89 45 E8                        	MOV	DWORD [-24+EBP],EAX
  1647 000011F7 50                              	PUSH	EAX
  1648 000011F8 68 00268000                     	PUSH	2523136
  1649 000011FD FF 75 F0                        	PUSH	DWORD [-16+EBP]
  1650 00001200 E8 [00000000]                   	CALL	_memmam_link_page_32_m
  1651 00001205 83 C4 20                        	ADD	ESP,32
  1652 00001208 68 00010000                     	PUSH	65536
  1653 0000120D 68 003C0000                     	PUSH	3932160
  1654 00001212 E8 [00000000]                   	CALL	_memman_alloc_4k
  1655 00001217 89 86 000000BC                  	MOV	DWORD [188+ESI],EAX
  1656 0000121D 6A 00                           	PUSH	0
  1657 0000121F 6A 10                           	PUSH	16
  1658 00001221 6A 07                           	PUSH	7
  1659 00001223 50                              	PUSH	EAX
  1660 00001224 FF 75 F0                        	PUSH	DWORD [-16+EBP]
  1661 00001227 E8 [00000000]                   	CALL	_pageman_link_page_32_m
  1662 0000122C 8B 86 000000BC                  	MOV	EAX,DWORD [188+ESI]
  1663 00001232 05 0000FFF4                     	ADD	EAX,65524
  1664 00001237 89 46 64                        	MOV	DWORD [100+ESI],EAX
  1665 0000123A C7 46 4C [00000000]             	MOV	DWORD [76+ESI],_console_task
  1666 00001241 C7 46 74 00000008               	MOV	DWORD [116+ESI],8
  1667 00001248 C7 46 78 00000010               	MOV	DWORD [120+ESI],16
  1668 0000124F C7 46 7C 00000008               	MOV	DWORD [124+ESI],8
  1669 00001256 C7 86 00000080 00000008         	MOV	DWORD [128+ESI],8
  1670 00001260 C7 86 00000084 00000008         	MOV	DWORD [132+ESI],8
  1671 0000126A C7 86 00000088 00000008         	MOV	DWORD [136+ESI],8
  1672 00001274 C7 86 000000F0 00000008         	MOV	DWORD [240+ESI],8
  1673 0000127E 68 00001000                     	PUSH	4096
  1674 00001283 68 003C0000                     	PUSH	3932160
  1675 00001288 E8 [00000000]                   	CALL	_memman_alloc_4k
  1676 0000128D 83 C4 24                        	ADD	ESP,36
  1677 00001290 FF 75 F0                        	PUSH	DWORD [-16+EBP]
  1678 00001293 89 C7                           	MOV	EDI,EAX
  1679 00001295 E8 [00000000]                   	CALL	_memman_alloc_page_32
  1680 0000129A 89 C3                           	MOV	EBX,EAX
  1681 0000129C 6A 01                           	PUSH	1
  1682 0000129E 83 CB 07                        	OR	EBX,7
  1683 000012A1 89 45 E4                        	MOV	DWORD [-28+EBP],EAX
  1684 000012A4 53                              	PUSH	EBX
  1685 000012A5 57                              	PUSH	EDI
  1686 000012A6 FF 75 F0                        	PUSH	DWORD [-16+EBP]
  1687 000012A9 E8 [00000000]                   	CALL	_pageman_link_page_32
  1688 000012AE 83 C4 14                        	ADD	ESP,20
  1689 000012B1 89 9F 00000FFC                  	MOV	DWORD [4092+EDI],EBX
  1690 000012B7 BA 00000C00                     	MOV	EDX,3072
  1691 000012BC                                 L178:
  1692 000012BC 8A 82 FFFFF000                  	MOV	AL,BYTE [-4096+EDX]
  1693 000012C2 88 04 3A                        	MOV	BYTE [EDX+EDI*1],AL
  1694 000012C5 42                              	INC	EDX
  1695 000012C6 81 FA 00000FFB                  	CMP	EDX,4091
  1696 000012CC 7E EE                           	JLE	L178
  1697 000012CE 31 D2                           	XOR	EDX,EDX
  1698 000012D0                                 L183:
  1699 000012D0 8B 04 95 FFFFF000               	MOV	EAX,DWORD [-4096+EDX*4]
  1700 000012D7 89 04 97                        	MOV	DWORD [EDI+EDX*4],EAX
  1701 000012DA 42                              	INC	EDX
  1702 000012DB 83 FA 02                        	CMP	EDX,2
  1703 000012DE 7E F0                           	JLE	L183
  1704 000012E0 81 65 E4 FFFFF000               	AND	DWORD [-28+EBP],-4096
  1705 000012E7 8B 45 E4                        	MOV	EAX,DWORD [-28+EBP]
  1706 000012EA 89 46 48                        	MOV	DWORD [72+ESI],EAX
  1707 000012ED 68 00007FE0                     	PUSH	32736
  1708 000012F2 68 003C0000                     	PUSH	3932160
  1709 000012F7 E8 [00000000]                   	CALL	_memman_alloc_4k
  1710 000012FC 89 86 00000104                  	MOV	DWORD [260+ESI],EAX
  1711 00001302 6A 00                           	PUSH	0
  1712 00001304 6A 08                           	PUSH	8
  1713 00001306 6A 07                           	PUSH	7
  1714 00001308 50                              	PUSH	EAX
  1715 00001309 68 00268000                     	PUSH	2523136
  1716 0000130E FF 75 F0                        	PUSH	DWORD [-16+EBP]
  1717 00001311 E8 [00000000]                   	CALL	_memmam_link_page_32_m
  1718 00001316 83 C4 20                        	ADD	ESP,32
  1719 00001319 FF B6 00000104                  	PUSH	DWORD [260+ESI]
  1720 0000131F E8 [00000000]                   	CALL	_memman_init
  1721 00001324 68 BFFFFFFF                     	PUSH	-1073741825
  1722 00001329 68 00C00000                     	PUSH	12582912
  1723 0000132E FF B6 00000104                  	PUSH	DWORD [260+ESI]
  1724 00001334 E8 [00000000]                   	CALL	_memman_free
  1725 00001339 8B 45 08                        	MOV	EAX,DWORD [8+EBP]
  1726 0000133C 8B 56 64                        	MOV	EDX,DWORD [100+ESI]
  1727 0000133F 89 42 04                        	MOV	DWORD [4+EDX],EAX
  1728 00001342 8B 56 64                        	MOV	EDX,DWORD [100+ESI]
  1729 00001345 8B 45 0C                        	MOV	EAX,DWORD [12+EBP]
  1730 00001348 89 42 08                        	MOV	DWORD [8+EDX],EAX
  1731 0000134B 56                              	PUSH	ESI
  1732 0000134C FF 75 EC                        	PUSH	DWORD [-20+EBP]
  1733 0000134F E8 [00000000]                   	CALL	_add_child_task
  1734 00001354 6A 02                           	PUSH	2
  1735 00001356 6A 02                           	PUSH	2
  1736 00001358 56                              	PUSH	ESI
  1737 00001359 E8 [00000000]                   	CALL	_task_run
  1738 0000135E 8D 46 10                        	LEA	EAX,DWORD [16+ESI]
  1739 00001361 83 C4 24                        	ADD	ESP,36
  1740 00001364 56                              	PUSH	ESI
  1741 00001365 FF 75 E8                        	PUSH	DWORD [-24+EBP]
  1742 00001368 68 00000080                     	PUSH	128
  1743 0000136D 50                              	PUSH	EAX
  1744 0000136E E8 [00000000]                   	CALL	_fifo32_init
  1745 00001373 8D 65 F4                        	LEA	ESP,DWORD [-12+EBP]
  1746 00001376 5B                              	POP	EBX
  1747 00001377 89 F0                           	MOV	EAX,ESI
  1748 00001379 5E                              	POP	ESI
  1749 0000137A 5F                              	POP	EDI
  1750 0000137B 5D                              	POP	EBP
  1751 0000137C C3                              	RET
  1752                                          [SECTION .data]
  1753 000001AC                                 LC3:
  1754 000001AC 63 6F 6E 73 6F 6C 65 00         	DB	"console",0x00
  1755                                          [SECTION .text]
  1756 0000137D                                 	GLOBAL	_open_console
  1757 0000137D                                 _open_console:
  1758 0000137D 55                              	PUSH	EBP
  1759 0000137E 89 E5                           	MOV	EBP,ESP
  1760 00001380 57                              	PUSH	EDI
  1761 00001381 56                              	PUSH	ESI
  1762 00001382 53                              	PUSH	EBX
  1763 00001383 8B 3D 0026F000                  	MOV	EDI,DWORD [2551808]
  1764 00001389 FF 75 08                        	PUSH	DWORD [8+EBP]
  1765 0000138C E8 [00000000]                   	CALL	_sheet_alloc
  1766 00001391 68 00029400                     	PUSH	168960
  1767 00001396 68 003C0000                     	PUSH	3932160
  1768 0000139B 89 C3                           	MOV	EBX,EAX
  1769 0000139D E8 [00000000]                   	CALL	_memman_alloc_4k
  1770 000013A2 6A 00                           	PUSH	0
  1771 000013A4 6A 2A                           	PUSH	42
  1772 000013A6 89 C6                           	MOV	ESI,EAX
  1773 000013A8 6A 07                           	PUSH	7
  1774 000013AA 50                              	PUSH	EAX
  1775 000013AB 68 00268000                     	PUSH	2523136
  1776 000013B0 57                              	PUSH	EDI
  1777 000013B1 E8 [00000000]                   	CALL	_memmam_link_page_32_m
  1778 000013B6 83 C4 24                        	ADD	ESP,36
  1779 000013B9 6A FF                           	PUSH	-1
  1780 000013BB 68 000000A5                     	PUSH	165
  1781 000013C0 68 00000100                     	PUSH	256
  1782 000013C5 56                              	PUSH	ESI
  1783 000013C6 53                              	PUSH	EBX
  1784 000013C7 E8 [00000000]                   	CALL	_sheet_setbuf
  1785 000013CC 6A 00                           	PUSH	0
  1786 000013CE 68 [000001AC]                   	PUSH	LC3
  1787 000013D3 68 000000A5                     	PUSH	165
  1788 000013D8 68 00000100                     	PUSH	256
  1789 000013DD 56                              	PUSH	ESI
  1790 000013DE E8 [00000000]                   	CALL	_make_window32
  1791 000013E3 83 C4 28                        	ADD	ESP,40
  1792 000013E6 6A 00                           	PUSH	0
  1793 000013E8 68 00000080                     	PUSH	128
  1794 000013ED 68 000000F0                     	PUSH	240
  1795 000013F2 6A 1C                           	PUSH	28
  1796 000013F4 6A 08                           	PUSH	8
  1797 000013F6 53                              	PUSH	EBX
  1798 000013F7 E8 [00000000]                   	CALL	_make_textbox32
  1799 000013FC FF 75 0C                        	PUSH	DWORD [12+EBP]
  1800 000013FF 53                              	PUSH	EBX
  1801 00001400 E8 FFFFFDBA                     	CALL	_open_constask
  1802 00001405 83 4B 20 20                     	OR	DWORD [32+EBX],32
  1803 00001409 89 43 30                        	MOV	DWORD [48+EBX],EAX
  1804 0000140C 8D 65 F4                        	LEA	ESP,DWORD [-12+EBP]
  1805 0000140F 89 D8                           	MOV	EAX,EBX
  1806 00001411 5B                              	POP	EBX
  1807 00001412 5E                              	POP	ESI
  1808 00001413 5F                              	POP	EDI
  1809 00001414 5D                              	POP	EBP
  1810 00001415 C3                              	RET
  1811 00001416                                 	GLOBAL	_close_constask
  1812 00001416                                 _close_constask:
  1813 00001416 55                              	PUSH	EBP
  1814 00001417 89 E5                           	MOV	EBP,ESP
  1815 00001419 57                              	PUSH	EDI
  1816 0000141A 56                              	PUSH	ESI
  1817 0000141B 31 F6                           	XOR	ESI,ESI
  1818 0000141D 53                              	PUSH	EBX
  1819 0000141E 53                              	PUSH	EBX
  1820 0000141F BB 00000007                     	MOV	EBX,7
  1821 00001424 8B 7D 08                        	MOV	EDI,DWORD [8+EBP]
  1822 00001427 A1 0026F000                     	MOV	EAX,DWORD [2551808]
  1823 0000142C 57                              	PUSH	EDI
  1824 0000142D 89 45 F0                        	MOV	DWORD [-16+EBP],EAX
  1825 00001430 E8 [00000000]                   	CALL	_task_sleep
  1826 00001435 59                              	POP	ECX
  1827 00001436                                 L194:
  1828 00001436 6A 01                           	PUSH	1
  1829 00001438 8B 87 00000104                  	MOV	EAX,DWORD [260+EDI]
  1830 0000143E 01 F0                           	ADD	EAX,ESI
  1831 00001440 81 C6 00001000                  	ADD	ESI,4096
  1832 00001446 50                              	PUSH	EAX
  1833 00001447 FF 75 F0                        	PUSH	DWORD [-16+EBP]
  1834 0000144A E8 [00000000]                   	CALL	_pageman_unlink_page_32
  1835 0000144F 83 C4 0C                        	ADD	ESP,12
  1836 00001452 4B                              	DEC	EBX
  1837 00001453 79 E1                           	JNS	L194
  1838 00001455 68 00007FE0                     	PUSH	32736
  1839 0000145A 31 F6                           	XOR	ESI,ESI
  1840 0000145C FF B7 00000104                  	PUSH	DWORD [260+EDI]
  1841 00001462 68 003C0000                     	PUSH	3932160
  1842 00001467 BB 0000000F                     	MOV	EBX,15
  1843 0000146C E8 [00000000]                   	CALL	_memman_free_4k
  1844 00001471 83 C4 0C                        	ADD	ESP,12
  1845 00001474                                 L199:
  1846 00001474 6A 01                           	PUSH	1
  1847 00001476 8B 87 000000BC                  	MOV	EAX,DWORD [188+EDI]
  1848 0000147C 01 F0                           	ADD	EAX,ESI
  1849 0000147E 81 C6 00001000                  	ADD	ESI,4096
  1850 00001484 50                              	PUSH	EAX
  1851 00001485 FF 75 F0                        	PUSH	DWORD [-16+EBP]
  1852 00001488 E8 [00000000]                   	CALL	_pageman_unlink_page_32
  1853 0000148D 83 C4 0C                        	ADD	ESP,12
  1854 00001490 4B                              	DEC	EBX
  1855 00001491 79 E1                           	JNS	L199
  1856 00001493 68 00010000                     	PUSH	65536
  1857 00001498 FF B7 000000BC                  	PUSH	DWORD [188+EDI]
  1858 0000149E 68 003C0000                     	PUSH	3932160
  1859 000014A3 E8 [00000000]                   	CALL	_memman_free_4k
  1860 000014A8 83 C4 0C                        	ADD	ESP,12
  1861 000014AB 6A 01                           	PUSH	1
  1862 000014AD FF 77 10                        	PUSH	DWORD [16+EDI]
  1863 000014B0 FF 75 F0                        	PUSH	DWORD [-16+EBP]
  1864 000014B3 E8 [00000000]                   	CALL	_pageman_unlink_page_32
  1865 000014B8 83 C4 0C                        	ADD	ESP,12
  1866 000014BB 68 00000200                     	PUSH	512
  1867 000014C0 FF 77 10                        	PUSH	DWORD [16+EDI]
  1868 000014C3 68 003C0000                     	PUSH	3932160
  1869 000014C8 E8 [00000000]                   	CALL	_memman_free_4k
  1870 000014CD C7 47 04 00000000               	MOV	DWORD [4+EDI],0
  1871 000014D4 8D 65 F4                        	LEA	ESP,DWORD [-12+EBP]
  1872 000014D7 5B                              	POP	EBX
  1873 000014D8 5E                              	POP	ESI
  1874 000014D9 5F                              	POP	EDI
  1875 000014DA 5D                              	POP	EBP
  1876 000014DB C3                              	RET
  1877 000014DC                                 	GLOBAL	_close_console
  1878 000014DC                                 _close_console:
  1879 000014DC 55                              	PUSH	EBP
  1880 000014DD 89 E5                           	MOV	EBP,ESP
  1881 000014DF 57                              	PUSH	EDI
  1882 000014E0 56                              	PUSH	ESI
  1883 000014E1 31 FF                           	XOR	EDI,EDI
  1884 000014E3 53                              	PUSH	EBX
  1885 000014E4 56                              	PUSH	ESI
  1886 000014E5 56                              	PUSH	ESI
  1887 000014E6 BE 0000000A                     	MOV	ESI,10
  1888 000014EB 8B 5D 08                        	MOV	EBX,DWORD [8+EBP]
  1889 000014EE A1 0026F000                     	MOV	EAX,DWORD [2551808]
  1890 000014F3 89 45 F0                        	MOV	DWORD [-16+EBP],EAX
  1891 000014F6 8B 43 30                        	MOV	EAX,DWORD [48+EBX]
  1892 000014F9 89 45 EC                        	MOV	DWORD [-20+EBP],EAX
  1893 000014FC                                 L216:
  1894 000014FC 6A 01                           	PUSH	1
  1895 000014FE 8B 03                           	MOV	EAX,DWORD [EBX]
  1896 00001500 01 F8                           	ADD	EAX,EDI
  1897 00001502 81 C7 00001000                  	ADD	EDI,4096
  1898 00001508 50                              	PUSH	EAX
  1899 00001509 FF 75 F0                        	PUSH	DWORD [-16+EBP]
  1900 0000150C E8 [00000000]                   	CALL	_pageman_unlink_page_32
  1901 00001511 83 C4 0C                        	ADD	ESP,12
  1902 00001514 4E                              	DEC	ESI
  1903 00001515 79 E5                           	JNS	L216
  1904 00001517 68 0000A500                     	PUSH	42240
  1905 0000151C FF 33                           	PUSH	DWORD [EBX]
  1906 0000151E 68 003C0000                     	PUSH	3932160
  1907 00001523 E8 [00000000]                   	CALL	_memman_free_4k
  1908 00001528 53                              	PUSH	EBX
  1909 00001529 E8 [00000000]                   	CALL	_sheet_free
  1910 0000152E 8B 45 EC                        	MOV	EAX,DWORD [-20+EBP]
  1911 00001531 89 45 08                        	MOV	DWORD [8+EBP],EAX
  1912 00001534 83 C4 10                        	ADD	ESP,16
  1913 00001537 8D 65 F4                        	LEA	ESP,DWORD [-12+EBP]
  1914 0000153A 5B                              	POP	EBX
  1915 0000153B 5E                              	POP	ESI
  1916 0000153C 5F                              	POP	EDI
  1917 0000153D 5D                              	POP	EBP
  1918 0000153E E9 FFFFFED3                     	JMP	_close_constask
  1919 00001543                                 	GLOBAL	_top_bar_task
  1920 00001543                                 _top_bar_task:
  1921 00001543 55                              	PUSH	EBP
  1922 00001544 89 E5                           	MOV	EBP,ESP
  1923 00001546 56                              	PUSH	ESI
  1924 00001547 53                              	PUSH	EBX
  1925 00001548 E8 [00000000]                   	CALL	_task_now
  1926 0000154D 89 C6                           	MOV	ESI,EAX
  1927 0000154F                                 L220:
  1928 0000154F 8D 5E 10                        	LEA	EBX,DWORD [16+ESI]
  1929 00001552 E8 [00000000]                   	CALL	_io_cli
  1930 00001557 53                              	PUSH	EBX
  1931 00001558 E8 [00000000]                   	CALL	_fifo32_status
  1932 0000155D 5A                              	POP	EDX
  1933 0000155E 85 C0                           	TEST	EAX,EAX
  1934 00001560 74 0E                           	JE	L226
  1935 00001562 53                              	PUSH	EBX
  1936 00001563 E8 [00000000]                   	CALL	_fifo32_get
  1937 00001568                                 L225:
  1938 00001568 E8 [00000000]                   	CALL	_io_sti
  1939 0000156D 58                              	POP	EAX
  1940 0000156E EB DF                           	JMP	L220
  1941 00001570                                 L226:
  1942 00001570 56                              	PUSH	ESI
  1943 00001571 E8 [00000000]                   	CALL	_task_sleep
  1944 00001576 EB F0                           	JMP	L225
