     1 00000000                                 [FORMAT "WCOFF"]
     2 00000000                                 [INSTRSET "i486p"]
     3 00000000                                 [OPTIMIZE 1]
     4 00000000                                 [OPTION 1]
     5 00000000                                 [BITS 32]
     6 00000000                                 	EXTERN	_init_gdtidt
     7 00000000                                 	EXTERN	_memman_init
     8 00000000                                 	EXTERN	_memman_free
     9 00000000                                 	EXTERN	_init_page
    10 00000000                                 	EXTERN	_memmam_link_page_32_m
    11 00000000                                 	EXTERN	_load_cr0
    12 00000000                                 	EXTERN	_store_cr3
    13 00000000                                 	EXTERN	_store_cr0
    14 00000000                                 	EXTERN	_load_gdtr
    15 00000000                                 	EXTERN	_load_idtr
    16 00000000                                 	EXTERN	_support_apic
    17 00000000                                 	EXTERN	_init_pic
    18 00000000                                 	EXTERN	_io_sti
    19 00000000                                 	EXTERN	_fifo32_init
    20 00000000                                 	EXTERN	_init_pit
    21 00000000                                 	EXTERN	_init_keyboard
    22 00000000                                 	EXTERN	_enable_mouse
    23 00000000                                 	EXTERN	_io_out8
    24 00000000                                 	EXTERN	_init_palette
    25 00000000                                 	EXTERN	_shtctl_init
    26 00000000                                 	EXTERN	_task_init
    27 00000000                                 	EXTERN	_task_run
    28 00000000                                 	EXTERN	_sheet_alloc
    29 00000000                                 	EXTERN	_memman_alloc_4k
    30 00000000                                 	EXTERN	_sheet_setbuf
    31 00000000                                 	EXTERN	_init_screen8
    32 00000000                                 	EXTERN	_init_mouse_cursor8
    33 00000000                                 	EXTERN	_sheet_slide
    34 00000000                                 	EXTERN	_sheet_updown
    35 00000000                                 	EXTERN	_fifo32_put
    36 00000000                                 	EXTERN	_file_readfat
    37 00000000                                 	EXTERN	_file_search
    38 00000000                                 	EXTERN	_file_loadfile2
    39 00000000                                 	EXTERN	_memman_unlink_page_32
    40 00000000                                 	EXTERN	_memman_free_page_32
    41 00000000                                 	EXTERN	_memman_free_4k
    42 00000000                                 	EXTERN	_fifo32_status
    43 00000000                                 	EXTERN	_io_cli
    44 00000000                                 	EXTERN	_fifo32_get
    45 00000000                                 	EXTERN	_sheet_free
    46 00000000                                 	EXTERN	_taskctl
    47 00000000                                 	EXTERN	_mouse_decode
    48 00000000                                 	EXTERN	_cons_putstr0
    49 00000000                                 	EXTERN	_asm_end_app
    50 00000000                                 	EXTERN	_keytable0.0
    51 00000000                                 	EXTERN	_wait_KBC_sendready
    52 00000000                                 	EXTERN	_keytable1.1
    53 00000000                                 	EXTERN	_task_sleep
    54 00000000                                 	EXTERN	_hankaku
    55 00000000                                 	EXTERN	_init_apic
    56 00000000                                 	EXTERN	_change_wtitle8
    57 00000000                                 	EXTERN	_task_alloc
    58 00000000                                 	EXTERN	_task_now
    59 00000000                                 	EXTERN	_pageman_link_page_32_m
    60 00000000                                 	EXTERN	_console_task
    61 00000000                                 	EXTERN	_memman_alloc_page_32
    62 00000000                                 	EXTERN	_pageman_link_page_32
    63 00000000                                 	EXTERN	_add_child_task
    64 00000000                                 	EXTERN	_make_window8
    65 00000000                                 	EXTERN	_make_textbox8
    66 00000000                                 [FILE "bootpack.c"]
    67                                          [SECTION .data]
    68 00000000                                 _keytable0.0:
    69 00000000 00                              	DB	0
    70 00000001 00                              	DB	0
    71 00000002 31                              	DB	49
    72 00000003 32                              	DB	50
    73 00000004 33                              	DB	51
    74 00000005 34                              	DB	52
    75 00000006 35                              	DB	53
    76 00000007 36                              	DB	54
    77 00000008 37                              	DB	55
    78 00000009 38                              	DB	56
    79 0000000A 39                              	DB	57
    80 0000000B 30                              	DB	48
    81 0000000C 2D                              	DB	45
    82 0000000D 5E                              	DB	94
    83 0000000E 08                              	DB	8
    84 0000000F 00                              	DB	0
    85 00000010 51                              	DB	81
    86 00000011 57                              	DB	87
    87 00000012 45                              	DB	69
    88 00000013 52                              	DB	82
    89 00000014 54                              	DB	84
    90 00000015 59                              	DB	89
    91 00000016 55                              	DB	85
    92 00000017 49                              	DB	73
    93 00000018 4F                              	DB	79
    94 00000019 50                              	DB	80
    95 0000001A 40                              	DB	64
    96 0000001B 5B                              	DB	91
    97 0000001C 0A                              	DB	10
    98 0000001D 00                              	DB	0
    99 0000001E 41                              	DB	65
   100 0000001F 53                              	DB	83
   101 00000020 44                              	DB	68
   102 00000021 46                              	DB	70
   103 00000022 47                              	DB	71
   104 00000023 48                              	DB	72
   105 00000024 4A                              	DB	74
   106 00000025 4B                              	DB	75
   107 00000026 4C                              	DB	76
   108 00000027 3B                              	DB	59
   109 00000028 3A                              	DB	58
   110 00000029 00                              	DB	0
   111 0000002A 00                              	DB	0
   112 0000002B 5D                              	DB	93
   113 0000002C 5A                              	DB	90
   114 0000002D 58                              	DB	88
   115 0000002E 43                              	DB	67
   116 0000002F 56                              	DB	86
   117 00000030 42                              	DB	66
   118 00000031 4E                              	DB	78
   119 00000032 4D                              	DB	77
   120 00000033 2C                              	DB	44
   121 00000034 2E                              	DB	46
   122 00000035 2F                              	DB	47
   123 00000036 00                              	DB	0
   124 00000037 2A                              	DB	42
   125 00000038 00                              	DB	0
   126 00000039 20                              	DB	32
   127 0000003A 00                              	DB	0
   128 0000003B 00                              	DB	0
   129 0000003C 00                              	DB	0
   130 0000003D 00                              	DB	0
   131 0000003E 00                              	DB	0
   132 0000003F 00                              	DB	0
   133 00000040 00                              	DB	0
   134 00000041 00                              	DB	0
   135 00000042 00                              	DB	0
   136 00000043 00                              	DB	0
   137 00000044 00                              	DB	0
   138 00000045 00                              	DB	0
   139 00000046 00                              	DB	0
   140 00000047 37                              	DB	55
   141 00000048 38                              	DB	56
   142 00000049 39                              	DB	57
   143 0000004A 2D                              	DB	45
   144 0000004B 34                              	DB	52
   145 0000004C 35                              	DB	53
   146 0000004D 36                              	DB	54
   147 0000004E 2B                              	DB	43
   148 0000004F 31                              	DB	49
   149 00000050 32                              	DB	50
   150 00000051 33                              	DB	51
   151 00000052 30                              	DB	48
   152 00000053 2E                              	DB	46
   153 00000054 00                              	DB	0
   154 00000055 00                              	DB	0
   155 00000056 00                              	DB	0
   156 00000057 00                              	DB	0
   157 00000058 00                              	DB	0
   158 00000059 00                              	DB	0
   159 0000005A 00                              	DB	0
   160 0000005B 00                              	DB	0
   161 0000005C 00                              	DB	0
   162 0000005D 00                              	DB	0
   163 0000005E 00                              	DB	0
   164 0000005F 00                              	DB	0
   165 00000060 00                              	DB	0
   166 00000061 00                              	DB	0
   167 00000062 00                              	DB	0
   168 00000063 00                              	DB	0
   169 00000064 00                              	DB	0
   170 00000065 00                              	DB	0
   171 00000066 00                              	DB	0
   172 00000067 00                              	DB	0
   173 00000068 00                              	DB	0
   174 00000069 00                              	DB	0
   175 0000006A 00                              	DB	0
   176 0000006B 00                              	DB	0
   177 0000006C 00                              	DB	0
   178 0000006D 00                              	DB	0
   179 0000006E 00                              	DB	0
   180 0000006F 00                              	DB	0
   181 00000070 00                              	DB	0
   182 00000071 00                              	DB	0
   183 00000072 00                              	DB	0
   184 00000073 5C                              	DB	92
   185 00000074 00                              	DB	0
   186 00000075 00                              	DB	0
   187 00000076 00                              	DB	0
   188 00000077 00                              	DB	0
   189 00000078 00                              	DB	0
   190 00000079 00                              	DB	0
   191 0000007A 00                              	DB	0
   192 0000007B 00                              	DB	0
   193 0000007C 00                              	DB	0
   194 0000007D 5C                              	DB	92
   195 0000007E 00                              	DB	0
   196 0000007F 00                              	DB	0
   197 00000080                                 _keytable1.1:
   198 00000080 00                              	DB	0
   199 00000081 00                              	DB	0
   200 00000082 21                              	DB	33
   201 00000083 22                              	DB	34
   202 00000084 23                              	DB	35
   203 00000085 24                              	DB	36
   204 00000086 25                              	DB	37
   205 00000087 26                              	DB	38
   206 00000088 27                              	DB	39
   207 00000089 28                              	DB	40
   208 0000008A 29                              	DB	41
   209 0000008B 7E                              	DB	126
   210 0000008C 3D                              	DB	61
   211 0000008D 7E                              	DB	126
   212 0000008E 08                              	DB	8
   213 0000008F 00                              	DB	0
   214 00000090 51                              	DB	81
   215 00000091 57                              	DB	87
   216 00000092 45                              	DB	69
   217 00000093 52                              	DB	82
   218 00000094 54                              	DB	84
   219 00000095 59                              	DB	89
   220 00000096 55                              	DB	85
   221 00000097 49                              	DB	73
   222 00000098 4F                              	DB	79
   223 00000099 50                              	DB	80
   224 0000009A 60                              	DB	96
   225 0000009B 7B                              	DB	123
   226 0000009C 0A                              	DB	10
   227 0000009D 00                              	DB	0
   228 0000009E 41                              	DB	65
   229 0000009F 53                              	DB	83
   230 000000A0 44                              	DB	68
   231 000000A1 46                              	DB	70
   232 000000A2 47                              	DB	71
   233 000000A3 48                              	DB	72
   234 000000A4 4A                              	DB	74
   235 000000A5 4B                              	DB	75
   236 000000A6 4C                              	DB	76
   237 000000A7 2B                              	DB	43
   238 000000A8 2A                              	DB	42
   239 000000A9 00                              	DB	0
   240 000000AA 00                              	DB	0
   241 000000AB 7D                              	DB	125
   242 000000AC 5A                              	DB	90
   243 000000AD 58                              	DB	88
   244 000000AE 43                              	DB	67
   245 000000AF 56                              	DB	86
   246 000000B0 42                              	DB	66
   247 000000B1 4E                              	DB	78
   248 000000B2 4D                              	DB	77
   249 000000B3 3C                              	DB	60
   250 000000B4 3E                              	DB	62
   251 000000B5 3F                              	DB	63
   252 000000B6 00                              	DB	0
   253 000000B7 2A                              	DB	42
   254 000000B8 00                              	DB	0
   255 000000B9 20                              	DB	32
   256 000000BA 00                              	DB	0
   257 000000BB 00                              	DB	0
   258 000000BC 00                              	DB	0
   259 000000BD 00                              	DB	0
   260 000000BE 00                              	DB	0
   261 000000BF 00                              	DB	0
   262 000000C0 00                              	DB	0
   263 000000C1 00                              	DB	0
   264 000000C2 00                              	DB	0
   265 000000C3 00                              	DB	0
   266 000000C4 00                              	DB	0
   267 000000C5 00                              	DB	0
   268 000000C6 00                              	DB	0
   269 000000C7 37                              	DB	55
   270 000000C8 38                              	DB	56
   271 000000C9 39                              	DB	57
   272 000000CA 2D                              	DB	45
   273 000000CB 34                              	DB	52
   274 000000CC 35                              	DB	53
   275 000000CD 36                              	DB	54
   276 000000CE 2B                              	DB	43
   277 000000CF 31                              	DB	49
   278 000000D0 32                              	DB	50
   279 000000D1 33                              	DB	51
   280 000000D2 30                              	DB	48
   281 000000D3 2E                              	DB	46
   282 000000D4 00                              	DB	0
   283 000000D5 00                              	DB	0
   284 000000D6 00                              	DB	0
   285 000000D7 00                              	DB	0
   286 000000D8 00                              	DB	0
   287 000000D9 00                              	DB	0
   288 000000DA 00                              	DB	0
   289 000000DB 00                              	DB	0
   290 000000DC 00                              	DB	0
   291 000000DD 00                              	DB	0
   292 000000DE 00                              	DB	0
   293 000000DF 00                              	DB	0
   294 000000E0 00                              	DB	0
   295 000000E1 00                              	DB	0
   296 000000E2 00                              	DB	0
   297 000000E3 00                              	DB	0
   298 000000E4 00                              	DB	0
   299 000000E5 00                              	DB	0
   300 000000E6 00                              	DB	0
   301 000000E7 00                              	DB	0
   302 000000E8 00                              	DB	0
   303 000000E9 00                              	DB	0
   304 000000EA 00                              	DB	0
   305 000000EB 00                              	DB	0
   306 000000EC 00                              	DB	0
   307 000000ED 00                              	DB	0
   308 000000EE 00                              	DB	0
   309 000000EF 00                              	DB	0
   310 000000F0 00                              	DB	0
   311 000000F1 00                              	DB	0
   312 000000F2 00                              	DB	0
   313 000000F3 5F                              	DB	95
   314 000000F4 00                              	DB	0
   315 000000F5 00                              	DB	0
   316 000000F6 00                              	DB	0
   317 000000F7 00                              	DB	0
   318 000000F8 00                              	DB	0
   319 000000F9 00                              	DB	0
   320 000000FA 00                              	DB	0
   321 000000FB 00                              	DB	0
   322 000000FC 00                              	DB	0
   323 000000FD 7C                              	DB	124
   324 000000FE 00                              	DB	0
   325 000000FF 00                              	DB	0
   326 00000100                                 LC0:
   327 00000100 6E 69 68 6F 6E 67 6F 2E 66 6E   	DB	"nihongo.fnt",0x00
       0000010A 74 00 
   328 0000010C                                 LC2:
   329 0000010C 0A 42 72 65 61 6B 28 6D 6F 75   	DB	0x0A,"Break(mouse) :",0x0A,0x00
       00000116 73 65 29 20 3A 0A 00 
   330 0000011D                                 LC1:
   331 0000011D 0A 42 72 65 61 6B 28 6B 65 79   	DB	0x0A,"Break(key) :",0x0A,0x00
       00000127 29 20 3A 0A 00 
   332                                          [SECTION .text]
   333 00000000                                 	GLOBAL	_HariMain
   334 00000000                                 _HariMain:
   335 00000000 55                              	PUSH	EBP
   336 00000001 89 E5                           	MOV	EBP,ESP
   337 00000003 57                              	PUSH	EDI
   338 00000004 56                              	PUSH	ESI
   339 00000005 53                              	PUSH	EBX
   340 00000006 81 EC 00000464                  	SUB	ESP,1124
   341 0000000C C7 85 FFFFFBD0 FFFFFFFF         	MOV	DWORD [-1072+EBP],-1
   342 00000016 C7 85 FFFFFBCC 00000000         	MOV	DWORD [-1076+EBP],0
   343 00000020 C7 85 FFFFFBC8 7FFFFFFF         	MOV	DWORD [-1080+EBP],2147483647
   344 0000002A C7 85 FFFFFBC4 00000000         	MOV	DWORD [-1084+EBP],0
   345 00000034 C7 85 FFFFFBB4 00000000         	MOV	DWORD [-1100+EBP],0
   346 0000003E A0 00000FF1                     	MOV	AL,BYTE [4081]
   347 00000043 C0 F8 04                        	SAR	AL,4
   348 00000046 89 C2                           	MOV	EDX,EAX
   349 00000048 83 E2 07                        	AND	EDX,7
   350 0000004B 89 95 FFFFFBB0                  	MOV	DWORD [-1104+EBP],EDX
   351 00000051 C7 85 FFFFFBAC FFFFFFFF         	MOV	DWORD [-1108+EBP],-1
   352 0000005B C7 85 FFFFFBA8 FFFFFFFF         	MOV	DWORD [-1112+EBP],-1
   353 00000065 C7 85 FFFFFBA4 FFFFFFFF         	MOV	DWORD [-1116+EBP],-1
   354 0000006F C7 85 FFFFFBA0 00000000         	MOV	DWORD [-1120+EBP],0
   355 00000079 C7 85 FFFFFB9C 00000000         	MOV	DWORD [-1124+EBP],0
   356 00000083 E8 [00000000]                   	CALL	_init_gdtidt
   357 00000088 68 003C0000                     	PUSH	3932160
   358 0000008D E8 [00000000]                   	CALL	_memman_init
   359 00000092 68 DFFFFFFF                     	PUSH	-536870913
   360 00000097 68 C0200000                     	PUSH	-1071644672
   361 0000009C 68 003C0000                     	PUSH	3932160
   362 000000A1 E8 [00000000]                   	CALL	_memman_free
   363 000000A6 8D 85 FFFFFCE4                  	LEA	EAX,DWORD [-796+EBP]
   364 000000AC 50                              	PUSH	EAX
   365 000000AD E8 [00000000]                   	CALL	_init_page
   366 000000B2 8D 95 FFFFFCE4                  	LEA	EDX,DWORD [-796+EBP]
   367 000000B8 6A 01                           	PUSH	1
   368 000000BA 6A 10                           	PUSH	16
   369 000000BC 68 00270007                     	PUSH	2555911
   370 000000C1 68 C0000000                     	PUSH	-1073741824
   371 000000C6 68 00268000                     	PUSH	2523136
   372 000000CB 52                              	PUSH	EDX
   373 000000CC E8 [00000000]                   	CALL	_memmam_link_page_32_m
   374 000000D1 8D 85 FFFFFCE4                  	LEA	EAX,DWORD [-796+EBP]
   375 000000D7 83 C4 2C                        	ADD	ESP,44
   376 000000DA 6A 01                           	PUSH	1
   377 000000DC 6A 01                           	PUSH	1
   378 000000DE 68 0026F007                     	PUSH	2551815
   379 000000E3 68 C0020000                     	PUSH	-1073610752
   380 000000E8 68 00268000                     	PUSH	2523136
   381 000000ED 50                              	PUSH	EAX
   382 000000EE E8 [00000000]                   	CALL	_memmam_link_page_32_m
   383 000000F3 8D 95 FFFFFCE4                  	LEA	EDX,DWORD [-796+EBP]
   384 000000F9 6A 01                           	PUSH	1
   385 000000FB 68 00000080                     	PUSH	128
   386 00000100 68 00280007                     	PUSH	2621447
   387 00000105 68 C0100000                     	PUSH	-1072693248
   388 0000010A 68 00268000                     	PUSH	2523136
   389 0000010F 52                              	PUSH	EDX
   390 00000110 E8 [00000000]                   	CALL	_memmam_link_page_32_m
   391 00000115 8D 85 FFFFFCE4                  	LEA	EAX,DWORD [-796+EBP]
   392 0000011B 83 C4 30                        	ADD	ESP,48
   393 0000011E 6A 01                           	PUSH	1
   394 00000120 68 00000900                     	PUSH	2304
   395 00000125 6A 07                           	PUSH	7
   396 00000127 6A 07                           	PUSH	7
   397 00000129 68 00268000                     	PUSH	2523136
   398 0000012E 50                              	PUSH	EAX
   399 0000012F E8 [00000000]                   	CALL	_memmam_link_page_32_m
   400 00000134 8D 95 FFFFFCE4                  	LEA	EDX,DWORD [-796+EBP]
   401 0000013A 6A 01                           	PUSH	1
   402 0000013C 68 0001FC00                     	PUSH	130048
   403 00000141 68 E0000007                     	PUSH	-536870905
   404 00000146 68 E0000000                     	PUSH	-536870912
   405 0000014B 68 00268000                     	PUSH	2523136
   406 00000150 52                              	PUSH	EDX
   407 00000151 E8 [00000000]                   	CALL	_memmam_link_page_32_m
   408 00000156 83 C4 30                        	ADD	ESP,48
   409 00000159 8D 85 FFFFFCE4                  	LEA	EAX,DWORD [-796+EBP]
   410 0000015F A3 0026F000                     	MOV	DWORD [2551808],EAX
   411 00000164 E8 [00000000]                   	CALL	_load_cr0
   412 00000169 89 C3                           	MOV	EBX,EAX
   413 0000016B 68 00268000                     	PUSH	2523136
   414 00000170 81 CB 80000000                  	OR	EBX,-2147483648
   415 00000176 E8 [00000000]                   	CALL	_store_cr3
   416 0000017B 53                              	PUSH	EBX
   417 0000017C E8 [00000000]                   	CALL	_store_cr0
   418 00000181 68 C0000000                     	PUSH	-1073741824
   419 00000186 68 0000FFFF                     	PUSH	65535
   420 0000018B E8 [00000000]                   	CALL	_load_gdtr
   421 00000190 68 C0020800                     	PUSH	-1073608704
   422 00000195 68 0000FFFF                     	PUSH	65535
   423 0000019A E8 [00000000]                   	CALL	_load_idtr
   424 0000019F E8 [00000000]                   	CALL	_support_apic
   425 000001A4 83 C4 18                        	ADD	ESP,24
   426 000001A7 48                              	DEC	EAX
   427 000001A8 0F 84 00000C27                  	JE	L111
   428 000001AE E8 [00000000]                   	CALL	_init_pic
   429 000001B3                                 L3:
   430 000001B3 8D 5D A4                        	LEA	EBX,DWORD [-92+EBP]
   431 000001B6 E8 [00000000]                   	CALL	_io_sti
   432 000001BB 6A 00                           	PUSH	0
   433 000001BD 8D 85 FFFFFD84                  	LEA	EAX,DWORD [-636+EBP]
   434 000001C3 50                              	PUSH	EAX
   435 000001C4 68 00000080                     	PUSH	128
   436 000001C9 53                              	PUSH	EBX
   437 000001CA E8 [00000000]                   	CALL	_fifo32_init
   438 000001CF 89 1D 00000FEC                  	MOV	DWORD [4076],EBX
   439 000001D5 E8 [00000000]                   	CALL	_init_pit
   440 000001DA 68 00000100                     	PUSH	256
   441 000001DF 53                              	PUSH	EBX
   442 000001E0 E8 [00000000]                   	CALL	_init_keyboard
   443 000001E5 8D 85 FFFFFCF4                  	LEA	EAX,DWORD [-780+EBP]
   444 000001EB 50                              	PUSH	EAX
   445 000001EC 68 00000200                     	PUSH	512
   446 000001F1 53                              	PUSH	EBX
   447 000001F2 E8 [00000000]                   	CALL	_enable_mouse
   448 000001F7 83 C4 24                        	ADD	ESP,36
   449 000001FA E8 [00000000]                   	CALL	_support_apic
   450 000001FF 85 C0                           	TEST	EAX,EAX
   451 00000201 75 1E                           	JNE	L4
   452 00000203 68 000000F8                     	PUSH	248
   453 00000208 6A 21                           	PUSH	33
   454 0000020A E8 [00000000]                   	CALL	_io_out8
   455 0000020F 68 000000EF                     	PUSH	239
   456 00000214 68 000000A1                     	PUSH	161
   457 00000219 E8 [00000000]                   	CALL	_io_out8
   458 0000021E 83 C4 10                        	ADD	ESP,16
   459 00000221                                 L4:
   460 00000221 6A 00                           	PUSH	0
   461 00000223 8D 85 FFFFFD04                  	LEA	EAX,DWORD [-764+EBP]
   462 00000229 50                              	PUSH	EAX
   463 0000022A 8D 7D 84                        	LEA	EDI,DWORD [-124+EBP]
   464 0000022D 6A 20                           	PUSH	32
   465 0000022F 57                              	PUSH	EDI
   466 00000230 E8 [00000000]                   	CALL	_fifo32_init
   467 00000235 E8 [00000000]                   	CALL	_init_palette
   468 0000023A 8D 95 FFFFFCE4                  	LEA	EDX,DWORD [-796+EBP]
   469 00000240 0F BF 05 00000FF6               	MOVSX	EAX,WORD [4086]
   470 00000247 50                              	PUSH	EAX
   471 00000248 0F BF 05 00000FF4               	MOVSX	EAX,WORD [4084]
   472 0000024F 50                              	PUSH	EAX
   473 00000250 FF 35 00000FF8                  	PUSH	DWORD [4088]
   474 00000256 52                              	PUSH	EDX
   475 00000257 68 003C0000                     	PUSH	3932160
   476 0000025C E8 [00000000]                   	CALL	_shtctl_init
   477 00000261 83 C4 24                        	ADD	ESP,36
   478 00000264 68 003C0000                     	PUSH	3932160
   479 00000269 89 85 FFFFFBDC                  	MOV	DWORD [-1060+EBP],EAX
   480 0000026F E8 [00000000]                   	CALL	_task_init
   481 00000274 C7 46 48 00268000               	MOV	DWORD [72+ESI],2523136
   482 0000027B 6A 02                           	PUSH	2
   483 0000027D 89 85 FFFFFBB8                  	MOV	DWORD [-1096+EBP],EAX
   484 00000283 6A 01                           	PUSH	1
   485 00000285 89 45 BC                        	MOV	DWORD [-68+EBP],EAX
   486 00000288 50                              	PUSH	EAX
   487 00000289 E8 [00000000]                   	CALL	_task_run
   488 0000028E 8B 85 FFFFFBB8                  	MOV	EAX,DWORD [-1096+EBP]
   489 00000294 8B 95 FFFFFBDC                  	MOV	EDX,DWORD [-1060+EBP]
   490 0000029A 89 15 00000FE4                  	MOV	DWORD [4068],EDX
   491 000002A0 C6 80 000000CC 00               	MOV	BYTE [204+EAX],0
   492 000002A7 52                              	PUSH	EDX
   493 000002A8 E8 [00000000]                   	CALL	_sheet_alloc
   494 000002AD 89 C6                           	MOV	ESI,EAX
   495 000002AF 0F BF 15 00000FF6               	MOVSX	EDX,WORD [4086]
   496 000002B6 0F BF 05 00000FF4               	MOVSX	EAX,WORD [4084]
   497 000002BD 0F AF C2                        	IMUL	EAX,EDX
   498 000002C0 50                              	PUSH	EAX
   499 000002C1 68 003C0000                     	PUSH	3932160
   500 000002C6 E8 [00000000]                   	CALL	_memman_alloc_4k
   501 000002CB 6A 00                           	PUSH	0
   502 000002CD 0F BF 15 00000FF6               	MOVSX	EDX,WORD [4086]
   503 000002D4 89 C3                           	MOV	EBX,EAX
   504 000002D6 0F BF 05 00000FF4               	MOVSX	EAX,WORD [4084]
   505 000002DD 0F AF C2                        	IMUL	EAX,EDX
   506 000002E0 05 00000FFF                     	ADD	EAX,4095
   507 000002E5 8D 95 FFFFFCE4                  	LEA	EDX,DWORD [-796+EBP]
   508 000002EB C1 F8 0C                        	SAR	EAX,12
   509 000002EE 50                              	PUSH	EAX
   510 000002EF 6A 07                           	PUSH	7
   511 000002F1 53                              	PUSH	EBX
   512 000002F2 68 00268000                     	PUSH	2523136
   513 000002F7 52                              	PUSH	EDX
   514 000002F8 E8 [00000000]                   	CALL	_memmam_link_page_32_m
   515 000002FD 83 C4 34                        	ADD	ESP,52
   516 00000300 6A FF                           	PUSH	-1
   517 00000302 0F BF 05 00000FF6               	MOVSX	EAX,WORD [4086]
   518 00000309 50                              	PUSH	EAX
   519 0000030A 0F BF 05 00000FF4               	MOVSX	EAX,WORD [4084]
   520 00000311 50                              	PUSH	EAX
   521 00000312 53                              	PUSH	EBX
   522 00000313 56                              	PUSH	ESI
   523 00000314 E8 [00000000]                   	CALL	_sheet_setbuf
   524 00000319 0F BF 05 00000FF6               	MOVSX	EAX,WORD [4086]
   525 00000320 50                              	PUSH	EAX
   526 00000321 0F BF 05 00000FF4               	MOVSX	EAX,WORD [4084]
   527 00000328 50                              	PUSH	EAX
   528 00000329 53                              	PUSH	EBX
   529 0000032A 8D 9D FFFFFBE4                  	LEA	EBX,DWORD [-1052+EBP]
   530 00000330 E8 [00000000]                   	CALL	_init_screen8
   531 00000335 83 C4 20                        	ADD	ESP,32
   532 00000338 FF B5 FFFFFBDC                  	PUSH	DWORD [-1060+EBP]
   533 0000033E C7 85 FFFFFB98 00000000         	MOV	DWORD [-1128+EBP],0
   534 00000348 E8 [00000000]                   	CALL	_sheet_alloc
   535 0000034D 6A 63                           	PUSH	99
   536 0000034F 6A 10                           	PUSH	16
   537 00000351 6A 10                           	PUSH	16
   538 00000353 89 85 FFFFFBBC                  	MOV	DWORD [-1092+EBP],EAX
   539 00000359 53                              	PUSH	EBX
   540 0000035A 50                              	PUSH	EAX
   541 0000035B E8 [00000000]                   	CALL	_sheet_setbuf
   542 00000360 6A 63                           	PUSH	99
   543 00000362 53                              	PUSH	EBX
   544 00000363 BB 00000002                     	MOV	EBX,2
   545 00000368 E8 [00000000]                   	CALL	_init_mouse_cursor8
   546 0000036D 83 C4 20                        	ADD	ESP,32
   547 00000370 0F BF 05 00000FF4               	MOVSX	EAX,WORD [4084]
   548 00000377 8D 48 F0                        	LEA	ECX,DWORD [-16+EAX]
   549 0000037A 89 C8                           	MOV	EAX,ECX
   550 0000037C 99                              	CDQ
   551 0000037D F7 FB                           	IDIV	EBX
   552 0000037F 89 85 FFFFFBD8                  	MOV	DWORD [-1064+EBP],EAX
   553 00000385 0F BF 05 00000FF6               	MOVSX	EAX,WORD [4086]
   554 0000038C 6A 00                           	PUSH	0
   555 0000038E 8D 48 D4                        	LEA	ECX,DWORD [-44+EAX]
   556 00000391 6A 00                           	PUSH	0
   557 00000393 89 C8                           	MOV	EAX,ECX
   558 00000395 56                              	PUSH	ESI
   559 00000396 99                              	CDQ
   560 00000397 F7 FB                           	IDIV	EBX
   561 00000399 89 85 FFFFFBD4                  	MOV	DWORD [-1068+EBP],EAX
   562 0000039F E8 [00000000]                   	CALL	_sheet_slide
   563 000003A4 6A 04                           	PUSH	4
   564 000003A6 6A 20                           	PUSH	32
   565 000003A8 6A 00                           	PUSH	0
   566 000003AA E8 [00000000]                   	CALL	_sheet_slide
   567 000003AF FF B5 FFFFFBD4                  	PUSH	DWORD [-1068+EBP]
   568 000003B5 FF B5 FFFFFBD8                  	PUSH	DWORD [-1064+EBP]
   569 000003BB FF B5 FFFFFBBC                  	PUSH	DWORD [-1092+EBP]
   570 000003C1 E8 [00000000]                   	CALL	_sheet_slide
   571 000003C6 83 C4 24                        	ADD	ESP,36
   572 000003C9 6A 00                           	PUSH	0
   573 000003CB 56                              	PUSH	ESI
   574 000003CC E8 [00000000]                   	CALL	_sheet_updown
   575 000003D1 6A 01                           	PUSH	1
   576 000003D3 6A 00                           	PUSH	0
   577 000003D5 E8 [00000000]                   	CALL	_sheet_updown
   578 000003DA 6A 02                           	PUSH	2
   579 000003DC FF B5 FFFFFBBC                  	PUSH	DWORD [-1092+EBP]
   580 000003E2 E8 [00000000]                   	CALL	_sheet_updown
   581 000003E7 6A 00                           	PUSH	0
   582 000003E9 E8 00000A25                     	CALL	_keywin_on
   583 000003EE 68 000000ED                     	PUSH	237
   584 000003F3 57                              	PUSH	EDI
   585 000003F4 E8 [00000000]                   	CALL	_fifo32_put
   586 000003F9 83 C4 24                        	ADD	ESP,36
   587 000003FC FF B5 FFFFFBB0                  	PUSH	DWORD [-1104+EBP]
   588 00000402 57                              	PUSH	EDI
   589 00000403 E8 [00000000]                   	CALL	_fifo32_put
   590 00000408 68 00002D00                     	PUSH	11520
   591 0000040D 68 003C0000                     	PUSH	3932160
   592 00000412 E8 [00000000]                   	CALL	_memman_alloc_4k
   593 00000417 8D 95 FFFFFCE4                  	LEA	EDX,DWORD [-796+EBP]
   594 0000041D 6A 00                           	PUSH	0
   595 0000041F 89 C6                           	MOV	ESI,EAX
   596 00000421 6A 03                           	PUSH	3
   597 00000423 6A 07                           	PUSH	7
   598 00000425 50                              	PUSH	EAX
   599 00000426 68 00268000                     	PUSH	2523136
   600 0000042B 52                              	PUSH	EDX
   601 0000042C E8 [00000000]                   	CALL	_memmam_link_page_32_m
   602 00000431 83 C4 28                        	ADD	ESP,40
   603 00000434 68 00100200                     	PUSH	1049088
   604 00000439 56                              	PUSH	ESI
   605 0000043A E8 [00000000]                   	CALL	_file_readfat
   606 0000043F 68 000000E0                     	PUSH	224
   607 00000444 68 00102600                     	PUSH	1058304
   608 00000449 68 [00000100]                   	PUSH	LC0
   609 0000044E E8 [00000000]                   	CALL	_file_search
   610 00000453 83 C4 14                        	ADD	ESP,20
   611 00000456 89 C2                           	MOV	EDX,EAX
   612 00000458 85 C0                           	TEST	EAX,EAX
   613 0000045A 0F 84 000008EF                  	JE	L5
   614 00000460 8B 40 1C                        	MOV	EAX,DWORD [28+EAX]
   615 00000463 56                              	PUSH	ESI
   616 00000464 89 85 FFFFFBE0                  	MOV	DWORD [-1056+EBP],EAX
   617 0000046A 8D 85 FFFFFBE0                  	LEA	EAX,DWORD [-1056+EBP]
   618 00000470 50                              	PUSH	EAX
   619 00000471 0F B7 42 1A                     	MOVZX	EAX,WORD [26+EDX]
   620 00000475 50                              	PUSH	EAX
   621 00000476 E8 [00000000]                   	CALL	_file_loadfile2
   622 0000047B 83 C4 0C                        	ADD	ESP,12
   623 0000047E 89 C3                           	MOV	EBX,EAX
   624 00000480                                 L6:
   625 00000480 89 1D 00000FE8                  	MOV	DWORD [4072],EBX
   626 00000486 31 C0                           	XOR	EAX,EAX
   627 00000488 C7 85 FFFFFBE0 00000000         	MOV	DWORD [-1056+EBP],0
   628 00000492                                 L21:
   629 00000492 C1 E0 0C                        	SAL	EAX,12
   630 00000495 8D 95 FFFFFCE4                  	LEA	EDX,DWORD [-796+EBP]
   631 0000049B 8D 04 30                        	LEA	EAX,DWORD [EAX+ESI*1]
   632 0000049E 50                              	PUSH	EAX
   633 0000049F 68 00268000                     	PUSH	2523136
   634 000004A4 52                              	PUSH	EDX
   635 000004A5 E8 [00000000]                   	CALL	_memman_unlink_page_32
   636 000004AA 50                              	PUSH	EAX
   637 000004AB 8D 85 FFFFFCE4                  	LEA	EAX,DWORD [-796+EBP]
   638 000004B1 50                              	PUSH	EAX
   639 000004B2 E8 [00000000]                   	CALL	_memman_free_page_32
   640 000004B7 8B 85 FFFFFBE0                  	MOV	EAX,DWORD [-1056+EBP]
   641 000004BD 40                              	INC	EAX
   642 000004BE 83 C4 14                        	ADD	ESP,20
   643 000004C1 89 85 FFFFFBE0                  	MOV	DWORD [-1056+EBP],EAX
   644 000004C7 83 F8 02                        	CMP	EAX,2
   645 000004CA 7E C6                           	JLE	L21
   646 000004CC 68 00002D00                     	PUSH	11520
   647 000004D1 56                              	PUSH	ESI
   648 000004D2 68 003C0000                     	PUSH	3932160
   649 000004D7 E8 [00000000]                   	CALL	_memman_free_4k
   650 000004DC                                 L107:
   651 000004DC 83 C4 0C                        	ADD	ESP,12
   652 000004DF                                 L22:
   653 000004DF 8D 5D 84                        	LEA	EBX,DWORD [-124+EBP]
   654 000004E2 53                              	PUSH	EBX
   655 000004E3 E8 [00000000]                   	CALL	_fifo32_status
   656 000004E8 5F                              	POP	EDI
   657 000004E9 85 C0                           	TEST	EAX,EAX
   658 000004EB 7E 0D                           	JLE	L25
   659 000004ED 83 BD FFFFFBAC 00               	CMP	DWORD [-1108+EBP],0
   660 000004F4 0F 88 0000082F                  	JS	L112
   661 000004FA                                 L25:
   662 000004FA 8D 5D A4                        	LEA	EBX,DWORD [-92+EBP]
   663 000004FD E8 [00000000]                   	CALL	_io_cli
   664 00000502 53                              	PUSH	EBX
   665 00000503 E8 [00000000]                   	CALL	_fifo32_status
   666 00000508 5E                              	POP	ESI
   667 00000509 85 C0                           	TEST	EAX,EAX
   668 0000050B 0F 84 000007B9                  	JE	L113
   669 00000511 53                              	PUSH	EBX
   670 00000512 E8 [00000000]                   	CALL	_fifo32_get
   671 00000517 89 85 FFFFFBE0                  	MOV	DWORD [-1056+EBP],EAX
   672 0000051D E8 [00000000]                   	CALL	_io_sti
   673 00000522 5B                              	POP	EBX
   674 00000523 83 BD FFFFFB98 00               	CMP	DWORD [-1128+EBP],0
   675 0000052A 74 3B                           	JE	L32
   676 0000052C 8B 85 FFFFFB98                  	MOV	EAX,DWORD [-1128+EBP]
   677 00000532 83 78 1C 00                     	CMP	DWORD [28+EAX],0
   678 00000536 75 2F                           	JNE	L32
   679 00000538 8B 95 FFFFFBDC                  	MOV	EDX,DWORD [-1060+EBP]
   680 0000053E C7 85 FFFFFB98 00000000         	MOV	DWORD [-1128+EBP],0
   681 00000548 8B 42 10                        	MOV	EAX,DWORD [16+EDX]
   682 0000054B 83 F8 01                        	CMP	EAX,1
   683 0000054E 74 17                           	JE	L32
   684 00000550 8B 95 FFFFFBDC                  	MOV	EDX,DWORD [-1060+EBP]
   685 00000556 8B 44 82 10                     	MOV	EAX,DWORD [16+EDX+EAX*4]
   686 0000055A 50                              	PUSH	EAX
   687 0000055B 89 85 FFFFFB98                  	MOV	DWORD [-1128+EBP],EAX
   688 00000561 E8 000008AD                     	CALL	_keywin_on
   689 00000566 59                              	POP	ECX
   690 00000567                                 L32:
   691 00000567 8B 95 FFFFFBE0                  	MOV	EDX,DWORD [-1056+EBP]
   692 0000056D 8D 82 FFFFFF00                  	LEA	EAX,DWORD [-256+EDX]
   693 00000573 3D 000000FF                     	CMP	EAX,255
   694 00000578 0F 86 000003F5                  	JBE	L114
   695 0000057E 8D 82 FFFFFE00                  	LEA	EAX,DWORD [-512+EDX]
   696 00000584 3D 000000FF                     	CMP	EAX,255
   697 00000589 0F 86 000000DD                  	JBE	L115
   698 0000058F 8D 82 FFFFFD00                  	LEA	EAX,DWORD [-768+EDX]
   699 00000595 3D 000000FF                     	CMP	EAX,255
   700 0000059A 0F 86 000000B4                  	JBE	L116
   701 000005A0 8D 82 FFFFFC00                  	LEA	EAX,DWORD [-1024+EDX]
   702 000005A6 3D 000003E7                     	CMP	EAX,999
   703 000005AB 0F 86 00000085                  	JBE	L117
   704 000005B1 8D 82 FFFFF818                  	LEA	EAX,DWORD [-2024+EDX]
   705 000005B7 3D 000000FF                     	CMP	EAX,255
   706 000005BC 0F 87 FFFFFF1D                  	JA	L22
   707 000005C2 6B C2 28                        	IMUL	EAX,EDX,40
   708 000005C5 8B 95 FFFFFBDC                  	MOV	EDX,DWORD [-1060+EBP]
   709 000005CB C7 85 FFFFFBE0 00000000         	MOV	DWORD [-1056+EBP],0
   710 000005D5 8D 9C 10 FFFEC7D4               	LEA	EBX,DWORD [-79916+EAX+EDX*1]
   711 000005DC 31 C0                           	XOR	EAX,EAX
   712 000005DE                                 L95:
   713 000005DE C1 E0 0C                        	SAL	EAX,12
   714 000005E1 03 03                           	ADD	EAX,DWORD [EBX]
   715 000005E3 50                              	PUSH	EAX
   716 000005E4 8D 85 FFFFFCE4                  	LEA	EAX,DWORD [-796+EBP]
   717 000005EA 68 00268000                     	PUSH	2523136
   718 000005EF 50                              	PUSH	EAX
   719 000005F0 E8 [00000000]                   	CALL	_memman_unlink_page_32
   720 000005F5 8D 95 FFFFFCE4                  	LEA	EDX,DWORD [-796+EBP]
   721 000005FB 50                              	PUSH	EAX
   722 000005FC 52                              	PUSH	EDX
   723 000005FD E8 [00000000]                   	CALL	_memman_free_page_32
   724 00000602 8B 85 FFFFFBE0                  	MOV	EAX,DWORD [-1056+EBP]
   725 00000608 40                              	INC	EAX
   726 00000609 83 C4 14                        	ADD	ESP,20
   727 0000060C 89 85 FFFFFBE0                  	MOV	DWORD [-1056+EBP],EAX
   728 00000612 83 F8 0A                        	CMP	EAX,10
   729 00000615 7E C7                           	JLE	L95
   730 00000617 68 0000A500                     	PUSH	42240
   731 0000061C FF 33                           	PUSH	DWORD [EBX]
   732 0000061E 68 003C0000                     	PUSH	3932160
   733 00000623 E8 [00000000]                   	CALL	_memman_free_4k
   734 00000628 53                              	PUSH	EBX
   735 00000629 E8 [00000000]                   	CALL	_sheet_free
   736 0000062E 83 C4 10                        	ADD	ESP,16
   737 00000631 E9 FFFFFEA9                     	JMP	L22
   738 00000636                                 L117:
   739 00000636 69 D2 00000114                  	IMUL	EDX,EDX,276
   740 0000063C 03 15 [00000000]                	ADD	EDX,DWORD [_taskctl]
   741 00000642 8D 82 FFFBBFF8                  	LEA	EAX,DWORD [-278536+EDX]
   742 00000648 50                              	PUSH	EAX
   743 00000649 E8 00000A4A                     	CALL	_close_constask
   744 0000064E                                 L106:
   745 0000064E 58                              	POP	EAX
   746 0000064F E9 FFFFFE8B                     	JMP	L22
   747 00000654                                 L116:
   748 00000654 6B C2 28                        	IMUL	EAX,EDX,40
   749 00000657 8B 95 FFFFFBDC                  	MOV	EDX,DWORD [-1060+EBP]
   750 0000065D 8D 84 10 FFFF8C14               	LEA	EAX,DWORD [-29676+EAX+EDX*1]
   751 00000664 50                              	PUSH	EAX
   752 00000665 E8 00000AD1                     	CALL	_close_console
   753 0000066A EB E2                           	JMP	L106
   754 0000066C                                 L115:
   755 0000066C 0F B6 85 FFFFFBE0               	MOVZX	EAX,BYTE [-1056+EBP]
   756 00000673 50                              	PUSH	EAX
   757 00000674 8D 85 FFFFFCF4                  	LEA	EAX,DWORD [-780+EBP]
   758 0000067A 50                              	PUSH	EAX
   759 0000067B E8 [00000000]                   	CALL	_mouse_decode
   760 00000680 5A                              	POP	EDX
   761 00000681 59                              	POP	ECX
   762 00000682 85 C0                           	TEST	EAX,EAX
   763 00000684 0F 84 FFFFFE55                  	JE	L22
   764 0000068A 8B 85 FFFFFCFC                  	MOV	EAX,DWORD [-772+EBP]
   765 00000690 8B 95 FFFFFCF8                  	MOV	EDX,DWORD [-776+EBP]
   766 00000696 01 85 FFFFFBD4                  	ADD	DWORD [-1068+EBP],EAX
   767 0000069C 01 95 FFFFFBD8                  	ADD	DWORD [-1064+EBP],EDX
   768 000006A2 0F 88 000002BC                  	JS	L118
   769 000006A8                                 L64:
   770 000006A8 83 BD FFFFFBD4 00               	CMP	DWORD [-1068+EBP],0
   771 000006AF 0F 88 000002A0                  	JS	L119
   772 000006B5                                 L65:
   773 000006B5 0F BF 05 00000FF4               	MOVSX	EAX,WORD [4084]
   774 000006BC 48                              	DEC	EAX
   775 000006BD 39 85 FFFFFBD8                  	CMP	DWORD [-1064+EBP],EAX
   776 000006C3 7E 06                           	JLE	L66
   777 000006C5 89 85 FFFFFBD8                  	MOV	DWORD [-1064+EBP],EAX
   778 000006CB                                 L66:
   779 000006CB 0F BF 05 00000FF6               	MOVSX	EAX,WORD [4086]
   780 000006D2 48                              	DEC	EAX
   781 000006D3 39 85 FFFFFBD4                  	CMP	DWORD [-1068+EBP],EAX
   782 000006D9 7E 06                           	JLE	L67
   783 000006DB 89 85 FFFFFBD4                  	MOV	DWORD [-1068+EBP],EAX
   784 000006E1                                 L67:
   785 000006E1 8B 85 FFFFFBD8                  	MOV	EAX,DWORD [-1064+EBP]
   786 000006E7 8B 95 FFFFFBD4                  	MOV	EDX,DWORD [-1068+EBP]
   787 000006ED 89 85 FFFFFBD0                  	MOV	DWORD [-1072+EBP],EAX
   788 000006F3 89 95 FFFFFBCC                  	MOV	DWORD [-1076+EBP],EDX
   789 000006F9 F7 85 FFFFFD00 00000001         	TEST	DWORD [-768+EBP],1
   790 00000703 75 40                           	JNE	L120
   791 00000705 C7 85 FFFFFBA8 FFFFFFFF         	MOV	DWORD [-1112+EBP],-1
   792 0000070F 81 BD FFFFFBC8 7FFFFFFF         	CMP	DWORD [-1080+EBP],2147483647
   793 00000719 0F 84 FFFFFDC0                  	JE	L22
   794 0000071F                                 L108:
   795 0000071F FF B5 FFFFFBC4                  	PUSH	DWORD [-1084+EBP]
   796 00000725 FF B5 FFFFFBC8                  	PUSH	DWORD [-1080+EBP]
   797 0000072B FF B5 FFFFFB9C                  	PUSH	DWORD [-1124+EBP]
   798 00000731 E8 [00000000]                   	CALL	_sheet_slide
   799 00000736 C7 85 FFFFFBC8 7FFFFFFF         	MOV	DWORD [-1080+EBP],2147483647
   800 00000740 E9 FFFFFD97                     	JMP	L107
   801 00000745                                 L120:
   802 00000745 83 BD FFFFFBA8 00               	CMP	DWORD [-1112+EBP],0
   803 0000074C 78 46                           	JS	L121
   804 0000074E 8B B5 FFFFFBD8                  	MOV	ESI,DWORD [-1064+EBP]
   805 00000754 8B 85 FFFFFBA0                  	MOV	EAX,DWORD [-1120+EBP]
   806 0000075A 2B B5 FFFFFBA8                  	SUB	ESI,DWORD [-1112+EBP]
   807 00000760 8B BD FFFFFBD4                  	MOV	EDI,DWORD [-1068+EBP]
   808 00000766 2B BD FFFFFBA4                  	SUB	EDI,DWORD [-1116+EBP]
   809 0000076C 8B 95 FFFFFBD4                  	MOV	EDX,DWORD [-1068+EBP]
   810 00000772 8D 74 06 02                     	LEA	ESI,DWORD [2+ESI+EAX*1]
   811 00000776 89 95 FFFFFBA4                  	MOV	DWORD [-1116+EBP],EDX
   812 0000077C 89 B5 FFFFFBC8                  	MOV	DWORD [-1080+EBP],ESI
   813 00000782 01 BD FFFFFBC4                  	ADD	DWORD [-1084+EBP],EDI
   814 00000788 83 A5 FFFFFBC8 FC               	AND	DWORD [-1080+EBP],-4
   815 0000078F E9 FFFFFD4B                     	JMP	L22
   816 00000794                                 L121:
   817 00000794 8B 85 FFFFFBDC                  	MOV	EAX,DWORD [-1060+EBP]
   818 0000079A 8B 48 10                        	MOV	ECX,DWORD [16+EAX]
   819 0000079D 8D 59 FF                        	LEA	EBX,DWORD [-1+ECX]
   820 000007A0                                 L110:
   821 000007A0 85 DB                           	TEST	EBX,EBX
   822 000007A2 0F 8E FFFFFD37                  	JLE	L22
   823 000007A8 8B 95 FFFFFBDC                  	MOV	EDX,DWORD [-1060+EBP]
   824 000007AE 8B BD FFFFFBD4                  	MOV	EDI,DWORD [-1068+EBP]
   825 000007B4 8B B5 FFFFFBD8                  	MOV	ESI,DWORD [-1064+EBP]
   826 000007BA 8B 54 9A 14                     	MOV	EDX,DWORD [20+EDX+EBX*4]
   827 000007BE 89 95 FFFFFB9C                  	MOV	DWORD [-1124+EBP],EDX
   828 000007C4 2B 7A 10                        	SUB	EDI,DWORD [16+EDX]
   829 000007C7 2B 72 0C                        	SUB	ESI,DWORD [12+EDX]
   830 000007CA 78 32                           	JS	L72
   831 000007CC 8B 42 04                        	MOV	EAX,DWORD [4+EDX]
   832 000007CF 39 C6                           	CMP	ESI,EAX
   833 000007D1 7D 2B                           	JGE	L72
   834 000007D3 85 FF                           	TEST	EDI,EDI
   835 000007D5 78 27                           	JS	L72
   836 000007D7 3B 7A 08                        	CMP	EDI,DWORD [8+EDX]
   837 000007DA 7D 22                           	JGE	L72
   838 000007DC 0F AF C7                        	IMUL	EAX,EDI
   839 000007DF 89 85 FFFFFB90                  	MOV	DWORD [-1136+EBP],EAX
   840 000007E5 8B 12                           	MOV	EDX,DWORD [EDX]
   841 000007E7 8B 85 FFFFFB90                  	MOV	EAX,DWORD [-1136+EBP]
   842 000007ED 01 F0                           	ADD	EAX,ESI
   843 000007EF 0F B6 04 10                     	MOVZX	EAX,BYTE [EAX+EDX*1]
   844 000007F3 8B 95 FFFFFB9C                  	MOV	EDX,DWORD [-1124+EBP]
   845 000007F9 3B 42 14                        	CMP	EAX,DWORD [20+EDX]
   846 000007FC 75 03                           	JNE	L122
   847 000007FE                                 L72:
   848 000007FE 4B                              	DEC	EBX
   849 000007FF EB 9F                           	JMP	L110
   850 00000801                                 L122:
   851 00000801 8D 41 FF                        	LEA	EAX,DWORD [-1+ECX]
   852 00000804 50                              	PUSH	EAX
   853 00000805 52                              	PUSH	EDX
   854 00000806 E8 [00000000]                   	CALL	_sheet_updown
   855 0000080B 5B                              	POP	EBX
   856 0000080C 58                              	POP	EAX
   857 0000080D 8B 85 FFFFFB98                  	MOV	EAX,DWORD [-1128+EBP]
   858 00000813 39 85 FFFFFB9C                  	CMP	DWORD [-1124+EBP],EAX
   859 00000819 74 1A                           	JE	L76
   860 0000081B 50                              	PUSH	EAX
   861 0000081C E8 000005C4                     	CALL	_keywin_off
   862 00000821 8B 95 FFFFFB9C                  	MOV	EDX,DWORD [-1124+EBP]
   863 00000827 52                              	PUSH	EDX
   864 00000828 89 95 FFFFFB98                  	MOV	DWORD [-1128+EBP],EDX
   865 0000082E E8 000005E0                     	CALL	_keywin_on
   866 00000833 5A                              	POP	EDX
   867 00000834 59                              	POP	ECX
   868 00000835                                 L76:
   869 00000835 83 FE 02                        	CMP	ESI,2
   870 00000838 7E 50                           	JLE	L77
   871 0000083A 8B 95 FFFFFB9C                  	MOV	EDX,DWORD [-1124+EBP]
   872 00000840 8B 42 04                        	MOV	EAX,DWORD [4+EDX]
   873 00000843 83 E8 03                        	SUB	EAX,3
   874 00000846 39 C6                           	CMP	ESI,EAX
   875 00000848 7D 40                           	JGE	L77
   876 0000084A 83 FF 02                        	CMP	EDI,2
   877 0000084D 7E 3B                           	JLE	L77
   878 0000084F 83 FF 14                        	CMP	EDI,20
   879 00000852 7F 36                           	JG	L77
   880 00000854 8B 85 FFFFFBD8                  	MOV	EAX,DWORD [-1064+EBP]
   881 0000085A 8B 95 FFFFFBD4                  	MOV	EDX,DWORD [-1068+EBP]
   882 00000860 89 85 FFFFFBA8                  	MOV	DWORD [-1112+EBP],EAX
   883 00000866 89 95 FFFFFBA4                  	MOV	DWORD [-1116+EBP],EDX
   884 0000086C 8B 85 FFFFFB9C                  	MOV	EAX,DWORD [-1124+EBP]
   885 00000872 8B 95 FFFFFB9C                  	MOV	EDX,DWORD [-1124+EBP]
   886 00000878 8B 40 0C                        	MOV	EAX,DWORD [12+EAX]
   887 0000087B 8B 52 10                        	MOV	EDX,DWORD [16+EDX]
   888 0000087E 89 85 FFFFFBA0                  	MOV	DWORD [-1120+EBP],EAX
   889 00000884 89 95 FFFFFBC4                  	MOV	DWORD [-1084+EBP],EDX
   890 0000088A                                 L77:
   891 0000088A 8B 85 FFFFFB9C                  	MOV	EAX,DWORD [-1124+EBP]
   892 00000890 8B 50 04                        	MOV	EDX,DWORD [4+EAX]
   893 00000893 8D 42 EB                        	LEA	EAX,DWORD [-21+EDX]
   894 00000896 39 F0                           	CMP	EAX,ESI
   895 00000898 0F 8F FFFFFC41                  	JG	L22
   896 0000089E 8D 42 FB                        	LEA	EAX,DWORD [-5+EDX]
   897 000008A1 39 C6                           	CMP	ESI,EAX
   898 000008A3 0F 8D FFFFFC36                  	JGE	L22
   899 000008A9 83 FF 04                        	CMP	EDI,4
   900 000008AC 0F 8E FFFFFC2D                  	JLE	L22
   901 000008B2 83 FF 12                        	CMP	EDI,18
   902 000008B5 0F 8F FFFFFC24                  	JG	L22
   903 000008BB 8B 95 FFFFFB9C                  	MOV	EDX,DWORD [-1124+EBP]
   904 000008C1 F6 42 1C 10                     	TEST	BYTE [28+EDX],16
   905 000008C5 74 42                           	JE	L123
   906 000008C7 8B 95 FFFFFB9C                  	MOV	EDX,DWORD [-1124+EBP]
   907 000008CD 8B 72 24                        	MOV	ESI,DWORD [36+EDX]
   908 000008D0 68 [0000010C]                   	PUSH	LC2
   909 000008D5 FF B6 000000B4                  	PUSH	DWORD [180+ESI]
   910 000008DB E8 [00000000]                   	CALL	_cons_putstr0
   911 000008E0 E8 [00000000]                   	CALL	_io_cli
   912 000008E5 8D 46 30                        	LEA	EAX,DWORD [48+ESI]
   913 000008E8 89 46 54                        	MOV	DWORD [84+ESI],EAX
   914 000008EB C7 46 4C [00000000]             	MOV	DWORD [76+ESI],_asm_end_app
   915 000008F2 E8 [00000000]                   	CALL	_io_sti
   916 000008F7 6A 00                           	PUSH	0
   917 000008F9 6A FF                           	PUSH	-1
   918 000008FB 56                              	PUSH	ESI
   919 000008FC E8 [00000000]                   	CALL	_task_run
   920 00000901 83 C4 14                        	ADD	ESP,20
   921 00000904 E9 FFFFFBD6                     	JMP	L22
   922 00000909                                 L123:
   923 00000909 8B 72 24                        	MOV	ESI,DWORD [36+EDX]
   924 0000090C 6A FF                           	PUSH	-1
   925 0000090E 52                              	PUSH	EDX
   926 0000090F E8 [00000000]                   	CALL	_sheet_updown
   927 00000914 FF B5 FFFFFB98                  	PUSH	DWORD [-1128+EBP]
   928 0000091A E8 000004C6                     	CALL	_keywin_off
   929 0000091F 8B 95 FFFFFBDC                  	MOV	EDX,DWORD [-1060+EBP]
   930 00000925 8B 42 10                        	MOV	EAX,DWORD [16+EDX]
   931 00000928 8B 44 82 10                     	MOV	EAX,DWORD [16+EDX+EAX*4]
   932 0000092C 50                              	PUSH	EAX
   933 0000092D 89 85 FFFFFB98                  	MOV	DWORD [-1128+EBP],EAX
   934 00000933 E8 000004DB                     	CALL	_keywin_on
   935 00000938 E8 [00000000]                   	CALL	_io_cli
   936 0000093D 8D 46 10                        	LEA	EAX,DWORD [16+ESI]
   937 00000940 6A 04                           	PUSH	4
   938 00000942 50                              	PUSH	EAX
   939 00000943 E8 [00000000]                   	CALL	_fifo32_put
   940 00000948 E8 [00000000]                   	CALL	_io_sti
   941 0000094D 83 C4 18                        	ADD	ESP,24
   942 00000950 E9 FFFFFB8A                     	JMP	L22
   943 00000955                                 L119:
   944 00000955 C7 85 FFFFFBD4 00000000         	MOV	DWORD [-1068+EBP],0
   945 0000095F E9 FFFFFD51                     	JMP	L65
   946 00000964                                 L118:
   947 00000964 C7 85 FFFFFBD8 00000000         	MOV	DWORD [-1064+EBP],0
   948 0000096E E9 FFFFFD35                     	JMP	L64
   949 00000973                                 L114:
   950 00000973 81 FA 0000017F                  	CMP	EDX,383
   951 00000979 0F 8F 00000342                  	JG	L36
   952 0000097F 83 BD FFFFFBB4 00               	CMP	DWORD [-1100+EBP],0
   953 00000986 0F 85 0000032A                  	JNE	L37
   954 0000098C 8A 82 [FFFFFF00]                	MOV	AL,BYTE [_keytable0.0-256+EDX]
   955 00000992                                 L109:
   956 00000992 88 45 C4                        	MOV	BYTE [-60+EBP],AL
   957 00000995                                 L39:
   958 00000995 8A 55 C4                        	MOV	DL,BYTE [-60+EBP]
   959 00000998 8D 42 BF                        	LEA	EAX,DWORD [-65+EDX]
   960 0000099B 3C 19                           	CMP	AL,25
   961 0000099D 77 1D                           	JA	L40
   962 0000099F F7 85 FFFFFBB0 00000004         	TEST	DWORD [-1104+EBP],4
   963 000009A9 0F 85 000002F8                  	JNE	L104
   964 000009AF 83 BD FFFFFBB4 00               	CMP	DWORD [-1100+EBP],0
   965 000009B6 0F 84 000002E0                  	JE	L42
   966 000009BC                                 L40:
   967 000009BC 8A 45 C4                        	MOV	AL,BYTE [-60+EBP]
   968 000009BF 84 C0                           	TEST	AL,AL
   969 000009C1 74 26                           	JE	L44
   970 000009C3 83 BD FFFFFB98 00               	CMP	DWORD [-1128+EBP],0
   971 000009CA 74 1D                           	JE	L44
   972 000009CC 0F BE C0                        	MOVSX	EAX,AL
   973 000009CF 8B 95 FFFFFB98                  	MOV	EDX,DWORD [-1128+EBP]
   974 000009D5 05 00000100                     	ADD	EAX,256
   975 000009DA 50                              	PUSH	EAX
   976 000009DB 8B 42 24                        	MOV	EAX,DWORD [36+EDX]
   977 000009DE 83 C0 10                        	ADD	EAX,16
   978 000009E1 50                              	PUSH	EAX
   979 000009E2 E8 [00000000]                   	CALL	_fifo32_put
   980 000009E7 58                              	POP	EAX
   981 000009E8 5A                              	POP	EDX
   982 000009E9                                 L44:
   983 000009E9 81 BD FFFFFBE0 0000010F         	CMP	DWORD [-1056+EBP],271
   984 000009F3 0F 84 00000258                  	JE	L124
   985 000009F9                                 L45:
   986 000009F9 8B 85 FFFFFBE0                  	MOV	EAX,DWORD [-1056+EBP]
   987 000009FF 3D 0000012A                     	CMP	EAX,298
   988 00000A04 0F 84 0000023B                  	JE	L125
   989 00000A0A                                 L47:
   990 00000A0A 3D 00000136                     	CMP	EAX,310
   991 00000A0F 0F 84 00000224                  	JE	L126
   992 00000A15                                 L48:
   993 00000A15 3D 000001AA                     	CMP	EAX,426
   994 00000A1A 0F 84 0000020D                  	JE	L127
   995 00000A20                                 L49:
   996 00000A20 3D 000001B6                     	CMP	EAX,438
   997 00000A25 0F 84 000001F6                  	JE	L128
   998 00000A2B                                 L50:
   999 00000A2B 3D 0000013A                     	CMP	EAX,314
  1000 00000A30 0F 84 000001C2                  	JE	L129
  1001 00000A36                                 L51:
  1002 00000A36 81 BD FFFFFBE0 00000145         	CMP	DWORD [-1056+EBP],325
  1003 00000A40 0F 84 00000189                  	JE	L130
  1004 00000A46                                 L52:
  1005 00000A46 81 BD FFFFFBE0 00000146         	CMP	DWORD [-1056+EBP],326
  1006 00000A50 0F 84 00000150                  	JE	L131
  1007 00000A56                                 L53:
  1008 00000A56 81 BD FFFFFBE0 0000013B         	CMP	DWORD [-1056+EBP],315
  1009 00000A60 0F 84 000000D2                  	JE	L132
  1010 00000A66                                 L54:
  1011 00000A66 81 BD FFFFFBE0 0000013C         	CMP	DWORD [-1056+EBP],316
  1012 00000A70 74 60                           	JE	L133
  1013 00000A72                                 L56:
  1014 00000A72 81 BD FFFFFBE0 00000157         	CMP	DWORD [-1056+EBP],343
  1015 00000A7C 74 3D                           	JE	L134
  1016 00000A7E                                 L58:
  1017 00000A7E 8B 85 FFFFFBE0                  	MOV	EAX,DWORD [-1056+EBP]
  1018 00000A84 3D 000001FA                     	CMP	EAX,506
  1019 00000A89 74 24                           	JE	L135
  1020 00000A8B                                 L59:
  1021 00000A8B 3D 000001FE                     	CMP	EAX,510
  1022 00000A90 0F 85 FFFFFA49                  	JNE	L22
  1023 00000A96 E8 [00000000]                   	CALL	_wait_KBC_sendready
  1024 00000A9B FF B5 FFFFFBAC                  	PUSH	DWORD [-1108+EBP]
  1025 00000AA1 6A 60                           	PUSH	96
  1026 00000AA3 E8 [00000000]                   	CALL	_io_out8
  1027 00000AA8 5B                              	POP	EBX
  1028 00000AA9 5E                              	POP	ESI
  1029 00000AAA E9 FFFFFA30                     	JMP	L22
  1030 00000AAF                                 L135:
  1031 00000AAF C7 85 FFFFFBAC FFFFFFFF         	MOV	DWORD [-1108+EBP],-1
  1032 00000AB9 EB D0                           	JMP	L59
  1033 00000ABB                                 L134:
  1034 00000ABB 8B 95 FFFFFBDC                  	MOV	EDX,DWORD [-1060+EBP]
  1035 00000AC1 8B 42 10                        	MOV	EAX,DWORD [16+EDX]
  1036 00000AC4 48                              	DEC	EAX
  1037 00000AC5 50                              	PUSH	EAX
  1038 00000AC6 FF 72 18                        	PUSH	DWORD [24+EDX]
  1039 00000AC9 E8 [00000000]                   	CALL	_sheet_updown
  1040 00000ACE 5F                              	POP	EDI
  1041 00000ACF 58                              	POP	EAX
  1042 00000AD0 EB AC                           	JMP	L58
  1043 00000AD2                                 L133:
  1044 00000AD2 83 BD FFFFFBB4 00               	CMP	DWORD [-1100+EBP],0
  1045 00000AD9 74 97                           	JE	L56
  1046 00000ADB 83 BD FFFFFB98 00               	CMP	DWORD [-1128+EBP],0
  1047 00000AE2 74 0C                           	JE	L57
  1048 00000AE4 FF B5 FFFFFB98                  	PUSH	DWORD [-1128+EBP]
  1049 00000AEA E8 000002F6                     	CALL	_keywin_off
  1050 00000AEF 58                              	POP	EAX
  1051 00000AF0                                 L57:
  1052 00000AF0 FF B5 FFFFFBC0                  	PUSH	DWORD [-1088+EBP]
  1053 00000AF6 FF B5 FFFFFBDC                  	PUSH	DWORD [-1060+EBP]
  1054 00000AFC E8 000004FE                     	CALL	_open_console
  1055 00000B01 6A 04                           	PUSH	4
  1056 00000B03 6A 20                           	PUSH	32
  1057 00000B05 50                              	PUSH	EAX
  1058 00000B06 89 85 FFFFFB98                  	MOV	DWORD [-1128+EBP],EAX
  1059 00000B0C E8 [00000000]                   	CALL	_sheet_slide
  1060 00000B11 8B 85 FFFFFBDC                  	MOV	EAX,DWORD [-1060+EBP]
  1061 00000B17 FF 70 10                        	PUSH	DWORD [16+EAX]
  1062 00000B1A FF B5 FFFFFB98                  	PUSH	DWORD [-1128+EBP]
  1063 00000B20 E8 [00000000]                   	CALL	_sheet_updown
  1064 00000B25 FF B5 FFFFFB98                  	PUSH	DWORD [-1128+EBP]
  1065 00000B2B E8 000002E3                     	CALL	_keywin_on
  1066 00000B30 83 C4 20                        	ADD	ESP,32
  1067 00000B33 E9 FFFFFF3A                     	JMP	L56
  1068 00000B38                                 L132:
  1069 00000B38 83 BD FFFFFBB4 00               	CMP	DWORD [-1100+EBP],0
  1070 00000B3F 0F 84 FFFFFF21                  	JE	L54
  1071 00000B45 83 BD FFFFFB98 00               	CMP	DWORD [-1128+EBP],0
  1072 00000B4C 0F 84 FFFFFF14                  	JE	L54
  1073 00000B52 8B 95 FFFFFB98                  	MOV	EDX,DWORD [-1128+EBP]
  1074 00000B58 8B 72 24                        	MOV	ESI,DWORD [36+EDX]
  1075 00000B5B 85 F6                           	TEST	ESI,ESI
  1076 00000B5D 0F 84 FFFFFF03                  	JE	L54
  1077 00000B63 83 7E 34 00                     	CMP	DWORD [52+ESI],0
  1078 00000B67 0F 84 FFFFFEF9                  	JE	L54
  1079 00000B6D 68 [0000011D]                   	PUSH	LC1
  1080 00000B72 FF B6 000000B4                  	PUSH	DWORD [180+ESI]
  1081 00000B78 E8 [00000000]                   	CALL	_cons_putstr0
  1082 00000B7D E8 [00000000]                   	CALL	_io_cli
  1083 00000B82 8D 46 30                        	LEA	EAX,DWORD [48+ESI]
  1084 00000B85 89 46 54                        	MOV	DWORD [84+ESI],EAX
  1085 00000B88 C7 46 4C [00000000]             	MOV	DWORD [76+ESI],_asm_end_app
  1086 00000B8F E8 [00000000]                   	CALL	_io_sti
  1087 00000B94 6A 00                           	PUSH	0
  1088 00000B96 6A FF                           	PUSH	-1
  1089 00000B98 56                              	PUSH	ESI
  1090 00000B99 E8 [00000000]                   	CALL	_task_run
  1091 00000B9E 83 C4 14                        	ADD	ESP,20
  1092 00000BA1 E9 FFFFFEC0                     	JMP	L54
  1093 00000BA6                                 L131:
  1094 00000BA6 68 000000ED                     	PUSH	237
  1095 00000BAB 8D 5D 84                        	LEA	EBX,DWORD [-124+EBP]
  1096 00000BAE 53                              	PUSH	EBX
  1097 00000BAF 83 B5 FFFFFBB0 01               	XOR	DWORD [-1104+EBP],1
  1098 00000BB6 E8 [00000000]                   	CALL	_fifo32_put
  1099 00000BBB FF B5 FFFFFBB0                  	PUSH	DWORD [-1104+EBP]
  1100 00000BC1 53                              	PUSH	EBX
  1101 00000BC2 E8 [00000000]                   	CALL	_fifo32_put
  1102 00000BC7 83 C4 10                        	ADD	ESP,16
  1103 00000BCA E9 FFFFFE87                     	JMP	L53
  1104 00000BCF                                 L130:
  1105 00000BCF 68 000000ED                     	PUSH	237
  1106 00000BD4 8D 5D 84                        	LEA	EBX,DWORD [-124+EBP]
  1107 00000BD7 53                              	PUSH	EBX
  1108 00000BD8 83 B5 FFFFFBB0 02               	XOR	DWORD [-1104+EBP],2
  1109 00000BDF E8 [00000000]                   	CALL	_fifo32_put
  1110 00000BE4 FF B5 FFFFFBB0                  	PUSH	DWORD [-1104+EBP]
  1111 00000BEA 53                              	PUSH	EBX
  1112 00000BEB E8 [00000000]                   	CALL	_fifo32_put
  1113 00000BF0 83 C4 10                        	ADD	ESP,16
  1114 00000BF3 E9 FFFFFE4E                     	JMP	L52
  1115 00000BF8                                 L129:
  1116 00000BF8 68 000000ED                     	PUSH	237
  1117 00000BFD 8D 5D 84                        	LEA	EBX,DWORD [-124+EBP]
  1118 00000C00 53                              	PUSH	EBX
  1119 00000C01 83 B5 FFFFFBB0 04               	XOR	DWORD [-1104+EBP],4
  1120 00000C08 E8 [00000000]                   	CALL	_fifo32_put
  1121 00000C0D FF B5 FFFFFBB0                  	PUSH	DWORD [-1104+EBP]
  1122 00000C13 53                              	PUSH	EBX
  1123 00000C14 E8 [00000000]                   	CALL	_fifo32_put
  1124 00000C19 83 C4 10                        	ADD	ESP,16
  1125 00000C1C E9 FFFFFE15                     	JMP	L51
  1126 00000C21                                 L128:
  1127 00000C21 83 A5 FFFFFBB4 FD               	AND	DWORD [-1100+EBP],-3
  1128 00000C28 E9 FFFFFDFE                     	JMP	L50
  1129 00000C2D                                 L127:
  1130 00000C2D 83 A5 FFFFFBB4 FE               	AND	DWORD [-1100+EBP],-2
  1131 00000C34 E9 FFFFFDE7                     	JMP	L49
  1132 00000C39                                 L126:
  1133 00000C39 83 8D FFFFFBB4 02               	OR	DWORD [-1100+EBP],2
  1134 00000C40 E9 FFFFFDD0                     	JMP	L48
  1135 00000C45                                 L125:
  1136 00000C45 83 8D FFFFFBB4 01               	OR	DWORD [-1100+EBP],1
  1137 00000C4C E9 FFFFFDB9                     	JMP	L47
  1138 00000C51                                 L124:
  1139 00000C51 83 BD FFFFFB98 00               	CMP	DWORD [-1128+EBP],0
  1140 00000C58 0F 84 FFFFFD9B                  	JE	L45
  1141 00000C5E FF B5 FFFFFB98                  	PUSH	DWORD [-1128+EBP]
  1142 00000C64 E8 0000017C                     	CALL	_keywin_off
  1143 00000C69 58                              	POP	EAX
  1144 00000C6A 8B 85 FFFFFB98                  	MOV	EAX,DWORD [-1128+EBP]
  1145 00000C70 8B 58 18                        	MOV	EBX,DWORD [24+EAX]
  1146 00000C73 4B                              	DEC	EBX
  1147 00000C74 75 0A                           	JNE	L46
  1148 00000C76 8B 95 FFFFFBDC                  	MOV	EDX,DWORD [-1060+EBP]
  1149 00000C7C 8B 5A 10                        	MOV	EBX,DWORD [16+EDX]
  1150 00000C7F 4B                              	DEC	EBX
  1151 00000C80                                 L46:
  1152 00000C80 8B 85 FFFFFBDC                  	MOV	EAX,DWORD [-1060+EBP]
  1153 00000C86 8B 5C 98 14                     	MOV	EBX,DWORD [20+EAX+EBX*4]
  1154 00000C8A 53                              	PUSH	EBX
  1155 00000C8B 89 9D FFFFFB98                  	MOV	DWORD [-1128+EBP],EBX
  1156 00000C91 E8 0000017D                     	CALL	_keywin_on
  1157 00000C96 58                              	POP	EAX
  1158 00000C97 E9 FFFFFD5D                     	JMP	L45
  1159 00000C9C                                 L42:
  1160 00000C9C 8D 42 20                        	LEA	EAX,DWORD [32+EDX]
  1161 00000C9F 88 45 C4                        	MOV	BYTE [-60+EBP],AL
  1162 00000CA2 E9 FFFFFD15                     	JMP	L40
  1163 00000CA7                                 L104:
  1164 00000CA7 83 BD FFFFFBB4 00               	CMP	DWORD [-1100+EBP],0
  1165 00000CAE 0F 84 FFFFFD08                  	JE	L40
  1166 00000CB4 EB E6                           	JMP	L42
  1167 00000CB6                                 L37:
  1168 00000CB6 8A 82 [FFFFFF80]                	MOV	AL,BYTE [_keytable1.1-256+EDX]
  1169 00000CBC E9 FFFFFCD1                     	JMP	L109
  1170 00000CC1                                 L36:
  1171 00000CC1 C6 45 C4 00                     	MOV	BYTE [-60+EBP],0
  1172 00000CC5 E9 FFFFFCCB                     	JMP	L39
  1173 00000CCA                                 L113:
  1174 00000CCA 83 BD FFFFFBD0 00               	CMP	DWORD [-1072+EBP],0
  1175 00000CD1 79 2B                           	JNS	L136
  1176 00000CD3 81 BD FFFFFBC8 7FFFFFFF         	CMP	DWORD [-1080+EBP],2147483647
  1177 00000CDD 75 15                           	JNE	L137
  1178 00000CDF FF B5 FFFFFBB8                  	PUSH	DWORD [-1096+EBP]
  1179 00000CE5 E8 [00000000]                   	CALL	_task_sleep
  1180 00000CEA E8 [00000000]                   	CALL	_io_sti
  1181 00000CEF E9 FFFFF95A                     	JMP	L106
  1182 00000CF4                                 L137:
  1183 00000CF4 E8 [00000000]                   	CALL	_io_sti
  1184 00000CF9 E9 FFFFFA21                     	JMP	L108
  1185 00000CFE                                 L136:
  1186 00000CFE E8 [00000000]                   	CALL	_io_sti
  1187 00000D03 FF B5 FFFFFBCC                  	PUSH	DWORD [-1076+EBP]
  1188 00000D09 FF B5 FFFFFBD0                  	PUSH	DWORD [-1072+EBP]
  1189 00000D0F FF B5 FFFFFBBC                  	PUSH	DWORD [-1092+EBP]
  1190 00000D15 E8 [00000000]                   	CALL	_sheet_slide
  1191 00000D1A C7 85 FFFFFBD0 FFFFFFFF         	MOV	DWORD [-1072+EBP],-1
  1192 00000D24 E9 FFFFF7B3                     	JMP	L107
  1193 00000D29                                 L112:
  1194 00000D29 53                              	PUSH	EBX
  1195 00000D2A E8 [00000000]                   	CALL	_fifo32_get
  1196 00000D2F 89 85 FFFFFBAC                  	MOV	DWORD [-1108+EBP],EAX
  1197 00000D35 E8 [00000000]                   	CALL	_wait_KBC_sendready
  1198 00000D3A FF B5 FFFFFBAC                  	PUSH	DWORD [-1108+EBP]
  1199 00000D40 6A 60                           	PUSH	96
  1200 00000D42 E8 [00000000]                   	CALL	_io_out8
  1201 00000D47 83 C4 0C                        	ADD	ESP,12
  1202 00000D4A E9 FFFFF7AB                     	JMP	L25
  1203 00000D4F                                 L5:
  1204 00000D4F 68 00023840                     	PUSH	145472
  1205 00000D54 68 003C0000                     	PUSH	3932160
  1206 00000D59 E8 [00000000]                   	CALL	_memman_alloc_4k
  1207 00000D5E 6A 00                           	PUSH	0
  1208 00000D60 68 00005939                     	PUSH	22841
  1209 00000D65 89 C3                           	MOV	EBX,EAX
  1210 00000D67 6A 07                           	PUSH	7
  1211 00000D69 50                              	PUSH	EAX
  1212 00000D6A 8D 85 FFFFFCE4                  	LEA	EAX,DWORD [-796+EBP]
  1213 00000D70 68 00268000                     	PUSH	2523136
  1214 00000D75 50                              	PUSH	EAX
  1215 00000D76 E8 [00000000]                   	CALL	_memmam_link_page_32_m
  1216 00000D7B 31 D2                           	XOR	EDX,EDX
  1217 00000D7D C7 85 FFFFFBE0 00000000         	MOV	DWORD [-1056+EBP],0
  1218 00000D87 83 C4 20                        	ADD	ESP,32
  1219 00000D8A                                 L11:
  1220 00000D8A 8A 82 [00000000]                	MOV	AL,BYTE [_hankaku+EDX]
  1221 00000D90 88 04 1A                        	MOV	BYTE [EDX+EBX*1],AL
  1222 00000D93 8B 85 FFFFFBE0                  	MOV	EAX,DWORD [-1056+EBP]
  1223 00000D99 40                              	INC	EAX
  1224 00000D9A 89 85 FFFFFBE0                  	MOV	DWORD [-1056+EBP],EAX
  1225 00000DA0 89 C2                           	MOV	EDX,EAX
  1226 00000DA2 3D 00000FFF                     	CMP	EAX,4095
  1227 00000DA7 7E E1                           	JLE	L11
  1228 00000DA9 C7 85 FFFFFBE0 00001000         	MOV	DWORD [-1056+EBP],4096
  1229 00000DB3 B8 00001000                     	MOV	EAX,4096
  1230 00000DB8                                 L16:
  1231 00000DB8 C6 04 18 FF                     	MOV	BYTE [EAX+EBX*1],-1
  1232 00000DBC 8B 85 FFFFFBE0                  	MOV	EAX,DWORD [-1056+EBP]
  1233 00000DC2 40                              	INC	EAX
  1234 00000DC3 89 85 FFFFFBE0                  	MOV	DWORD [-1056+EBP],EAX
  1235 00000DC9 3D 0002383F                     	CMP	EAX,145471
  1236 00000DCE 7E E8                           	JLE	L16
  1237 00000DD0 E9 FFFFF6AB                     	JMP	L6
  1238 00000DD5                                 L111:
  1239 00000DD5 68 FEE00000                     	PUSH	-18874368
  1240 00000DDA E8 [00000000]                   	CALL	_init_apic
  1241 00000DDF 58                              	POP	EAX
  1242 00000DE0 E9 FFFFF3CE                     	JMP	L3
  1243 00000DE5                                 	GLOBAL	_keywin_off
  1244 00000DE5                                 _keywin_off:
  1245 00000DE5 55                              	PUSH	EBP
  1246 00000DE6 89 E5                           	MOV	EBP,ESP
  1247 00000DE8 53                              	PUSH	EBX
  1248 00000DE9 6A 00                           	PUSH	0
  1249 00000DEB 8B 5D 08                        	MOV	EBX,DWORD [8+EBP]
  1250 00000DEE 53                              	PUSH	EBX
  1251 00000DEF E8 [00000000]                   	CALL	_change_wtitle8
  1252 00000DF4 F6 43 1C 20                     	TEST	BYTE [28+EBX],32
  1253 00000DF8 59                              	POP	ECX
  1254 00000DF9 58                              	POP	EAX
  1255 00000DFA 75 05                           	JNE	L140
  1256 00000DFC                                 L138:
  1257 00000DFC 8B 5D FC                        	MOV	EBX,DWORD [-4+EBP]
  1258 00000DFF C9                              	LEAVE
  1259 00000E00 C3                              	RET
  1260 00000E01                                 L140:
  1261 00000E01 6A 03                           	PUSH	3
  1262 00000E03 8B 43 24                        	MOV	EAX,DWORD [36+EBX]
  1263 00000E06 83 C0 10                        	ADD	EAX,16
  1264 00000E09 50                              	PUSH	EAX
  1265 00000E0A E8 [00000000]                   	CALL	_fifo32_put
  1266 00000E0F 58                              	POP	EAX
  1267 00000E10 5A                              	POP	EDX
  1268 00000E11 EB E9                           	JMP	L138
  1269 00000E13                                 	GLOBAL	_keywin_on
  1270 00000E13                                 _keywin_on:
  1271 00000E13 55                              	PUSH	EBP
  1272 00000E14 89 E5                           	MOV	EBP,ESP
  1273 00000E16 53                              	PUSH	EBX
  1274 00000E17 6A 01                           	PUSH	1
  1275 00000E19 8B 5D 08                        	MOV	EBX,DWORD [8+EBP]
  1276 00000E1C 53                              	PUSH	EBX
  1277 00000E1D E8 [00000000]                   	CALL	_change_wtitle8
  1278 00000E22 F6 43 1C 20                     	TEST	BYTE [28+EBX],32
  1279 00000E26 59                              	POP	ECX
  1280 00000E27 58                              	POP	EAX
  1281 00000E28 75 05                           	JNE	L143
  1282 00000E2A                                 L141:
  1283 00000E2A 8B 5D FC                        	MOV	EBX,DWORD [-4+EBP]
  1284 00000E2D C9                              	LEAVE
  1285 00000E2E C3                              	RET
  1286 00000E2F                                 L143:
  1287 00000E2F 6A 02                           	PUSH	2
  1288 00000E31 8B 43 24                        	MOV	EAX,DWORD [36+EBX]
  1289 00000E34 83 C0 10                        	ADD	EAX,16
  1290 00000E37 50                              	PUSH	EAX
  1291 00000E38 E8 [00000000]                   	CALL	_fifo32_put
  1292 00000E3D 58                              	POP	EAX
  1293 00000E3E 5A                              	POP	EDX
  1294 00000E3F EB E9                           	JMP	L141
  1295 00000E41                                 	GLOBAL	_open_constask
  1296 00000E41                                 _open_constask:
  1297 00000E41 55                              	PUSH	EBP
  1298 00000E42 89 E5                           	MOV	EBP,ESP
  1299 00000E44 57                              	PUSH	EDI
  1300 00000E45 56                              	PUSH	ESI
  1301 00000E46 53                              	PUSH	EBX
  1302 00000E47 83 EC 10                        	SUB	ESP,16
  1303 00000E4A A1 0026F000                     	MOV	EAX,DWORD [2551808]
  1304 00000E4F 89 45 F0                        	MOV	DWORD [-16+EBP],EAX
  1305 00000E52 E8 [00000000]                   	CALL	_task_alloc
  1306 00000E57 89 C6                           	MOV	ESI,EAX
  1307 00000E59 E8 [00000000]                   	CALL	_task_now
  1308 00000E5E 68 00000200                     	PUSH	512
  1309 00000E63 68 003C0000                     	PUSH	3932160
  1310 00000E68 89 45 EC                        	MOV	DWORD [-20+EBP],EAX
  1311 00000E6B E8 [00000000]                   	CALL	_memman_alloc_4k
  1312 00000E70 6A 00                           	PUSH	0
  1313 00000E72 6A 01                           	PUSH	1
  1314 00000E74 6A 07                           	PUSH	7
  1315 00000E76 89 45 E8                        	MOV	DWORD [-24+EBP],EAX
  1316 00000E79 50                              	PUSH	EAX
  1317 00000E7A 68 00268000                     	PUSH	2523136
  1318 00000E7F FF 75 F0                        	PUSH	DWORD [-16+EBP]
  1319 00000E82 E8 [00000000]                   	CALL	_memmam_link_page_32_m
  1320 00000E87 83 C4 20                        	ADD	ESP,32
  1321 00000E8A 68 00010000                     	PUSH	65536
  1322 00000E8F 68 003C0000                     	PUSH	3932160
  1323 00000E94 E8 [00000000]                   	CALL	_memman_alloc_4k
  1324 00000E99 89 86 000000BC                  	MOV	DWORD [188+ESI],EAX
  1325 00000E9F 6A 00                           	PUSH	0
  1326 00000EA1 6A 10                           	PUSH	16
  1327 00000EA3 6A 07                           	PUSH	7
  1328 00000EA5 50                              	PUSH	EAX
  1329 00000EA6 FF 75 F0                        	PUSH	DWORD [-16+EBP]
  1330 00000EA9 E8 [00000000]                   	CALL	_pageman_link_page_32_m
  1331 00000EAE 8B 86 000000BC                  	MOV	EAX,DWORD [188+ESI]
  1332 00000EB4 05 0000FFF4                     	ADD	EAX,65524
  1333 00000EB9 89 46 64                        	MOV	DWORD [100+ESI],EAX
  1334 00000EBC C7 46 4C [00000000]             	MOV	DWORD [76+ESI],_console_task
  1335 00000EC3 C7 46 74 00000008               	MOV	DWORD [116+ESI],8
  1336 00000ECA C7 46 78 00000010               	MOV	DWORD [120+ESI],16
  1337 00000ED1 C7 46 7C 00000008               	MOV	DWORD [124+ESI],8
  1338 00000ED8 C7 86 00000080 00000008         	MOV	DWORD [128+ESI],8
  1339 00000EE2 C7 86 00000084 00000008         	MOV	DWORD [132+ESI],8
  1340 00000EEC C7 86 00000088 00000008         	MOV	DWORD [136+ESI],8
  1341 00000EF6 C7 86 000000F0 00000008         	MOV	DWORD [240+ESI],8
  1342 00000F00 68 00001000                     	PUSH	4096
  1343 00000F05 68 003C0000                     	PUSH	3932160
  1344 00000F0A E8 [00000000]                   	CALL	_memman_alloc_4k
  1345 00000F0F 83 C4 24                        	ADD	ESP,36
  1346 00000F12 FF 75 F0                        	PUSH	DWORD [-16+EBP]
  1347 00000F15 89 C7                           	MOV	EDI,EAX
  1348 00000F17 E8 [00000000]                   	CALL	_memman_alloc_page_32
  1349 00000F1C 89 C3                           	MOV	EBX,EAX
  1350 00000F1E 6A 01                           	PUSH	1
  1351 00000F20 83 CB 07                        	OR	EBX,7
  1352 00000F23 89 45 E4                        	MOV	DWORD [-28+EBP],EAX
  1353 00000F26 53                              	PUSH	EBX
  1354 00000F27 57                              	PUSH	EDI
  1355 00000F28 FF 75 F0                        	PUSH	DWORD [-16+EBP]
  1356 00000F2B E8 [00000000]                   	CALL	_pageman_link_page_32
  1357 00000F30 83 C4 14                        	ADD	ESP,20
  1358 00000F33 89 9F 00000FFC                  	MOV	DWORD [4092+EDI],EBX
  1359 00000F39 BA 00000C00                     	MOV	EDX,3072
  1360 00000F3E                                 L149:
  1361 00000F3E 8A 82 FFFFF000                  	MOV	AL,BYTE [-4096+EDX]
  1362 00000F44 88 04 3A                        	MOV	BYTE [EDX+EDI*1],AL
  1363 00000F47 42                              	INC	EDX
  1364 00000F48 81 FA 00000FFB                  	CMP	EDX,4091
  1365 00000F4E 7E EE                           	JLE	L149
  1366 00000F50 31 D2                           	XOR	EDX,EDX
  1367 00000F52                                 L154:
  1368 00000F52 8B 04 95 FFFFF000               	MOV	EAX,DWORD [-4096+EDX*4]
  1369 00000F59 89 04 97                        	MOV	DWORD [EDI+EDX*4],EAX
  1370 00000F5C 42                              	INC	EDX
  1371 00000F5D 83 FA 02                        	CMP	EDX,2
  1372 00000F60 7E F0                           	JLE	L154
  1373 00000F62 81 65 E4 FFFFF000               	AND	DWORD [-28+EBP],-4096
  1374 00000F69 8B 45 E4                        	MOV	EAX,DWORD [-28+EBP]
  1375 00000F6C 89 46 48                        	MOV	DWORD [72+ESI],EAX
  1376 00000F6F 68 00007FE0                     	PUSH	32736
  1377 00000F74 68 003C0000                     	PUSH	3932160
  1378 00000F79 E8 [00000000]                   	CALL	_memman_alloc_4k
  1379 00000F7E 89 86 00000104                  	MOV	DWORD [260+ESI],EAX
  1380 00000F84 6A 00                           	PUSH	0
  1381 00000F86 6A 08                           	PUSH	8
  1382 00000F88 6A 07                           	PUSH	7
  1383 00000F8A 50                              	PUSH	EAX
  1384 00000F8B 68 00268000                     	PUSH	2523136
  1385 00000F90 FF 75 F0                        	PUSH	DWORD [-16+EBP]
  1386 00000F93 E8 [00000000]                   	CALL	_memmam_link_page_32_m
  1387 00000F98 83 C4 20                        	ADD	ESP,32
  1388 00000F9B FF B6 00000104                  	PUSH	DWORD [260+ESI]
  1389 00000FA1 E8 [00000000]                   	CALL	_memman_init
  1390 00000FA6 68 BFFFFFFF                     	PUSH	-1073741825
  1391 00000FAB 68 00C00000                     	PUSH	12582912
  1392 00000FB0 FF B6 00000104                  	PUSH	DWORD [260+ESI]
  1393 00000FB6 E8 [00000000]                   	CALL	_memman_free
  1394 00000FBB 8B 45 08                        	MOV	EAX,DWORD [8+EBP]
  1395 00000FBE 8B 56 64                        	MOV	EDX,DWORD [100+ESI]
  1396 00000FC1 89 42 04                        	MOV	DWORD [4+EDX],EAX
  1397 00000FC4 8B 56 64                        	MOV	EDX,DWORD [100+ESI]
  1398 00000FC7 8B 45 0C                        	MOV	EAX,DWORD [12+EBP]
  1399 00000FCA 89 42 08                        	MOV	DWORD [8+EDX],EAX
  1400 00000FCD 56                              	PUSH	ESI
  1401 00000FCE FF 75 EC                        	PUSH	DWORD [-20+EBP]
  1402 00000FD1 E8 [00000000]                   	CALL	_add_child_task
  1403 00000FD6 6A 02                           	PUSH	2
  1404 00000FD8 6A 02                           	PUSH	2
  1405 00000FDA 56                              	PUSH	ESI
  1406 00000FDB E8 [00000000]                   	CALL	_task_run
  1407 00000FE0 8D 46 10                        	LEA	EAX,DWORD [16+ESI]
  1408 00000FE3 83 C4 24                        	ADD	ESP,36
  1409 00000FE6 56                              	PUSH	ESI
  1410 00000FE7 FF 75 E8                        	PUSH	DWORD [-24+EBP]
  1411 00000FEA 68 00000080                     	PUSH	128
  1412 00000FEF 50                              	PUSH	EAX
  1413 00000FF0 E8 [00000000]                   	CALL	_fifo32_init
  1414 00000FF5 8D 65 F4                        	LEA	ESP,DWORD [-12+EBP]
  1415 00000FF8 5B                              	POP	EBX
  1416 00000FF9 89 F0                           	MOV	EAX,ESI
  1417 00000FFB 5E                              	POP	ESI
  1418 00000FFC 5F                              	POP	EDI
  1419 00000FFD 5D                              	POP	EBP
  1420 00000FFE C3                              	RET
  1421                                          [SECTION .data]
  1422 0000012C                                 LC3:
  1423 0000012C 63 6F 6E 73 6F 6C 65 00         	DB	"console",0x00
  1424                                          [SECTION .text]
  1425 00000FFF                                 	GLOBAL	_open_console
  1426 00000FFF                                 _open_console:
  1427 00000FFF 55                              	PUSH	EBP
  1428 00001000 89 E5                           	MOV	EBP,ESP
  1429 00001002 57                              	PUSH	EDI
  1430 00001003 56                              	PUSH	ESI
  1431 00001004 53                              	PUSH	EBX
  1432 00001005 8B 3D 0026F000                  	MOV	EDI,DWORD [2551808]
  1433 0000100B FF 75 08                        	PUSH	DWORD [8+EBP]
  1434 0000100E E8 [00000000]                   	CALL	_sheet_alloc
  1435 00001013 68 0000A500                     	PUSH	42240
  1436 00001018 68 003C0000                     	PUSH	3932160
  1437 0000101D 89 C3                           	MOV	EBX,EAX
  1438 0000101F E8 [00000000]                   	CALL	_memman_alloc_4k
  1439 00001024 6A 00                           	PUSH	0
  1440 00001026 6A 0B                           	PUSH	11
  1441 00001028 89 C6                           	MOV	ESI,EAX
  1442 0000102A 6A 07                           	PUSH	7
  1443 0000102C 50                              	PUSH	EAX
  1444 0000102D 68 00268000                     	PUSH	2523136
  1445 00001032 57                              	PUSH	EDI
  1446 00001033 E8 [00000000]                   	CALL	_memmam_link_page_32_m
  1447 00001038 83 C4 24                        	ADD	ESP,36
  1448 0000103B 6A FF                           	PUSH	-1
  1449 0000103D 68 000000A5                     	PUSH	165
  1450 00001042 68 00000100                     	PUSH	256
  1451 00001047 56                              	PUSH	ESI
  1452 00001048 53                              	PUSH	EBX
  1453 00001049 E8 [00000000]                   	CALL	_sheet_setbuf
  1454 0000104E 6A 00                           	PUSH	0
  1455 00001050 68 [0000012C]                   	PUSH	LC3
  1456 00001055 68 000000A5                     	PUSH	165
  1457 0000105A 68 00000100                     	PUSH	256
  1458 0000105F 56                              	PUSH	ESI
  1459 00001060 E8 [00000000]                   	CALL	_make_window8
  1460 00001065 83 C4 28                        	ADD	ESP,40
  1461 00001068 6A 00                           	PUSH	0
  1462 0000106A 68 00000080                     	PUSH	128
  1463 0000106F 68 000000F0                     	PUSH	240
  1464 00001074 6A 1C                           	PUSH	28
  1465 00001076 6A 08                           	PUSH	8
  1466 00001078 53                              	PUSH	EBX
  1467 00001079 E8 [00000000]                   	CALL	_make_textbox8
  1468 0000107E FF 75 0C                        	PUSH	DWORD [12+EBP]
  1469 00001081 53                              	PUSH	EBX
  1470 00001082 E8 FFFFFDBA                     	CALL	_open_constask
  1471 00001087 83 4B 1C 20                     	OR	DWORD [28+EBX],32
  1472 0000108B 89 43 24                        	MOV	DWORD [36+EBX],EAX
  1473 0000108E 8D 65 F4                        	LEA	ESP,DWORD [-12+EBP]
  1474 00001091 89 D8                           	MOV	EAX,EBX
  1475 00001093 5B                              	POP	EBX
  1476 00001094 5E                              	POP	ESI
  1477 00001095 5F                              	POP	EDI
  1478 00001096 5D                              	POP	EBP
  1479 00001097 C3                              	RET
  1480 00001098                                 	GLOBAL	_close_constask
  1481 00001098                                 _close_constask:
  1482 00001098 55                              	PUSH	EBP
  1483 00001099 89 E5                           	MOV	EBP,ESP
  1484 0000109B 57                              	PUSH	EDI
  1485 0000109C 56                              	PUSH	ESI
  1486 0000109D 31 FF                           	XOR	EDI,EDI
  1487 0000109F 53                              	PUSH	EBX
  1488 000010A0 BE 0000000F                     	MOV	ESI,15
  1489 000010A5 8B 1D 0026F000                  	MOV	EBX,DWORD [2551808]
  1490 000010AB FF 75 08                        	PUSH	DWORD [8+EBP]
  1491 000010AE E8 [00000000]                   	CALL	_task_sleep
  1492 000010B3 58                              	POP	EAX
  1493 000010B4                                 L165:
  1494 000010B4 8B 55 08                        	MOV	EDX,DWORD [8+EBP]
  1495 000010B7 8B 82 000000BC                  	MOV	EAX,DWORD [188+EDX]
  1496 000010BD 01 F8                           	ADD	EAX,EDI
  1497 000010BF 81 C7 00001000                  	ADD	EDI,4096
  1498 000010C5 50                              	PUSH	EAX
  1499 000010C6 68 00268000                     	PUSH	2523136
  1500 000010CB 53                              	PUSH	EBX
  1501 000010CC E8 [00000000]                   	CALL	_memman_unlink_page_32
  1502 000010D1 50                              	PUSH	EAX
  1503 000010D2 53                              	PUSH	EBX
  1504 000010D3 E8 [00000000]                   	CALL	_memman_free_page_32
  1505 000010D8 83 C4 14                        	ADD	ESP,20
  1506 000010DB 4E                              	DEC	ESI
  1507 000010DC 79 D6                           	JNS	L165
  1508 000010DE 8B 45 08                        	MOV	EAX,DWORD [8+EBP]
  1509 000010E1 68 00010000                     	PUSH	65536
  1510 000010E6 FF B0 000000BC                  	PUSH	DWORD [188+EAX]
  1511 000010EC 68 003C0000                     	PUSH	3932160
  1512 000010F1 E8 [00000000]                   	CALL	_memman_free_4k
  1513 000010F6 8B 55 08                        	MOV	EDX,DWORD [8+EBP]
  1514 000010F9 83 C4 0C                        	ADD	ESP,12
  1515 000010FC FF 72 10                        	PUSH	DWORD [16+EDX]
  1516 000010FF 68 00268000                     	PUSH	2523136
  1517 00001104 53                              	PUSH	EBX
  1518 00001105 E8 [00000000]                   	CALL	_memman_unlink_page_32
  1519 0000110A 50                              	PUSH	EAX
  1520 0000110B 53                              	PUSH	EBX
  1521 0000110C E8 [00000000]                   	CALL	_memman_free_page_32
  1522 00001111 8B 45 08                        	MOV	EAX,DWORD [8+EBP]
  1523 00001114 83 C4 14                        	ADD	ESP,20
  1524 00001117 68 00000200                     	PUSH	512
  1525 0000111C FF 70 10                        	PUSH	DWORD [16+EAX]
  1526 0000111F 68 003C0000                     	PUSH	3932160
  1527 00001124 E8 [00000000]                   	CALL	_memman_free_4k
  1528 00001129 8B 55 08                        	MOV	EDX,DWORD [8+EBP]
  1529 0000112C C7 42 04 00000000               	MOV	DWORD [4+EDX],0
  1530 00001133 8D 65 F4                        	LEA	ESP,DWORD [-12+EBP]
  1531 00001136 5B                              	POP	EBX
  1532 00001137 5E                              	POP	ESI
  1533 00001138 5F                              	POP	EDI
  1534 00001139 5D                              	POP	EBP
  1535 0000113A C3                              	RET
  1536 0000113B                                 	GLOBAL	_close_console
  1537 0000113B                                 _close_console:
  1538 0000113B 55                              	PUSH	EBP
  1539 0000113C 89 E5                           	MOV	EBP,ESP
  1540 0000113E 57                              	PUSH	EDI
  1541 0000113F 56                              	PUSH	ESI
  1542 00001140 31 FF                           	XOR	EDI,EDI
  1543 00001142 53                              	PUSH	EBX
  1544 00001143 BE 0000000A                     	MOV	ESI,10
  1545 00001148 50                              	PUSH	EAX
  1546 00001149 50                              	PUSH	EAX
  1547 0000114A 8B 5D 08                        	MOV	EBX,DWORD [8+EBP]
  1548 0000114D A1 0026F000                     	MOV	EAX,DWORD [2551808]
  1549 00001152 89 45 F0                        	MOV	DWORD [-16+EBP],EAX
  1550 00001155 8B 43 24                        	MOV	EAX,DWORD [36+EBX]
  1551 00001158 89 45 EC                        	MOV	DWORD [-20+EBP],EAX
  1552 0000115B                                 L180:
  1553 0000115B 8B 03                           	MOV	EAX,DWORD [EBX]
  1554 0000115D 01 F8                           	ADD	EAX,EDI
  1555 0000115F 81 C7 00001000                  	ADD	EDI,4096
  1556 00001165 50                              	PUSH	EAX
  1557 00001166 68 00268000                     	PUSH	2523136
  1558 0000116B FF 75 F0                        	PUSH	DWORD [-16+EBP]
  1559 0000116E E8 [00000000]                   	CALL	_memman_unlink_page_32
  1560 00001173 50                              	PUSH	EAX
  1561 00001174 FF 75 F0                        	PUSH	DWORD [-16+EBP]
  1562 00001177 E8 [00000000]                   	CALL	_memman_free_page_32
  1563 0000117C 83 C4 14                        	ADD	ESP,20
  1564 0000117F 4E                              	DEC	ESI
  1565 00001180 79 D9                           	JNS	L180
  1566 00001182 68 0000A500                     	PUSH	42240
  1567 00001187 FF 33                           	PUSH	DWORD [EBX]
  1568 00001189 68 003C0000                     	PUSH	3932160
  1569 0000118E E8 [00000000]                   	CALL	_memman_free_4k
  1570 00001193 53                              	PUSH	EBX
  1571 00001194 E8 [00000000]                   	CALL	_sheet_free
  1572 00001199 8B 45 EC                        	MOV	EAX,DWORD [-20+EBP]
  1573 0000119C 89 45 08                        	MOV	DWORD [8+EBP],EAX
  1574 0000119F 83 C4 10                        	ADD	ESP,16
  1575 000011A2 8D 65 F4                        	LEA	ESP,DWORD [-12+EBP]
  1576 000011A5 5B                              	POP	EBX
  1577 000011A6 5E                              	POP	ESI
  1578 000011A7 5F                              	POP	EDI
  1579 000011A8 5D                              	POP	EBP
  1580 000011A9 E9 FFFFFEEA                     	JMP	_close_constask
