     1 00000000                                 [FORMAT "WCOFF"]
     2 00000000                                 [INSTRSET "i486p"]
     3 00000000                                 [OPTIMIZE 1]
     4 00000000                                 [OPTION 1]
     5 00000000                                 [BITS 32]
     6 00000000                                 	EXTERN	_init_gdtidt
     7 00000000                                 	EXTERN	_support_apic
     8 00000000                                 	EXTERN	_init_pic
     9 00000000                                 	EXTERN	_io_sti
    10 00000000                                 	EXTERN	_fifo32_init
    11 00000000                                 	EXTERN	_init_pit
    12 00000000                                 	EXTERN	_init_keyboard
    13 00000000                                 	EXTERN	_enable_mouse
    14 00000000                                 	EXTERN	_memtest
    15 00000000                                 	EXTERN	_memman_init
    16 00000000                                 	EXTERN	_memman_free
    17 00000000                                 	EXTERN	_init_palette
    18 00000000                                 	EXTERN	_shtctl_init
    19 00000000                                 	EXTERN	_task_init
    20 00000000                                 	EXTERN	_task_run
    21 00000000                                 	EXTERN	_sheet_alloc
    22 00000000                                 	EXTERN	_memman_alloc_4k
    23 00000000                                 	EXTERN	_sheet_setbuf
    24 00000000                                 	EXTERN	_init_screen8
    25 00000000                                 	EXTERN	_init_mouse_cursor8
    26 00000000                                 	EXTERN	_sheet_slide
    27 00000000                                 	EXTERN	_sheet_updown
    28 00000000                                 	EXTERN	_fifo32_put
    29 00000000                                 	EXTERN	_file_readfat
    30 00000000                                 	EXTERN	_file_search
    31 00000000                                 	EXTERN	_file_loadfile2
    32 00000000                                 	EXTERN	_memman_free_4k
    33 00000000                                 	EXTERN	_fifo32_status
    34 00000000                                 	EXTERN	_io_cli
    35 00000000                                 	EXTERN	_fifo32_get
    36 00000000                                 	EXTERN	_sheet_free
    37 00000000                                 	EXTERN	_taskctl
    38 00000000                                 	EXTERN	_mouse_decode
    39 00000000                                 	EXTERN	_cons_putstr0
    40 00000000                                 	EXTERN	_asm_end_app
    41 00000000                                 	EXTERN	_keytable0.0
    42 00000000                                 	EXTERN	_wait_KBC_sendready
    43 00000000                                 	EXTERN	_io_out8
    44 00000000                                 	EXTERN	_keytable1.1
    45 00000000                                 	EXTERN	_task_sleep
    46 00000000                                 	EXTERN	_hankaku
    47 00000000                                 	EXTERN	_init_apic
    48 00000000                                 	EXTERN	_change_wtitle8
    49 00000000                                 	EXTERN	_task_alloc
    50 00000000                                 	EXTERN	_console_task
    51 00000000                                 	EXTERN	_make_window8
    52 00000000                                 	EXTERN	_make_textbox8
    53 00000000                                 [FILE "bootpack.c"]
    54                                          [SECTION .data]
    55 00000000                                 _keytable0.0:
    56 00000000 00                              	DB	0
    57 00000001 00                              	DB	0
    58 00000002 31                              	DB	49
    59 00000003 32                              	DB	50
    60 00000004 33                              	DB	51
    61 00000005 34                              	DB	52
    62 00000006 35                              	DB	53
    63 00000007 36                              	DB	54
    64 00000008 37                              	DB	55
    65 00000009 38                              	DB	56
    66 0000000A 39                              	DB	57
    67 0000000B 30                              	DB	48
    68 0000000C 2D                              	DB	45
    69 0000000D 5E                              	DB	94
    70 0000000E 08                              	DB	8
    71 0000000F 00                              	DB	0
    72 00000010 51                              	DB	81
    73 00000011 57                              	DB	87
    74 00000012 45                              	DB	69
    75 00000013 52                              	DB	82
    76 00000014 54                              	DB	84
    77 00000015 59                              	DB	89
    78 00000016 55                              	DB	85
    79 00000017 49                              	DB	73
    80 00000018 4F                              	DB	79
    81 00000019 50                              	DB	80
    82 0000001A 40                              	DB	64
    83 0000001B 5B                              	DB	91
    84 0000001C 0A                              	DB	10
    85 0000001D 00                              	DB	0
    86 0000001E 41                              	DB	65
    87 0000001F 53                              	DB	83
    88 00000020 44                              	DB	68
    89 00000021 46                              	DB	70
    90 00000022 47                              	DB	71
    91 00000023 48                              	DB	72
    92 00000024 4A                              	DB	74
    93 00000025 4B                              	DB	75
    94 00000026 4C                              	DB	76
    95 00000027 3B                              	DB	59
    96 00000028 3A                              	DB	58
    97 00000029 00                              	DB	0
    98 0000002A 00                              	DB	0
    99 0000002B 5D                              	DB	93
   100 0000002C 5A                              	DB	90
   101 0000002D 58                              	DB	88
   102 0000002E 43                              	DB	67
   103 0000002F 56                              	DB	86
   104 00000030 42                              	DB	66
   105 00000031 4E                              	DB	78
   106 00000032 4D                              	DB	77
   107 00000033 2C                              	DB	44
   108 00000034 2E                              	DB	46
   109 00000035 2F                              	DB	47
   110 00000036 00                              	DB	0
   111 00000037 2A                              	DB	42
   112 00000038 00                              	DB	0
   113 00000039 20                              	DB	32
   114 0000003A 00                              	DB	0
   115 0000003B 00                              	DB	0
   116 0000003C 00                              	DB	0
   117 0000003D 00                              	DB	0
   118 0000003E 00                              	DB	0
   119 0000003F 00                              	DB	0
   120 00000040 00                              	DB	0
   121 00000041 00                              	DB	0
   122 00000042 00                              	DB	0
   123 00000043 00                              	DB	0
   124 00000044 00                              	DB	0
   125 00000045 00                              	DB	0
   126 00000046 00                              	DB	0
   127 00000047 37                              	DB	55
   128 00000048 38                              	DB	56
   129 00000049 39                              	DB	57
   130 0000004A 2D                              	DB	45
   131 0000004B 34                              	DB	52
   132 0000004C 35                              	DB	53
   133 0000004D 36                              	DB	54
   134 0000004E 2B                              	DB	43
   135 0000004F 31                              	DB	49
   136 00000050 32                              	DB	50
   137 00000051 33                              	DB	51
   138 00000052 30                              	DB	48
   139 00000053 2E                              	DB	46
   140 00000054 00                              	DB	0
   141 00000055 00                              	DB	0
   142 00000056 00                              	DB	0
   143 00000057 00                              	DB	0
   144 00000058 00                              	DB	0
   145 00000059 00                              	DB	0
   146 0000005A 00                              	DB	0
   147 0000005B 00                              	DB	0
   148 0000005C 00                              	DB	0
   149 0000005D 00                              	DB	0
   150 0000005E 00                              	DB	0
   151 0000005F 00                              	DB	0
   152 00000060 00                              	DB	0
   153 00000061 00                              	DB	0
   154 00000062 00                              	DB	0
   155 00000063 00                              	DB	0
   156 00000064 00                              	DB	0
   157 00000065 00                              	DB	0
   158 00000066 00                              	DB	0
   159 00000067 00                              	DB	0
   160 00000068 00                              	DB	0
   161 00000069 00                              	DB	0
   162 0000006A 00                              	DB	0
   163 0000006B 00                              	DB	0
   164 0000006C 00                              	DB	0
   165 0000006D 00                              	DB	0
   166 0000006E 00                              	DB	0
   167 0000006F 00                              	DB	0
   168 00000070 00                              	DB	0
   169 00000071 00                              	DB	0
   170 00000072 00                              	DB	0
   171 00000073 5C                              	DB	92
   172 00000074 00                              	DB	0
   173 00000075 00                              	DB	0
   174 00000076 00                              	DB	0
   175 00000077 00                              	DB	0
   176 00000078 00                              	DB	0
   177 00000079 00                              	DB	0
   178 0000007A 00                              	DB	0
   179 0000007B 00                              	DB	0
   180 0000007C 00                              	DB	0
   181 0000007D 5C                              	DB	92
   182 0000007E 00                              	DB	0
   183 0000007F 00                              	DB	0
   184 00000080                                 _keytable1.1:
   185 00000080 00                              	DB	0
   186 00000081 00                              	DB	0
   187 00000082 21                              	DB	33
   188 00000083 22                              	DB	34
   189 00000084 23                              	DB	35
   190 00000085 24                              	DB	36
   191 00000086 25                              	DB	37
   192 00000087 26                              	DB	38
   193 00000088 27                              	DB	39
   194 00000089 28                              	DB	40
   195 0000008A 29                              	DB	41
   196 0000008B 7E                              	DB	126
   197 0000008C 3D                              	DB	61
   198 0000008D 7E                              	DB	126
   199 0000008E 08                              	DB	8
   200 0000008F 00                              	DB	0
   201 00000090 51                              	DB	81
   202 00000091 57                              	DB	87
   203 00000092 45                              	DB	69
   204 00000093 52                              	DB	82
   205 00000094 54                              	DB	84
   206 00000095 59                              	DB	89
   207 00000096 55                              	DB	85
   208 00000097 49                              	DB	73
   209 00000098 4F                              	DB	79
   210 00000099 50                              	DB	80
   211 0000009A 60                              	DB	96
   212 0000009B 7B                              	DB	123
   213 0000009C 0A                              	DB	10
   214 0000009D 00                              	DB	0
   215 0000009E 41                              	DB	65
   216 0000009F 53                              	DB	83
   217 000000A0 44                              	DB	68
   218 000000A1 46                              	DB	70
   219 000000A2 47                              	DB	71
   220 000000A3 48                              	DB	72
   221 000000A4 4A                              	DB	74
   222 000000A5 4B                              	DB	75
   223 000000A6 4C                              	DB	76
   224 000000A7 2B                              	DB	43
   225 000000A8 2A                              	DB	42
   226 000000A9 00                              	DB	0
   227 000000AA 00                              	DB	0
   228 000000AB 7D                              	DB	125
   229 000000AC 5A                              	DB	90
   230 000000AD 58                              	DB	88
   231 000000AE 43                              	DB	67
   232 000000AF 56                              	DB	86
   233 000000B0 42                              	DB	66
   234 000000B1 4E                              	DB	78
   235 000000B2 4D                              	DB	77
   236 000000B3 3C                              	DB	60
   237 000000B4 3E                              	DB	62
   238 000000B5 3F                              	DB	63
   239 000000B6 00                              	DB	0
   240 000000B7 2A                              	DB	42
   241 000000B8 00                              	DB	0
   242 000000B9 20                              	DB	32
   243 000000BA 00                              	DB	0
   244 000000BB 00                              	DB	0
   245 000000BC 00                              	DB	0
   246 000000BD 00                              	DB	0
   247 000000BE 00                              	DB	0
   248 000000BF 00                              	DB	0
   249 000000C0 00                              	DB	0
   250 000000C1 00                              	DB	0
   251 000000C2 00                              	DB	0
   252 000000C3 00                              	DB	0
   253 000000C4 00                              	DB	0
   254 000000C5 00                              	DB	0
   255 000000C6 00                              	DB	0
   256 000000C7 37                              	DB	55
   257 000000C8 38                              	DB	56
   258 000000C9 39                              	DB	57
   259 000000CA 2D                              	DB	45
   260 000000CB 34                              	DB	52
   261 000000CC 35                              	DB	53
   262 000000CD 36                              	DB	54
   263 000000CE 2B                              	DB	43
   264 000000CF 31                              	DB	49
   265 000000D0 32                              	DB	50
   266 000000D1 33                              	DB	51
   267 000000D2 30                              	DB	48
   268 000000D3 2E                              	DB	46
   269 000000D4 00                              	DB	0
   270 000000D5 00                              	DB	0
   271 000000D6 00                              	DB	0
   272 000000D7 00                              	DB	0
   273 000000D8 00                              	DB	0
   274 000000D9 00                              	DB	0
   275 000000DA 00                              	DB	0
   276 000000DB 00                              	DB	0
   277 000000DC 00                              	DB	0
   278 000000DD 00                              	DB	0
   279 000000DE 00                              	DB	0
   280 000000DF 00                              	DB	0
   281 000000E0 00                              	DB	0
   282 000000E1 00                              	DB	0
   283 000000E2 00                              	DB	0
   284 000000E3 00                              	DB	0
   285 000000E4 00                              	DB	0
   286 000000E5 00                              	DB	0
   287 000000E6 00                              	DB	0
   288 000000E7 00                              	DB	0
   289 000000E8 00                              	DB	0
   290 000000E9 00                              	DB	0
   291 000000EA 00                              	DB	0
   292 000000EB 00                              	DB	0
   293 000000EC 00                              	DB	0
   294 000000ED 00                              	DB	0
   295 000000EE 00                              	DB	0
   296 000000EF 00                              	DB	0
   297 000000F0 00                              	DB	0
   298 000000F1 00                              	DB	0
   299 000000F2 00                              	DB	0
   300 000000F3 5F                              	DB	95
   301 000000F4 00                              	DB	0
   302 000000F5 00                              	DB	0
   303 000000F6 00                              	DB	0
   304 000000F7 00                              	DB	0
   305 000000F8 00                              	DB	0
   306 000000F9 00                              	DB	0
   307 000000FA 00                              	DB	0
   308 000000FB 00                              	DB	0
   309 000000FC 00                              	DB	0
   310 000000FD 7C                              	DB	124
   311 000000FE 00                              	DB	0
   312 000000FF 00                              	DB	0
   313 00000100                                 LC0:
   314 00000100 6E 69 68 6F 6E 67 6F 2E 66 6E   	DB	"nihongo.fnt",0x00
       0000010A 74 00 
   315 0000010C                                 LC2:
   316 0000010C 0A 42 72 65 61 6B 28 6D 6F 75   	DB	0x0A,"Break(mouse) :",0x0A,0x00
       00000116 73 65 29 20 3A 0A 00 
   317 0000011D                                 LC1:
   318 0000011D 0A 42 72 65 61 6B 28 6B 65 79   	DB	0x0A,"Break(key) :",0x0A,0x00
       00000127 29 20 3A 0A 00 
   319                                          [SECTION .text]
   320 00000000                                 	GLOBAL	_HariMain
   321 00000000                                 _HariMain:
   322 00000000 55                              	PUSH	EBP
   323 00000001 89 E5                           	MOV	EBP,ESP
   324 00000003 57                              	PUSH	EDI
   325 00000004 56                              	PUSH	ESI
   326 00000005 53                              	PUSH	EBX
   327 00000006 81 EC 00000454                  	SUB	ESP,1108
   328 0000000C C7 85 FFFFFBE0 FFFFFFFF         	MOV	DWORD [-1056+EBP],-1
   329 00000016 C7 85 FFFFFBDC 00000000         	MOV	DWORD [-1060+EBP],0
   330 00000020 C7 85 FFFFFBD8 7FFFFFFF         	MOV	DWORD [-1064+EBP],2147483647
   331 0000002A C7 85 FFFFFBD4 00000000         	MOV	DWORD [-1068+EBP],0
   332 00000034 C7 85 FFFFFBC4 00000000         	MOV	DWORD [-1084+EBP],0
   333 0000003E A0 00000FF1                     	MOV	AL,BYTE [4081]
   334 00000043 C0 F8 04                        	SAR	AL,4
   335 00000046 89 C2                           	MOV	EDX,EAX
   336 00000048 83 E2 07                        	AND	EDX,7
   337 0000004B 89 95 FFFFFBC0                  	MOV	DWORD [-1088+EBP],EDX
   338 00000051 C7 85 FFFFFBBC FFFFFFFF         	MOV	DWORD [-1092+EBP],-1
   339 0000005B C7 85 FFFFFBB8 FFFFFFFF         	MOV	DWORD [-1096+EBP],-1
   340 00000065 C7 85 FFFFFBB4 FFFFFFFF         	MOV	DWORD [-1100+EBP],-1
   341 0000006F C7 85 FFFFFBB0 00000000         	MOV	DWORD [-1104+EBP],0
   342 00000079 C7 85 FFFFFBAC 00000000         	MOV	DWORD [-1108+EBP],0
   343 00000083 E8 [00000000]                   	CALL	_init_gdtidt
   344 00000088 E8 [00000000]                   	CALL	_support_apic
   345 0000008D 48                              	DEC	EAX
   346 0000008E 0F 84 00000AEB                  	JE	L96
   347 00000094 E8 [00000000]                   	CALL	_init_pic
   348 00000099                                 L3:
   349 00000099 8D 5D A4                        	LEA	EBX,DWORD [-92+EBP]
   350 0000009C E8 [00000000]                   	CALL	_io_sti
   351 000000A1 6A 00                           	PUSH	0
   352 000000A3 8D 85 FFFFFD84                  	LEA	EAX,DWORD [-636+EBP]
   353 000000A9 50                              	PUSH	EAX
   354 000000AA 68 00000080                     	PUSH	128
   355 000000AF 53                              	PUSH	EBX
   356 000000B0 E8 [00000000]                   	CALL	_fifo32_init
   357 000000B5 89 1D 00000FEC                  	MOV	DWORD [4076],EBX
   358 000000BB E8 [00000000]                   	CALL	_init_pit
   359 000000C0 68 00000100                     	PUSH	256
   360 000000C5 53                              	PUSH	EBX
   361 000000C6 E8 [00000000]                   	CALL	_init_keyboard
   362 000000CB 8D 85 FFFFFCF4                  	LEA	EAX,DWORD [-780+EBP]
   363 000000D1 50                              	PUSH	EAX
   364 000000D2 68 00000200                     	PUSH	512
   365 000000D7 53                              	PUSH	EBX
   366 000000D8 E8 [00000000]                   	CALL	_enable_mouse
   367 000000DD 8D 85 FFFFFD04                  	LEA	EAX,DWORD [-764+EBP]
   368 000000E3 83 C4 24                        	ADD	ESP,36
   369 000000E6 6A 00                           	PUSH	0
   370 000000E8 50                              	PUSH	EAX
   371 000000E9 8D 45 84                        	LEA	EAX,DWORD [-124+EBP]
   372 000000EC 6A 20                           	PUSH	32
   373 000000EE 50                              	PUSH	EAX
   374 000000EF E8 [00000000]                   	CALL	_fifo32_init
   375 000000F4 68 BFFFFFFF                     	PUSH	-1073741825
   376 000000F9 68 00400000                     	PUSH	4194304
   377 000000FE E8 [00000000]                   	CALL	_memtest
   378 00000103 68 003C0000                     	PUSH	3932160
   379 00000108 89 85 FFFFFBD0                  	MOV	DWORD [-1072+EBP],EAX
   380 0000010E E8 [00000000]                   	CALL	_memman_init
   381 00000113 68 0009E000                     	PUSH	647168
   382 00000118 68 00001000                     	PUSH	4096
   383 0000011D 68 003C0000                     	PUSH	3932160
   384 00000122 E8 [00000000]                   	CALL	_memman_free
   385 00000127 8B 85 FFFFFBD0                  	MOV	EAX,DWORD [-1072+EBP]
   386 0000012D 83 C4 28                        	ADD	ESP,40
   387 00000130 2D 00400000                     	SUB	EAX,4194304
   388 00000135 50                              	PUSH	EAX
   389 00000136 68 00400000                     	PUSH	4194304
   390 0000013B 68 003C0000                     	PUSH	3932160
   391 00000140 E8 [00000000]                   	CALL	_memman_free
   392 00000145 E8 [00000000]                   	CALL	_init_palette
   393 0000014A 0F BF 05 00000FF6               	MOVSX	EAX,WORD [4086]
   394 00000151 50                              	PUSH	EAX
   395 00000152 0F BF 05 00000FF4               	MOVSX	EAX,WORD [4084]
   396 00000159 50                              	PUSH	EAX
   397 0000015A FF 35 00000FF8                  	PUSH	DWORD [4088]
   398 00000160 68 003C0000                     	PUSH	3932160
   399 00000165 E8 [00000000]                   	CALL	_shtctl_init
   400 0000016A 68 003C0000                     	PUSH	3932160
   401 0000016F 89 85 FFFFFBEC                  	MOV	DWORD [-1044+EBP],EAX
   402 00000175 E8 [00000000]                   	CALL	_task_init
   403 0000017A 83 C4 20                        	ADD	ESP,32
   404 0000017D 89 85 FFFFFBC8                  	MOV	DWORD [-1080+EBP],EAX
   405 00000183 89 45 BC                        	MOV	DWORD [-68+EBP],EAX
   406 00000186 6A 02                           	PUSH	2
   407 00000188 6A 01                           	PUSH	1
   408 0000018A 50                              	PUSH	EAX
   409 0000018B E8 [00000000]                   	CALL	_task_run
   410 00000190 8B 85 FFFFFBC8                  	MOV	EAX,DWORD [-1080+EBP]
   411 00000196 8B 95 FFFFFBEC                  	MOV	EDX,DWORD [-1044+EBP]
   412 0000019C 89 15 00000FE4                  	MOV	DWORD [4068],EDX
   413 000001A2 C6 80 000000BC 00               	MOV	BYTE [188+EAX],0
   414 000001A9 52                              	PUSH	EDX
   415 000001AA E8 [00000000]                   	CALL	_sheet_alloc
   416 000001AF 89 C6                           	MOV	ESI,EAX
   417 000001B1 0F BF 15 00000FF6               	MOVSX	EDX,WORD [4086]
   418 000001B8 0F BF 05 00000FF4               	MOVSX	EAX,WORD [4084]
   419 000001BF 0F AF C2                        	IMUL	EAX,EDX
   420 000001C2 50                              	PUSH	EAX
   421 000001C3 68 003C0000                     	PUSH	3932160
   422 000001C8 E8 [00000000]                   	CALL	_memman_alloc_4k
   423 000001CD 6A FF                           	PUSH	-1
   424 000001CF 89 C3                           	MOV	EBX,EAX
   425 000001D1 0F BF 05 00000FF6               	MOVSX	EAX,WORD [4086]
   426 000001D8 50                              	PUSH	EAX
   427 000001D9 0F BF 05 00000FF4               	MOVSX	EAX,WORD [4084]
   428 000001E0 50                              	PUSH	EAX
   429 000001E1 53                              	PUSH	EBX
   430 000001E2 56                              	PUSH	ESI
   431 000001E3 E8 [00000000]                   	CALL	_sheet_setbuf
   432 000001E8 83 C4 2C                        	ADD	ESP,44
   433 000001EB 0F BF 05 00000FF6               	MOVSX	EAX,WORD [4086]
   434 000001F2 50                              	PUSH	EAX
   435 000001F3 0F BF 05 00000FF4               	MOVSX	EAX,WORD [4084]
   436 000001FA 50                              	PUSH	EAX
   437 000001FB 53                              	PUSH	EBX
   438 000001FC 8D 9D FFFFFBF4                  	LEA	EBX,DWORD [-1036+EBP]
   439 00000202 E8 [00000000]                   	CALL	_init_screen8
   440 00000207 FF B5 FFFFFBD0                  	PUSH	DWORD [-1072+EBP]
   441 0000020D FF B5 FFFFFBEC                  	PUSH	DWORD [-1044+EBP]
   442 00000213 E8 00000A79                     	CALL	_open_console
   443 00000218 FF B5 FFFFFBEC                  	PUSH	DWORD [-1044+EBP]
   444 0000021E 89 C7                           	MOV	EDI,EAX
   445 00000220 E8 [00000000]                   	CALL	_sheet_alloc
   446 00000225 6A 63                           	PUSH	99
   447 00000227 6A 10                           	PUSH	16
   448 00000229 89 85 FFFFFBCC                  	MOV	DWORD [-1076+EBP],EAX
   449 0000022F 6A 10                           	PUSH	16
   450 00000231 53                              	PUSH	EBX
   451 00000232 50                              	PUSH	EAX
   452 00000233 E8 [00000000]                   	CALL	_sheet_setbuf
   453 00000238 83 C4 2C                        	ADD	ESP,44
   454 0000023B 6A 63                           	PUSH	99
   455 0000023D 53                              	PUSH	EBX
   456 0000023E BB 00000002                     	MOV	EBX,2
   457 00000243 E8 [00000000]                   	CALL	_init_mouse_cursor8
   458 00000248 0F BF 05 00000FF4               	MOVSX	EAX,WORD [4084]
   459 0000024F 8D 48 F0                        	LEA	ECX,DWORD [-16+EAX]
   460 00000252 89 C8                           	MOV	EAX,ECX
   461 00000254 99                              	CDQ
   462 00000255 F7 FB                           	IDIV	EBX
   463 00000257 89 85 FFFFFBE8                  	MOV	DWORD [-1048+EBP],EAX
   464 0000025D 0F BF 05 00000FF6               	MOVSX	EAX,WORD [4086]
   465 00000264 6A 00                           	PUSH	0
   466 00000266 8D 48 D4                        	LEA	ECX,DWORD [-44+EAX]
   467 00000269 6A 00                           	PUSH	0
   468 0000026B 89 C8                           	MOV	EAX,ECX
   469 0000026D 56                              	PUSH	ESI
   470 0000026E 99                              	CDQ
   471 0000026F F7 FB                           	IDIV	EBX
   472 00000271 89 85 FFFFFBE4                  	MOV	DWORD [-1052+EBP],EAX
   473 00000277 E8 [00000000]                   	CALL	_sheet_slide
   474 0000027C 6A 04                           	PUSH	4
   475 0000027E 6A 20                           	PUSH	32
   476 00000280 57                              	PUSH	EDI
   477 00000281 E8 [00000000]                   	CALL	_sheet_slide
   478 00000286 83 C4 20                        	ADD	ESP,32
   479 00000289 FF B5 FFFFFBE4                  	PUSH	DWORD [-1052+EBP]
   480 0000028F FF B5 FFFFFBE8                  	PUSH	DWORD [-1048+EBP]
   481 00000295 FF B5 FFFFFBCC                  	PUSH	DWORD [-1076+EBP]
   482 0000029B E8 [00000000]                   	CALL	_sheet_slide
   483 000002A0 6A 00                           	PUSH	0
   484 000002A2 56                              	PUSH	ESI
   485 000002A3 E8 [00000000]                   	CALL	_sheet_updown
   486 000002A8 6A 01                           	PUSH	1
   487 000002AA 57                              	PUSH	EDI
   488 000002AB E8 [00000000]                   	CALL	_sheet_updown
   489 000002B0 6A 02                           	PUSH	2
   490 000002B2 FF B5 FFFFFBCC                  	PUSH	DWORD [-1076+EBP]
   491 000002B8 E8 [00000000]                   	CALL	_sheet_updown
   492 000002BD 83 C4 24                        	ADD	ESP,36
   493 000002C0 57                              	PUSH	EDI
   494 000002C1 E8 000008F7                     	CALL	_keywin_on
   495 000002C6 8D 55 84                        	LEA	EDX,DWORD [-124+EBP]
   496 000002C9 68 000000ED                     	PUSH	237
   497 000002CE 52                              	PUSH	EDX
   498 000002CF E8 [00000000]                   	CALL	_fifo32_put
   499 000002D4 8D 45 84                        	LEA	EAX,DWORD [-124+EBP]
   500 000002D7 FF B5 FFFFFBC0                  	PUSH	DWORD [-1088+EBP]
   501 000002DD 50                              	PUSH	EAX
   502 000002DE E8 [00000000]                   	CALL	_fifo32_put
   503 000002E3 68 00002D00                     	PUSH	11520
   504 000002E8 68 003C0000                     	PUSH	3932160
   505 000002ED E8 [00000000]                   	CALL	_memman_alloc_4k
   506 000002F2 68 00100200                     	PUSH	1049088
   507 000002F7 89 C3                           	MOV	EBX,EAX
   508 000002F9 50                              	PUSH	EAX
   509 000002FA E8 [00000000]                   	CALL	_file_readfat
   510 000002FF 83 C4 24                        	ADD	ESP,36
   511 00000302 68 000000E0                     	PUSH	224
   512 00000307 68 00102600                     	PUSH	1058304
   513 0000030C 68 [00000100]                   	PUSH	LC0
   514 00000311 E8 [00000000]                   	CALL	_file_search
   515 00000316 83 C4 0C                        	ADD	ESP,12
   516 00000319 89 C2                           	MOV	EDX,EAX
   517 0000031B 85 C0                           	TEST	EAX,EAX
   518 0000031D 0F 84 000007F2                  	JE	L4
   519 00000323 8B 40 1C                        	MOV	EAX,DWORD [28+EAX]
   520 00000326 53                              	PUSH	EBX
   521 00000327 89 85 FFFFFBF0                  	MOV	DWORD [-1040+EBP],EAX
   522 0000032D 8D 85 FFFFFBF0                  	LEA	EAX,DWORD [-1040+EBP]
   523 00000333 50                              	PUSH	EAX
   524 00000334 0F B7 42 1A                     	MOVZX	EAX,WORD [26+EDX]
   525 00000338 50                              	PUSH	EAX
   526 00000339 E8 [00000000]                   	CALL	_file_loadfile2
   527 0000033E 83 C4 0C                        	ADD	ESP,12
   528 00000341 89 C1                           	MOV	ECX,EAX
   529 00000343                                 L5:
   530 00000343 89 0D 00000FE8                  	MOV	DWORD [4072],ECX
   531 00000349 68 00002D00                     	PUSH	11520
   532 0000034E 53                              	PUSH	EBX
   533 0000034F 68 003C0000                     	PUSH	3932160
   534 00000354 E8 [00000000]                   	CALL	_memman_free_4k
   535 00000359                                 L92:
   536 00000359 83 C4 0C                        	ADD	ESP,12
   537 0000035C                                 L16:
   538 0000035C 8D 5D 84                        	LEA	EBX,DWORD [-124+EBP]
   539 0000035F 53                              	PUSH	EBX
   540 00000360 E8 [00000000]                   	CALL	_fifo32_status
   541 00000365 5A                              	POP	EDX
   542 00000366 85 C0                           	TEST	EAX,EAX
   543 00000368 7E 0D                           	JLE	L19
   544 0000036A 83 BD FFFFFBBC 00               	CMP	DWORD [-1092+EBP],0
   545 00000371 0F 88 00000778                  	JS	L97
   546 00000377                                 L19:
   547 00000377 8D 5D A4                        	LEA	EBX,DWORD [-92+EBP]
   548 0000037A E8 [00000000]                   	CALL	_io_cli
   549 0000037F 53                              	PUSH	EBX
   550 00000380 E8 [00000000]                   	CALL	_fifo32_status
   551 00000385 5E                              	POP	ESI
   552 00000386 85 C0                           	TEST	EAX,EAX
   553 00000388 0F 84 00000702                  	JE	L98
   554 0000038E 53                              	PUSH	EBX
   555 0000038F E8 [00000000]                   	CALL	_fifo32_get
   556 00000394 89 85 FFFFFBF0                  	MOV	DWORD [-1040+EBP],EAX
   557 0000039A E8 [00000000]                   	CALL	_io_sti
   558 0000039F 5B                              	POP	EBX
   559 000003A0 85 FF                           	TEST	EDI,EDI
   560 000003A2 74 27                           	JE	L26
   561 000003A4 83 7F 1C 00                     	CMP	DWORD [28+EDI],0
   562 000003A8 75 21                           	JNE	L26
   563 000003AA 8B 95 FFFFFBEC                  	MOV	EDX,DWORD [-1044+EBP]
   564 000003B0 31 FF                           	XOR	EDI,EDI
   565 000003B2 8B 42 10                        	MOV	EAX,DWORD [16+EDX]
   566 000003B5 83 F8 01                        	CMP	EAX,1
   567 000003B8 74 11                           	JE	L26
   568 000003BA 8B 95 FFFFFBEC                  	MOV	EDX,DWORD [-1044+EBP]
   569 000003C0 8B 7C 82 10                     	MOV	EDI,DWORD [16+EDX+EAX*4]
   570 000003C4 57                              	PUSH	EDI
   571 000003C5 E8 000007F3                     	CALL	_keywin_on
   572 000003CA 59                              	POP	ECX
   573 000003CB                                 L26:
   574 000003CB 8B 95 FFFFFBF0                  	MOV	EDX,DWORD [-1040+EBP]
   575 000003D1 8D 82 FFFFFF00                  	LEA	EAX,DWORD [-256+EDX]
   576 000003D7 3D 000000FF                     	CMP	EAX,255
   577 000003DC 0F 86 0000039B                  	JBE	L99
   578 000003E2 8D 82 FFFFFE00                  	LEA	EAX,DWORD [-512+EDX]
   579 000003E8 3D 000000FF                     	CMP	EAX,255
   580 000003ED 0F 86 00000093                  	JBE	L100
   581 000003F3 8D 82 FFFFFD00                  	LEA	EAX,DWORD [-768+EDX]
   582 000003F9 3D 000000FF                     	CMP	EAX,255
   583 000003FE 76 6E                           	JBE	L101
   584 00000400 8D 82 FFFFFC00                  	LEA	EAX,DWORD [-1024+EDX]
   585 00000406 3D 000003E7                     	CMP	EAX,999
   586 0000040B 76 43                           	JBE	L102
   587 0000040D 8D 82 FFFFF818                  	LEA	EAX,DWORD [-2024+EDX]
   588 00000413 3D 000000FF                     	CMP	EAX,255
   589 00000418 0F 87 FFFFFF3E                  	JA	L16
   590 0000041E 6B C2 28                        	IMUL	EAX,EDX,40
   591 00000421 03 85 FFFFFBEC                  	ADD	EAX,DWORD [-1044+EBP]
   592 00000427 68 0000A500                     	PUSH	42240
   593 0000042C FF B0 FFFEC7D4                  	PUSH	DWORD [-79916+EAX]
   594 00000432 68 003C0000                     	PUSH	3932160
   595 00000437 8D 98 FFFEC7D4                  	LEA	EBX,DWORD [-79916+EAX]
   596 0000043D E8 [00000000]                   	CALL	_memman_free_4k
   597 00000442 53                              	PUSH	EBX
   598 00000443 E8 [00000000]                   	CALL	_sheet_free
   599 00000448 83 C4 10                        	ADD	ESP,16
   600 0000044B E9 FFFFFF0C                     	JMP	L16
   601 00000450                                 L102:
   602 00000450 69 D2 000000C0                  	IMUL	EDX,EDX,192
   603 00000456 03 15 [00000000]                	ADD	EDX,DWORD [_taskctl]
   604 0000045C 8D 82 FFFD0FF8                  	LEA	EAX,DWORD [-192520+EDX]
   605 00000462 50                              	PUSH	EAX
   606 00000463 E8 000008A8                     	CALL	_close_constask
   607 00000468                                 L91:
   608 00000468 58                              	POP	EAX
   609 00000469 E9 FFFFFEEE                     	JMP	L16
   610 0000046E                                 L101:
   611 0000046E 6B C2 28                        	IMUL	EAX,EDX,40
   612 00000471 8B 95 FFFFFBEC                  	MOV	EDX,DWORD [-1044+EBP]
   613 00000477 8D 84 10 FFFF8C14               	LEA	EAX,DWORD [-29676+EAX+EDX*1]
   614 0000047E 50                              	PUSH	EAX
   615 0000047F E8 000008CC                     	CALL	_close_console
   616 00000484 EB E2                           	JMP	L91
   617 00000486                                 L100:
   618 00000486 0F B6 85 FFFFFBF0               	MOVZX	EAX,BYTE [-1040+EBP]
   619 0000048D 50                              	PUSH	EAX
   620 0000048E 8D 85 FFFFFCF4                  	LEA	EAX,DWORD [-780+EBP]
   621 00000494 50                              	PUSH	EAX
   622 00000495 E8 [00000000]                   	CALL	_mouse_decode
   623 0000049A 59                              	POP	ECX
   624 0000049B 5B                              	POP	EBX
   625 0000049C 85 C0                           	TEST	EAX,EAX
   626 0000049E 0F 84 FFFFFEB8                  	JE	L16
   627 000004A4 8B 85 FFFFFCFC                  	MOV	EAX,DWORD [-772+EBP]
   628 000004AA 8B 95 FFFFFCF8                  	MOV	EDX,DWORD [-776+EBP]
   629 000004B0 01 85 FFFFFBE4                  	ADD	DWORD [-1052+EBP],EAX
   630 000004B6 01 95 FFFFFBE8                  	ADD	DWORD [-1048+EBP],EDX
   631 000004BC 0F 88 000002AC                  	JS	L103
   632 000004C2                                 L58:
   633 000004C2 83 BD FFFFFBE4 00               	CMP	DWORD [-1052+EBP],0
   634 000004C9 0F 88 00000290                  	JS	L104
   635 000004CF                                 L59:
   636 000004CF 0F BF 05 00000FF4               	MOVSX	EAX,WORD [4084]
   637 000004D6 48                              	DEC	EAX
   638 000004D7 39 85 FFFFFBE8                  	CMP	DWORD [-1048+EBP],EAX
   639 000004DD 7E 06                           	JLE	L60
   640 000004DF 89 85 FFFFFBE8                  	MOV	DWORD [-1048+EBP],EAX
   641 000004E5                                 L60:
   642 000004E5 0F BF 05 00000FF6               	MOVSX	EAX,WORD [4086]
   643 000004EC 48                              	DEC	EAX
   644 000004ED 39 85 FFFFFBE4                  	CMP	DWORD [-1052+EBP],EAX
   645 000004F3 7E 06                           	JLE	L61
   646 000004F5 89 85 FFFFFBE4                  	MOV	DWORD [-1052+EBP],EAX
   647 000004FB                                 L61:
   648 000004FB 8B 85 FFFFFBE8                  	MOV	EAX,DWORD [-1048+EBP]
   649 00000501 8B 95 FFFFFBE4                  	MOV	EDX,DWORD [-1052+EBP]
   650 00000507 89 85 FFFFFBE0                  	MOV	DWORD [-1056+EBP],EAX
   651 0000050D 89 95 FFFFFBDC                  	MOV	DWORD [-1060+EBP],EDX
   652 00000513 F7 85 FFFFFD00 00000001         	TEST	DWORD [-768+EBP],1
   653 0000051D 75 40                           	JNE	L105
   654 0000051F C7 85 FFFFFBB8 FFFFFFFF         	MOV	DWORD [-1096+EBP],-1
   655 00000529 81 BD FFFFFBD8 7FFFFFFF         	CMP	DWORD [-1064+EBP],2147483647
   656 00000533 0F 84 FFFFFE23                  	JE	L16
   657 00000539                                 L93:
   658 00000539 FF B5 FFFFFBD4                  	PUSH	DWORD [-1068+EBP]
   659 0000053F FF B5 FFFFFBD8                  	PUSH	DWORD [-1064+EBP]
   660 00000545 FF B5 FFFFFBAC                  	PUSH	DWORD [-1108+EBP]
   661 0000054B E8 [00000000]                   	CALL	_sheet_slide
   662 00000550 C7 85 FFFFFBD8 7FFFFFFF         	MOV	DWORD [-1064+EBP],2147483647
   663 0000055A E9 FFFFFDFA                     	JMP	L92
   664 0000055F                                 L105:
   665 0000055F 83 BD FFFFFBB8 00               	CMP	DWORD [-1096+EBP],0
   666 00000566 78 46                           	JS	L106
   667 00000568 8B 9D FFFFFBE8                  	MOV	EBX,DWORD [-1048+EBP]
   668 0000056E 8B 85 FFFFFBB0                  	MOV	EAX,DWORD [-1104+EBP]
   669 00000574 2B 9D FFFFFBB8                  	SUB	EBX,DWORD [-1096+EBP]
   670 0000057A 8B B5 FFFFFBE4                  	MOV	ESI,DWORD [-1052+EBP]
   671 00000580 2B B5 FFFFFBB4                  	SUB	ESI,DWORD [-1100+EBP]
   672 00000586 8B 95 FFFFFBE4                  	MOV	EDX,DWORD [-1052+EBP]
   673 0000058C 8D 5C 03 02                     	LEA	EBX,DWORD [2+EBX+EAX*1]
   674 00000590 89 95 FFFFFBB4                  	MOV	DWORD [-1100+EBP],EDX
   675 00000596 89 9D FFFFFBD8                  	MOV	DWORD [-1064+EBP],EBX
   676 0000059C 01 B5 FFFFFBD4                  	ADD	DWORD [-1068+EBP],ESI
   677 000005A2 83 A5 FFFFFBD8 FC               	AND	DWORD [-1064+EBP],-4
   678 000005A9 E9 FFFFFDAE                     	JMP	L16
   679 000005AE                                 L106:
   680 000005AE 8B 85 FFFFFBEC                  	MOV	EAX,DWORD [-1044+EBP]
   681 000005B4 8B 40 10                        	MOV	EAX,DWORD [16+EAX]
   682 000005B7 89 85 FFFFFBA4                  	MOV	DWORD [-1116+EBP],EAX
   683 000005BD 89 C1                           	MOV	ECX,EAX
   684 000005BF                                 L95:
   685 000005BF 49                              	DEC	ECX
   686 000005C0 85 C9                           	TEST	ECX,ECX
   687 000005C2 0F 8E FFFFFD94                  	JLE	L16
   688 000005C8 8B 95 FFFFFBEC                  	MOV	EDX,DWORD [-1044+EBP]
   689 000005CE 8B B5 FFFFFBE4                  	MOV	ESI,DWORD [-1052+EBP]
   690 000005D4 8B 9D FFFFFBE8                  	MOV	EBX,DWORD [-1048+EBP]
   691 000005DA 8B 54 8A 14                     	MOV	EDX,DWORD [20+EDX+ECX*4]
   692 000005DE 89 95 FFFFFBAC                  	MOV	DWORD [-1108+EBP],EDX
   693 000005E4 2B 72 10                        	SUB	ESI,DWORD [16+EDX]
   694 000005E7 2B 5A 0C                        	SUB	EBX,DWORD [12+EDX]
   695 000005EA 78 D3                           	JS	L95
   696 000005EC 8B 42 04                        	MOV	EAX,DWORD [4+EDX]
   697 000005EF 39 C3                           	CMP	EBX,EAX
   698 000005F1 7D CC                           	JGE	L95
   699 000005F3 85 F6                           	TEST	ESI,ESI
   700 000005F5 78 C8                           	JS	L95
   701 000005F7 3B 72 08                        	CMP	ESI,DWORD [8+EDX]
   702 000005FA 7D C3                           	JGE	L95
   703 000005FC 0F AF C6                        	IMUL	EAX,ESI
   704 000005FF 89 85 FFFFFBA0                  	MOV	DWORD [-1120+EBP],EAX
   705 00000605 8B 12                           	MOV	EDX,DWORD [EDX]
   706 00000607 8B 85 FFFFFBA0                  	MOV	EAX,DWORD [-1120+EBP]
   707 0000060D 01 D8                           	ADD	EAX,EBX
   708 0000060F 0F B6 04 10                     	MOVZX	EAX,BYTE [EAX+EDX*1]
   709 00000613 8B 95 FFFFFBAC                  	MOV	EDX,DWORD [-1108+EBP]
   710 00000619 3B 42 14                        	CMP	EAX,DWORD [20+EDX]
   711 0000061C 74 A1                           	JE	L95
   712 0000061E 8B 85 FFFFFBA4                  	MOV	EAX,DWORD [-1116+EBP]
   713 00000624 48                              	DEC	EAX
   714 00000625 50                              	PUSH	EAX
   715 00000626 52                              	PUSH	EDX
   716 00000627 E8 [00000000]                   	CALL	_sheet_updown
   717 0000062C 39 BD FFFFFBAC                  	CMP	DWORD [-1108+EBP],EDI
   718 00000632 58                              	POP	EAX
   719 00000633 5A                              	POP	EDX
   720 00000634 74 14                           	JE	L70
   721 00000636 57                              	PUSH	EDI
   722 00000637 E8 00000553                     	CALL	_keywin_off
   723 0000063C 8B BD FFFFFBAC                  	MOV	EDI,DWORD [-1108+EBP]
   724 00000642 57                              	PUSH	EDI
   725 00000643 E8 00000575                     	CALL	_keywin_on
   726 00000648 5A                              	POP	EDX
   727 00000649 59                              	POP	ECX
   728 0000064A                                 L70:
   729 0000064A 83 FB 02                        	CMP	EBX,2
   730 0000064D 7E 50                           	JLE	L71
   731 0000064F 8B 95 FFFFFBAC                  	MOV	EDX,DWORD [-1108+EBP]
   732 00000655 8B 42 04                        	MOV	EAX,DWORD [4+EDX]
   733 00000658 83 E8 03                        	SUB	EAX,3
   734 0000065B 39 C3                           	CMP	EBX,EAX
   735 0000065D 7D 40                           	JGE	L71
   736 0000065F 83 FE 02                        	CMP	ESI,2
   737 00000662 7E 3B                           	JLE	L71
   738 00000664 83 FE 14                        	CMP	ESI,20
   739 00000667 7F 36                           	JG	L71
   740 00000669 8B 85 FFFFFBE8                  	MOV	EAX,DWORD [-1048+EBP]
   741 0000066F 8B 95 FFFFFBE4                  	MOV	EDX,DWORD [-1052+EBP]
   742 00000675 89 85 FFFFFBB8                  	MOV	DWORD [-1096+EBP],EAX
   743 0000067B 89 95 FFFFFBB4                  	MOV	DWORD [-1100+EBP],EDX
   744 00000681 8B 85 FFFFFBAC                  	MOV	EAX,DWORD [-1108+EBP]
   745 00000687 8B 95 FFFFFBAC                  	MOV	EDX,DWORD [-1108+EBP]
   746 0000068D 8B 40 0C                        	MOV	EAX,DWORD [12+EAX]
   747 00000690 8B 52 10                        	MOV	EDX,DWORD [16+EDX]
   748 00000693 89 85 FFFFFBB0                  	MOV	DWORD [-1104+EBP],EAX
   749 00000699 89 95 FFFFFBD4                  	MOV	DWORD [-1068+EBP],EDX
   750 0000069F                                 L71:
   751 0000069F 8B 85 FFFFFBAC                  	MOV	EAX,DWORD [-1108+EBP]
   752 000006A5 8B 50 04                        	MOV	EDX,DWORD [4+EAX]
   753 000006A8 8D 42 EB                        	LEA	EAX,DWORD [-21+EDX]
   754 000006AB 39 D8                           	CMP	EAX,EBX
   755 000006AD 0F 8F FFFFFCA9                  	JG	L16
   756 000006B3 8D 42 FB                        	LEA	EAX,DWORD [-5+EDX]
   757 000006B6 39 C3                           	CMP	EBX,EAX
   758 000006B8 0F 8D FFFFFC9E                  	JGE	L16
   759 000006BE 83 FE 04                        	CMP	ESI,4
   760 000006C1 0F 8E FFFFFC95                  	JLE	L16
   761 000006C7 83 FE 12                        	CMP	ESI,18
   762 000006CA 0F 8F FFFFFC8C                  	JG	L16
   763 000006D0 8B 95 FFFFFBAC                  	MOV	EDX,DWORD [-1108+EBP]
   764 000006D6 F6 42 1C 10                     	TEST	BYTE [28+EDX],16
   765 000006DA 74 42                           	JE	L107
   766 000006DC 8B 95 FFFFFBAC                  	MOV	EDX,DWORD [-1108+EBP]
   767 000006E2 8B 5A 24                        	MOV	EBX,DWORD [36+EDX]
   768 000006E5 68 [0000010C]                   	PUSH	LC2
   769 000006EA FF B3 000000A4                  	PUSH	DWORD [164+EBX]
   770 000006F0 E8 [00000000]                   	CALL	_cons_putstr0
   771 000006F5 E8 [00000000]                   	CALL	_io_cli
   772 000006FA 8D 43 30                        	LEA	EAX,DWORD [48+EBX]
   773 000006FD 89 43 54                        	MOV	DWORD [84+EBX],EAX
   774 00000700 C7 43 4C [00000000]             	MOV	DWORD [76+EBX],_asm_end_app
   775 00000707 E8 [00000000]                   	CALL	_io_sti
   776 0000070C 6A 00                           	PUSH	0
   777 0000070E 6A FF                           	PUSH	-1
   778 00000710 53                              	PUSH	EBX
   779 00000711 E8 [00000000]                   	CALL	_task_run
   780 00000716 83 C4 14                        	ADD	ESP,20
   781 00000719 E9 FFFFFC3E                     	JMP	L16
   782 0000071E                                 L107:
   783 0000071E 8B 5A 24                        	MOV	EBX,DWORD [36+EDX]
   784 00000721 6A FF                           	PUSH	-1
   785 00000723 52                              	PUSH	EDX
   786 00000724 E8 [00000000]                   	CALL	_sheet_updown
   787 00000729 57                              	PUSH	EDI
   788 0000072A E8 00000460                     	CALL	_keywin_off
   789 0000072F 8B 95 FFFFFBEC                  	MOV	EDX,DWORD [-1044+EBP]
   790 00000735 8B 42 10                        	MOV	EAX,DWORD [16+EDX]
   791 00000738 8B 7C 82 10                     	MOV	EDI,DWORD [16+EDX+EAX*4]
   792 0000073C 57                              	PUSH	EDI
   793 0000073D E8 0000047B                     	CALL	_keywin_on
   794 00000742 E8 [00000000]                   	CALL	_io_cli
   795 00000747 8D 43 10                        	LEA	EAX,DWORD [16+EBX]
   796 0000074A 6A 04                           	PUSH	4
   797 0000074C 50                              	PUSH	EAX
   798 0000074D E8 [00000000]                   	CALL	_fifo32_put
   799 00000752 E8 [00000000]                   	CALL	_io_sti
   800 00000757 83 C4 18                        	ADD	ESP,24
   801 0000075A E9 FFFFFBFD                     	JMP	L16
   802 0000075F                                 L104:
   803 0000075F C7 85 FFFFFBE4 00000000         	MOV	DWORD [-1052+EBP],0
   804 00000769 E9 FFFFFD61                     	JMP	L59
   805 0000076E                                 L103:
   806 0000076E C7 85 FFFFFBE8 00000000         	MOV	DWORD [-1048+EBP],0
   807 00000778 E9 FFFFFD45                     	JMP	L58
   808 0000077D                                 L99:
   809 0000077D 81 FA 0000017F                  	CMP	EDX,383
   810 00000783 0F 8F 000002FE                  	JG	L30
   811 00000789 83 BD FFFFFBC4 00               	CMP	DWORD [-1084+EBP],0
   812 00000790 0F 85 000002E6                  	JNE	L31
   813 00000796 8A 82 [FFFFFF00]                	MOV	AL,BYTE [_keytable0.0-256+EDX]
   814 0000079C                                 L94:
   815 0000079C 88 45 C4                        	MOV	BYTE [-60+EBP],AL
   816 0000079F                                 L33:
   817 0000079F 8A 55 C4                        	MOV	DL,BYTE [-60+EBP]
   818 000007A2 8D 42 BF                        	LEA	EAX,DWORD [-65+EDX]
   819 000007A5 3C 19                           	CMP	AL,25
   820 000007A7 77 1D                           	JA	L34
   821 000007A9 F7 85 FFFFFBC0 00000004         	TEST	DWORD [-1088+EBP],4
   822 000007B3 0F 85 000002B4                  	JNE	L89
   823 000007B9 83 BD FFFFFBC4 00               	CMP	DWORD [-1084+EBP],0
   824 000007C0 0F 84 0000029C                  	JE	L36
   825 000007C6                                 L34:
   826 000007C6 8A 45 C4                        	MOV	AL,BYTE [-60+EBP]
   827 000007C9 84 C0                           	TEST	AL,AL
   828 000007CB 74 1B                           	JE	L38
   829 000007CD 85 FF                           	TEST	EDI,EDI
   830 000007CF 74 17                           	JE	L38
   831 000007D1 0F BE C0                        	MOVSX	EAX,AL
   832 000007D4 05 00000100                     	ADD	EAX,256
   833 000007D9 50                              	PUSH	EAX
   834 000007DA 8B 47 24                        	MOV	EAX,DWORD [36+EDI]
   835 000007DD 83 C0 10                        	ADD	EAX,16
   836 000007E0 50                              	PUSH	EAX
   837 000007E1 E8 [00000000]                   	CALL	_fifo32_put
   838 000007E6 58                              	POP	EAX
   839 000007E7 5A                              	POP	EDX
   840 000007E8                                 L38:
   841 000007E8 81 BD FFFFFBF0 0000010F         	CMP	DWORD [-1040+EBP],271
   842 000007F2 0F 84 00000235                  	JE	L108
   843 000007F8                                 L39:
   844 000007F8 8B 85 FFFFFBF0                  	MOV	EAX,DWORD [-1040+EBP]
   845 000007FE 3D 0000012A                     	CMP	EAX,298
   846 00000803 0F 84 00000218                  	JE	L109
   847 00000809                                 L41:
   848 00000809 3D 00000136                     	CMP	EAX,310
   849 0000080E 0F 84 00000201                  	JE	L110
   850 00000814                                 L42:
   851 00000814 3D 000001AA                     	CMP	EAX,426
   852 00000819 0F 84 000001EA                  	JE	L111
   853 0000081F                                 L43:
   854 0000081F 3D 000001B6                     	CMP	EAX,438
   855 00000824 0F 84 000001D3                  	JE	L112
   856 0000082A                                 L44:
   857 0000082A 3D 0000013A                     	CMP	EAX,314
   858 0000082F 0F 84 0000019F                  	JE	L113
   859 00000835                                 L45:
   860 00000835 81 BD FFFFFBF0 00000145         	CMP	DWORD [-1040+EBP],325
   861 0000083F 0F 84 00000166                  	JE	L114
   862 00000845                                 L46:
   863 00000845 81 BD FFFFFBF0 00000146         	CMP	DWORD [-1040+EBP],326
   864 0000084F 0F 84 0000012D                  	JE	L115
   865 00000855                                 L47:
   866 00000855 81 BD FFFFFBF0 0000013B         	CMP	DWORD [-1040+EBP],315
   867 0000085F 0F 84 000000BA                  	JE	L116
   868 00000865                                 L48:
   869 00000865 81 BD FFFFFBF0 0000013C         	CMP	DWORD [-1040+EBP],316
   870 0000086F 74 60                           	JE	L117
   871 00000871                                 L50:
   872 00000871 81 BD FFFFFBF0 00000157         	CMP	DWORD [-1040+EBP],343
   873 0000087B 74 3D                           	JE	L118
   874 0000087D                                 L52:
   875 0000087D 8B 85 FFFFFBF0                  	MOV	EAX,DWORD [-1040+EBP]
   876 00000883 3D 000001FA                     	CMP	EAX,506
   877 00000888 74 24                           	JE	L119
   878 0000088A                                 L53:
   879 0000088A 3D 000001FE                     	CMP	EAX,510
   880 0000088F 0F 85 FFFFFAC7                  	JNE	L16
   881 00000895 E8 [00000000]                   	CALL	_wait_KBC_sendready
   882 0000089A FF B5 FFFFFBBC                  	PUSH	DWORD [-1092+EBP]
   883 000008A0 6A 60                           	PUSH	96
   884 000008A2 E8 [00000000]                   	CALL	_io_out8
   885 000008A7 5E                              	POP	ESI
   886 000008A8 58                              	POP	EAX
   887 000008A9 E9 FFFFFAAE                     	JMP	L16
   888 000008AE                                 L119:
   889 000008AE C7 85 FFFFFBBC FFFFFFFF         	MOV	DWORD [-1092+EBP],-1
   890 000008B8 EB D0                           	JMP	L53
   891 000008BA                                 L118:
   892 000008BA 8B 95 FFFFFBEC                  	MOV	EDX,DWORD [-1044+EBP]
   893 000008C0 8B 42 10                        	MOV	EAX,DWORD [16+EDX]
   894 000008C3 48                              	DEC	EAX
   895 000008C4 50                              	PUSH	EAX
   896 000008C5 FF 72 18                        	PUSH	DWORD [24+EDX]
   897 000008C8 E8 [00000000]                   	CALL	_sheet_updown
   898 000008CD 58                              	POP	EAX
   899 000008CE 5A                              	POP	EDX
   900 000008CF EB AC                           	JMP	L52
   901 000008D1                                 L117:
   902 000008D1 83 BD FFFFFBC4 00               	CMP	DWORD [-1084+EBP],0
   903 000008D8 74 97                           	JE	L50
   904 000008DA 85 FF                           	TEST	EDI,EDI
   905 000008DC 74 07                           	JE	L51
   906 000008DE 57                              	PUSH	EDI
   907 000008DF E8 000002AB                     	CALL	_keywin_off
   908 000008E4 59                              	POP	ECX
   909 000008E5                                 L51:
   910 000008E5 FF B5 FFFFFBD0                  	PUSH	DWORD [-1072+EBP]
   911 000008EB FF B5 FFFFFBEC                  	PUSH	DWORD [-1044+EBP]
   912 000008F1 E8 0000039B                     	CALL	_open_console
   913 000008F6 6A 04                           	PUSH	4
   914 000008F8 6A 20                           	PUSH	32
   915 000008FA 89 C7                           	MOV	EDI,EAX
   916 000008FC 50                              	PUSH	EAX
   917 000008FD E8 [00000000]                   	CALL	_sheet_slide
   918 00000902 8B 85 FFFFFBEC                  	MOV	EAX,DWORD [-1044+EBP]
   919 00000908 FF 70 10                        	PUSH	DWORD [16+EAX]
   920 0000090B 57                              	PUSH	EDI
   921 0000090C E8 [00000000]                   	CALL	_sheet_updown
   922 00000911 57                              	PUSH	EDI
   923 00000912 E8 000002A6                     	CALL	_keywin_on
   924 00000917 83 C4 20                        	ADD	ESP,32
   925 0000091A E9 FFFFFF52                     	JMP	L50
   926 0000091F                                 L116:
   927 0000091F 83 BD FFFFFBC4 00               	CMP	DWORD [-1084+EBP],0
   928 00000926 0F 84 FFFFFF39                  	JE	L48
   929 0000092C 85 FF                           	TEST	EDI,EDI
   930 0000092E 0F 84 FFFFFF31                  	JE	L48
   931 00000934 8B 5F 24                        	MOV	EBX,DWORD [36+EDI]
   932 00000937 85 DB                           	TEST	EBX,EBX
   933 00000939 0F 84 FFFFFF26                  	JE	L48
   934 0000093F 83 7B 34 00                     	CMP	DWORD [52+EBX],0
   935 00000943 0F 84 FFFFFF1C                  	JE	L48
   936 00000949 68 [0000011D]                   	PUSH	LC1
   937 0000094E FF B3 000000A4                  	PUSH	DWORD [164+EBX]
   938 00000954 E8 [00000000]                   	CALL	_cons_putstr0
   939 00000959 E8 [00000000]                   	CALL	_io_cli
   940 0000095E 8D 43 30                        	LEA	EAX,DWORD [48+EBX]
   941 00000961 89 43 54                        	MOV	DWORD [84+EBX],EAX
   942 00000964 C7 43 4C [00000000]             	MOV	DWORD [76+EBX],_asm_end_app
   943 0000096B E8 [00000000]                   	CALL	_io_sti
   944 00000970 6A 00                           	PUSH	0
   945 00000972 6A FF                           	PUSH	-1
   946 00000974 53                              	PUSH	EBX
   947 00000975 E8 [00000000]                   	CALL	_task_run
   948 0000097A 83 C4 14                        	ADD	ESP,20
   949 0000097D E9 FFFFFEE3                     	JMP	L48
   950 00000982                                 L115:
   951 00000982 68 000000ED                     	PUSH	237
   952 00000987 8D 5D 84                        	LEA	EBX,DWORD [-124+EBP]
   953 0000098A 53                              	PUSH	EBX
   954 0000098B 83 B5 FFFFFBC0 01               	XOR	DWORD [-1088+EBP],1
   955 00000992 E8 [00000000]                   	CALL	_fifo32_put
   956 00000997 FF B5 FFFFFBC0                  	PUSH	DWORD [-1088+EBP]
   957 0000099D 53                              	PUSH	EBX
   958 0000099E E8 [00000000]                   	CALL	_fifo32_put
   959 000009A3 83 C4 10                        	ADD	ESP,16
   960 000009A6 E9 FFFFFEAA                     	JMP	L47
   961 000009AB                                 L114:
   962 000009AB 68 000000ED                     	PUSH	237
   963 000009B0 8D 5D 84                        	LEA	EBX,DWORD [-124+EBP]
   964 000009B3 53                              	PUSH	EBX
   965 000009B4 83 B5 FFFFFBC0 02               	XOR	DWORD [-1088+EBP],2
   966 000009BB E8 [00000000]                   	CALL	_fifo32_put
   967 000009C0 FF B5 FFFFFBC0                  	PUSH	DWORD [-1088+EBP]
   968 000009C6 53                              	PUSH	EBX
   969 000009C7 E8 [00000000]                   	CALL	_fifo32_put
   970 000009CC 83 C4 10                        	ADD	ESP,16
   971 000009CF E9 FFFFFE71                     	JMP	L46
   972 000009D4                                 L113:
   973 000009D4 68 000000ED                     	PUSH	237
   974 000009D9 8D 5D 84                        	LEA	EBX,DWORD [-124+EBP]
   975 000009DC 53                              	PUSH	EBX
   976 000009DD 83 B5 FFFFFBC0 04               	XOR	DWORD [-1088+EBP],4
   977 000009E4 E8 [00000000]                   	CALL	_fifo32_put
   978 000009E9 FF B5 FFFFFBC0                  	PUSH	DWORD [-1088+EBP]
   979 000009EF 53                              	PUSH	EBX
   980 000009F0 E8 [00000000]                   	CALL	_fifo32_put
   981 000009F5 83 C4 10                        	ADD	ESP,16
   982 000009F8 E9 FFFFFE38                     	JMP	L45
   983 000009FD                                 L112:
   984 000009FD 83 A5 FFFFFBC4 FD               	AND	DWORD [-1084+EBP],-3
   985 00000A04 E9 FFFFFE21                     	JMP	L44
   986 00000A09                                 L111:
   987 00000A09 83 A5 FFFFFBC4 FE               	AND	DWORD [-1084+EBP],-2
   988 00000A10 E9 FFFFFE0A                     	JMP	L43
   989 00000A15                                 L110:
   990 00000A15 83 8D FFFFFBC4 02               	OR	DWORD [-1084+EBP],2
   991 00000A1C E9 FFFFFDF3                     	JMP	L42
   992 00000A21                                 L109:
   993 00000A21 83 8D FFFFFBC4 01               	OR	DWORD [-1084+EBP],1
   994 00000A28 E9 FFFFFDDC                     	JMP	L41
   995 00000A2D                                 L108:
   996 00000A2D 85 FF                           	TEST	EDI,EDI
   997 00000A2F 0F 84 FFFFFDC3                  	JE	L39
   998 00000A35 57                              	PUSH	EDI
   999 00000A36 E8 00000154                     	CALL	_keywin_off
  1000 00000A3B 8B 4F 18                        	MOV	ECX,DWORD [24+EDI]
  1001 00000A3E 49                              	DEC	ECX
  1002 00000A3F 5E                              	POP	ESI
  1003 00000A40 75 0A                           	JNE	L40
  1004 00000A42 8B 85 FFFFFBEC                  	MOV	EAX,DWORD [-1044+EBP]
  1005 00000A48 8B 48 10                        	MOV	ECX,DWORD [16+EAX]
  1006 00000A4B 49                              	DEC	ECX
  1007 00000A4C                                 L40:
  1008 00000A4C 8B 95 FFFFFBEC                  	MOV	EDX,DWORD [-1044+EBP]
  1009 00000A52 8B 7C 8A 14                     	MOV	EDI,DWORD [20+EDX+ECX*4]
  1010 00000A56 57                              	PUSH	EDI
  1011 00000A57 E8 00000161                     	CALL	_keywin_on
  1012 00000A5C 5B                              	POP	EBX
  1013 00000A5D E9 FFFFFD96                     	JMP	L39
  1014 00000A62                                 L36:
  1015 00000A62 8D 42 20                        	LEA	EAX,DWORD [32+EDX]
  1016 00000A65 88 45 C4                        	MOV	BYTE [-60+EBP],AL
  1017 00000A68 E9 FFFFFD59                     	JMP	L34
  1018 00000A6D                                 L89:
  1019 00000A6D 83 BD FFFFFBC4 00               	CMP	DWORD [-1084+EBP],0
  1020 00000A74 0F 84 FFFFFD4C                  	JE	L34
  1021 00000A7A EB E6                           	JMP	L36
  1022 00000A7C                                 L31:
  1023 00000A7C 8A 82 [FFFFFF80]                	MOV	AL,BYTE [_keytable1.1-256+EDX]
  1024 00000A82 E9 FFFFFD15                     	JMP	L94
  1025 00000A87                                 L30:
  1026 00000A87 C6 45 C4 00                     	MOV	BYTE [-60+EBP],0
  1027 00000A8B E9 FFFFFD0F                     	JMP	L33
  1028 00000A90                                 L98:
  1029 00000A90 83 BD FFFFFBE0 00               	CMP	DWORD [-1056+EBP],0
  1030 00000A97 79 2B                           	JNS	L120
  1031 00000A99 81 BD FFFFFBD8 7FFFFFFF         	CMP	DWORD [-1064+EBP],2147483647
  1032 00000AA3 75 15                           	JNE	L121
  1033 00000AA5 FF B5 FFFFFBC8                  	PUSH	DWORD [-1080+EBP]
  1034 00000AAB E8 [00000000]                   	CALL	_task_sleep
  1035 00000AB0 E8 [00000000]                   	CALL	_io_sti
  1036 00000AB5 E9 FFFFF9AE                     	JMP	L91
  1037 00000ABA                                 L121:
  1038 00000ABA E8 [00000000]                   	CALL	_io_sti
  1039 00000ABF E9 FFFFFA75                     	JMP	L93
  1040 00000AC4                                 L120:
  1041 00000AC4 E8 [00000000]                   	CALL	_io_sti
  1042 00000AC9 FF B5 FFFFFBDC                  	PUSH	DWORD [-1060+EBP]
  1043 00000ACF FF B5 FFFFFBE0                  	PUSH	DWORD [-1056+EBP]
  1044 00000AD5 FF B5 FFFFFBCC                  	PUSH	DWORD [-1076+EBP]
  1045 00000ADB E8 [00000000]                   	CALL	_sheet_slide
  1046 00000AE0 C7 85 FFFFFBE0 FFFFFFFF         	MOV	DWORD [-1056+EBP],-1
  1047 00000AEA E9 FFFFF86A                     	JMP	L92
  1048 00000AEF                                 L97:
  1049 00000AEF 53                              	PUSH	EBX
  1050 00000AF0 E8 [00000000]                   	CALL	_fifo32_get
  1051 00000AF5 89 85 FFFFFBBC                  	MOV	DWORD [-1092+EBP],EAX
  1052 00000AFB E8 [00000000]                   	CALL	_wait_KBC_sendready
  1053 00000B00 FF B5 FFFFFBBC                  	PUSH	DWORD [-1092+EBP]
  1054 00000B06 6A 60                           	PUSH	96
  1055 00000B08 E8 [00000000]                   	CALL	_io_out8
  1056 00000B0D 83 C4 0C                        	ADD	ESP,12
  1057 00000B10 E9 FFFFF862                     	JMP	L19
  1058 00000B15                                 L4:
  1059 00000B15 68 00023840                     	PUSH	145472
  1060 00000B1A 68 003C0000                     	PUSH	3932160
  1061 00000B1F E8 [00000000]                   	CALL	_memman_alloc_4k
  1062 00000B24 31 D2                           	XOR	EDX,EDX
  1063 00000B26 5E                              	POP	ESI
  1064 00000B27 89 C1                           	MOV	ECX,EAX
  1065 00000B29 C7 85 FFFFFBF0 00000000         	MOV	DWORD [-1040+EBP],0
  1066 00000B33 58                              	POP	EAX
  1067 00000B34                                 L10:
  1068 00000B34 8A 82 [00000000]                	MOV	AL,BYTE [_hankaku+EDX]
  1069 00000B3A 88 04 0A                        	MOV	BYTE [EDX+ECX*1],AL
  1070 00000B3D 8B 85 FFFFFBF0                  	MOV	EAX,DWORD [-1040+EBP]
  1071 00000B43 40                              	INC	EAX
  1072 00000B44 89 85 FFFFFBF0                  	MOV	DWORD [-1040+EBP],EAX
  1073 00000B4A 89 C2                           	MOV	EDX,EAX
  1074 00000B4C 3D 00000FFF                     	CMP	EAX,4095
  1075 00000B51 7E E1                           	JLE	L10
  1076 00000B53 C7 85 FFFFFBF0 00001000         	MOV	DWORD [-1040+EBP],4096
  1077 00000B5D B8 00001000                     	MOV	EAX,4096
  1078 00000B62                                 L15:
  1079 00000B62 C6 04 08 FF                     	MOV	BYTE [EAX+ECX*1],-1
  1080 00000B66 8B 85 FFFFFBF0                  	MOV	EAX,DWORD [-1040+EBP]
  1081 00000B6C 40                              	INC	EAX
  1082 00000B6D 89 85 FFFFFBF0                  	MOV	DWORD [-1040+EBP],EAX
  1083 00000B73 3D 0002383F                     	CMP	EAX,145471
  1084 00000B78 7E E8                           	JLE	L15
  1085 00000B7A E9 FFFFF7C4                     	JMP	L5
  1086 00000B7F                                 L96:
  1087 00000B7F 68 FEE00000                     	PUSH	-18874368
  1088 00000B84 E8 [00000000]                   	CALL	_init_apic
  1089 00000B89 58                              	POP	EAX
  1090 00000B8A E9 FFFFF50A                     	JMP	L3
  1091 00000B8F                                 	GLOBAL	_keywin_off
  1092 00000B8F                                 _keywin_off:
  1093 00000B8F 55                              	PUSH	EBP
  1094 00000B90 89 E5                           	MOV	EBP,ESP
  1095 00000B92 53                              	PUSH	EBX
  1096 00000B93 6A 00                           	PUSH	0
  1097 00000B95 8B 5D 08                        	MOV	EBX,DWORD [8+EBP]
  1098 00000B98 53                              	PUSH	EBX
  1099 00000B99 E8 [00000000]                   	CALL	_change_wtitle8
  1100 00000B9E F6 43 1C 20                     	TEST	BYTE [28+EBX],32
  1101 00000BA2 59                              	POP	ECX
  1102 00000BA3 58                              	POP	EAX
  1103 00000BA4 75 05                           	JNE	L124
  1104 00000BA6                                 L122:
  1105 00000BA6 8B 5D FC                        	MOV	EBX,DWORD [-4+EBP]
  1106 00000BA9 C9                              	LEAVE
  1107 00000BAA C3                              	RET
  1108 00000BAB                                 L124:
  1109 00000BAB 6A 03                           	PUSH	3
  1110 00000BAD 8B 43 24                        	MOV	EAX,DWORD [36+EBX]
  1111 00000BB0 83 C0 10                        	ADD	EAX,16
  1112 00000BB3 50                              	PUSH	EAX
  1113 00000BB4 E8 [00000000]                   	CALL	_fifo32_put
  1114 00000BB9 58                              	POP	EAX
  1115 00000BBA 5A                              	POP	EDX
  1116 00000BBB EB E9                           	JMP	L122
  1117 00000BBD                                 	GLOBAL	_keywin_on
  1118 00000BBD                                 _keywin_on:
  1119 00000BBD 55                              	PUSH	EBP
  1120 00000BBE 89 E5                           	MOV	EBP,ESP
  1121 00000BC0 53                              	PUSH	EBX
  1122 00000BC1 6A 01                           	PUSH	1
  1123 00000BC3 8B 5D 08                        	MOV	EBX,DWORD [8+EBP]
  1124 00000BC6 53                              	PUSH	EBX
  1125 00000BC7 E8 [00000000]                   	CALL	_change_wtitle8
  1126 00000BCC F6 43 1C 20                     	TEST	BYTE [28+EBX],32
  1127 00000BD0 59                              	POP	ECX
  1128 00000BD1 58                              	POP	EAX
  1129 00000BD2 75 05                           	JNE	L127
  1130 00000BD4                                 L125:
  1131 00000BD4 8B 5D FC                        	MOV	EBX,DWORD [-4+EBP]
  1132 00000BD7 C9                              	LEAVE
  1133 00000BD8 C3                              	RET
  1134 00000BD9                                 L127:
  1135 00000BD9 6A 02                           	PUSH	2
  1136 00000BDB 8B 43 24                        	MOV	EAX,DWORD [36+EBX]
  1137 00000BDE 83 C0 10                        	ADD	EAX,16
  1138 00000BE1 50                              	PUSH	EAX
  1139 00000BE2 E8 [00000000]                   	CALL	_fifo32_put
  1140 00000BE7 58                              	POP	EAX
  1141 00000BE8 5A                              	POP	EDX
  1142 00000BE9 EB E9                           	JMP	L125
  1143 00000BEB                                 	GLOBAL	_open_constask
  1144 00000BEB                                 _open_constask:
  1145 00000BEB 55                              	PUSH	EBP
  1146 00000BEC 89 E5                           	MOV	EBP,ESP
  1147 00000BEE 56                              	PUSH	ESI
  1148 00000BEF 53                              	PUSH	EBX
  1149 00000BF0 E8 [00000000]                   	CALL	_task_alloc
  1150 00000BF5 68 00000200                     	PUSH	512
  1151 00000BFA 68 003C0000                     	PUSH	3932160
  1152 00000BFF 89 C3                           	MOV	EBX,EAX
  1153 00000C01 E8 [00000000]                   	CALL	_memman_alloc_4k
  1154 00000C06 68 00010000                     	PUSH	65536
  1155 00000C0B 68 003C0000                     	PUSH	3932160
  1156 00000C10 89 C6                           	MOV	ESI,EAX
  1157 00000C12 E8 [00000000]                   	CALL	_memman_alloc_4k
  1158 00000C17 8B 55 08                        	MOV	EDX,DWORD [8+EBP]
  1159 00000C1A C7 43 4C [00000000]             	MOV	DWORD [76+EBX],_console_task
  1160 00000C21 89 83 000000AC                  	MOV	DWORD [172+EBX],EAX
  1161 00000C27 05 0000FFF4                     	ADD	EAX,65524
  1162 00000C2C 89 43 64                        	MOV	DWORD [100+EBX],EAX
  1163 00000C2F C7 43 74 00000008               	MOV	DWORD [116+EBX],8
  1164 00000C36 C7 43 78 00000010               	MOV	DWORD [120+EBX],16
  1165 00000C3D C7 43 7C 00000008               	MOV	DWORD [124+EBX],8
  1166 00000C44 C7 83 00000080 00000008         	MOV	DWORD [128+EBX],8
  1167 00000C4E C7 83 00000084 00000008         	MOV	DWORD [132+EBX],8
  1168 00000C58 C7 83 00000088 00000008         	MOV	DWORD [136+EBX],8
  1169 00000C62 89 50 04                        	MOV	DWORD [4+EAX],EDX
  1170 00000C65 8B 53 64                        	MOV	EDX,DWORD [100+EBX]
  1171 00000C68 8B 45 0C                        	MOV	EAX,DWORD [12+EBP]
  1172 00000C6B 89 42 08                        	MOV	DWORD [8+EDX],EAX
  1173 00000C6E 6A 02                           	PUSH	2
  1174 00000C70 6A 02                           	PUSH	2
  1175 00000C72 53                              	PUSH	EBX
  1176 00000C73 E8 [00000000]                   	CALL	_task_run
  1177 00000C78 8D 43 10                        	LEA	EAX,DWORD [16+EBX]
  1178 00000C7B 53                              	PUSH	EBX
  1179 00000C7C 56                              	PUSH	ESI
  1180 00000C7D 68 00000080                     	PUSH	128
  1181 00000C82 50                              	PUSH	EAX
  1182 00000C83 E8 [00000000]                   	CALL	_fifo32_init
  1183 00000C88 8D 65 F8                        	LEA	ESP,DWORD [-8+EBP]
  1184 00000C8B 89 D8                           	MOV	EAX,EBX
  1185 00000C8D 5B                              	POP	EBX
  1186 00000C8E 5E                              	POP	ESI
  1187 00000C8F 5D                              	POP	EBP
  1188 00000C90 C3                              	RET
  1189                                          [SECTION .data]
  1190 0000012C                                 LC3:
  1191 0000012C 63 6F 6E 73 6F 6C 65 00         	DB	"console",0x00
  1192                                          [SECTION .text]
  1193 00000C91                                 	GLOBAL	_open_console
  1194 00000C91                                 _open_console:
  1195 00000C91 55                              	PUSH	EBP
  1196 00000C92 89 E5                           	MOV	EBP,ESP
  1197 00000C94 56                              	PUSH	ESI
  1198 00000C95 53                              	PUSH	EBX
  1199 00000C96 FF 75 08                        	PUSH	DWORD [8+EBP]
  1200 00000C99 E8 [00000000]                   	CALL	_sheet_alloc
  1201 00000C9E 68 0000A500                     	PUSH	42240
  1202 00000CA3 68 003C0000                     	PUSH	3932160
  1203 00000CA8 89 C3                           	MOV	EBX,EAX
  1204 00000CAA E8 [00000000]                   	CALL	_memman_alloc_4k
  1205 00000CAF 6A FF                           	PUSH	-1
  1206 00000CB1 68 000000A5                     	PUSH	165
  1207 00000CB6 89 C6                           	MOV	ESI,EAX
  1208 00000CB8 68 00000100                     	PUSH	256
  1209 00000CBD 50                              	PUSH	EAX
  1210 00000CBE 53                              	PUSH	EBX
  1211 00000CBF E8 [00000000]                   	CALL	_sheet_setbuf
  1212 00000CC4 83 C4 20                        	ADD	ESP,32
  1213 00000CC7 6A 00                           	PUSH	0
  1214 00000CC9 68 [0000012C]                   	PUSH	LC3
  1215 00000CCE 68 000000A5                     	PUSH	165
  1216 00000CD3 68 00000100                     	PUSH	256
  1217 00000CD8 56                              	PUSH	ESI
  1218 00000CD9 E8 [00000000]                   	CALL	_make_window8
  1219 00000CDE 6A 00                           	PUSH	0
  1220 00000CE0 68 00000080                     	PUSH	128
  1221 00000CE5 68 000000F0                     	PUSH	240
  1222 00000CEA 6A 1C                           	PUSH	28
  1223 00000CEC 6A 08                           	PUSH	8
  1224 00000CEE 53                              	PUSH	EBX
  1225 00000CEF E8 [00000000]                   	CALL	_make_textbox8
  1226 00000CF4 83 C4 2C                        	ADD	ESP,44
  1227 00000CF7 FF 75 0C                        	PUSH	DWORD [12+EBP]
  1228 00000CFA 53                              	PUSH	EBX
  1229 00000CFB E8 FFFFFEEB                     	CALL	_open_constask
  1230 00000D00 83 4B 1C 20                     	OR	DWORD [28+EBX],32
  1231 00000D04 89 43 24                        	MOV	DWORD [36+EBX],EAX
  1232 00000D07 8D 65 F8                        	LEA	ESP,DWORD [-8+EBP]
  1233 00000D0A 89 D8                           	MOV	EAX,EBX
  1234 00000D0C 5B                              	POP	EBX
  1235 00000D0D 5E                              	POP	ESI
  1236 00000D0E 5D                              	POP	EBP
  1237 00000D0F C3                              	RET
  1238 00000D10                                 	GLOBAL	_close_constask
  1239 00000D10                                 _close_constask:
  1240 00000D10 55                              	PUSH	EBP
  1241 00000D11 89 E5                           	MOV	EBP,ESP
  1242 00000D13 53                              	PUSH	EBX
  1243 00000D14 8B 5D 08                        	MOV	EBX,DWORD [8+EBP]
  1244 00000D17 53                              	PUSH	EBX
  1245 00000D18 E8 [00000000]                   	CALL	_task_sleep
  1246 00000D1D 68 00010000                     	PUSH	65536
  1247 00000D22 FF B3 000000AC                  	PUSH	DWORD [172+EBX]
  1248 00000D28 68 003C0000                     	PUSH	3932160
  1249 00000D2D E8 [00000000]                   	CALL	_memman_free_4k
  1250 00000D32 68 00000200                     	PUSH	512
  1251 00000D37 FF 73 10                        	PUSH	DWORD [16+EBX]
  1252 00000D3A 68 003C0000                     	PUSH	3932160
  1253 00000D3F E8 [00000000]                   	CALL	_memman_free_4k
  1254 00000D44 C7 43 04 00000000               	MOV	DWORD [4+EBX],0
  1255 00000D4B 8B 5D FC                        	MOV	EBX,DWORD [-4+EBP]
  1256 00000D4E C9                              	LEAVE
  1257 00000D4F C3                              	RET
  1258 00000D50                                 	GLOBAL	_close_console
  1259 00000D50                                 _close_console:
  1260 00000D50 55                              	PUSH	EBP
  1261 00000D51 89 E5                           	MOV	EBP,ESP
  1262 00000D53 56                              	PUSH	ESI
  1263 00000D54 53                              	PUSH	EBX
  1264 00000D55 8B 5D 08                        	MOV	EBX,DWORD [8+EBP]
  1265 00000D58 8B 73 24                        	MOV	ESI,DWORD [36+EBX]
  1266 00000D5B 68 0000A500                     	PUSH	42240
  1267 00000D60 FF 33                           	PUSH	DWORD [EBX]
  1268 00000D62 68 003C0000                     	PUSH	3932160
  1269 00000D67 E8 [00000000]                   	CALL	_memman_free_4k
  1270 00000D6C 53                              	PUSH	EBX
  1271 00000D6D E8 [00000000]                   	CALL	_sheet_free
  1272 00000D72 89 75 08                        	MOV	DWORD [8+EBP],ESI
  1273 00000D75 83 C4 10                        	ADD	ESP,16
  1274 00000D78 8D 65 F8                        	LEA	ESP,DWORD [-8+EBP]
  1275 00000D7B 5B                              	POP	EBX
  1276 00000D7C 5E                              	POP	ESI
  1277 00000D7D 5D                              	POP	EBP
  1278 00000D7E EB 90                           	JMP	_close_constask
