     1 00000000                                 [FORMAT "WCOFF"]
     2 00000000                                 [INSTRSET "i486p"]
     3 00000000                                 [OPTIMIZE 1]
     4 00000000                                 [OPTION 1]
     5 00000000                                 [BITS 32]
     6 00000000                                 	EXTERN	_dmg_read
     7 00000000                                 	EXTERN	_task_now
     8 00000000                                 	EXTERN	_timer_alloc
     9 00000000                                 	EXTERN	_timer_init
    10 00000000                                 	EXTERN	_timer_settime
    11 00000000                                 	EXTERN	_file_loadfile2
    12 00000000                                 	EXTERN	_io_cli
    13 00000000                                 	EXTERN	_fifo32_status
    14 00000000                                 	EXTERN	_fifo32_get
    15 00000000                                 	EXTERN	_io_sti
    16 00000000                                 	EXTERN	_boxfill32
    17 00000000                                 	EXTERN	_sheet_refresh
    18 00000000                                 	EXTERN	_task_sleep
    19 00000000                                 	EXTERN	_putfonts8_asc_sht32
    20 00000000                                 	EXTERN	_desktop_start
    21 00000000                                 	EXTERN	_system_task
    22 00000000                                 	EXTERN	_fifo32_put
    23 00000000                                 	EXTERN	_sys_reboot
    24 00000000                                 	EXTERN	_task_ctl_now
    25 00000000                                 	EXTERN	_sprintf
    26 00000000                                 	EXTERN	_io_out32
    27 00000000                                 	EXTERN	_io_in32
    28 00000000                                 	EXTERN	_rdrand
    29 00000000                                 	EXTERN	_memman_total
    30 00000000                                 	EXTERN	_file_full_search
    31 00000000                                 	EXTERN	_memman_alloc_4k
    32 00000000                                 	EXTERN	_pageman_link_page_32_m
    33 00000000                                 	EXTERN	_pageman_unlink_page_32_m
    34 00000000                                 	EXTERN	_timer_cancel
    35 00000000                                 	EXTERN	_pageman_unlink_page_32
    36 00000000                                 	EXTERN	_memman_free_4k
    37 00000000                                 	EXTERN	_sheet_free
    38 00000000                                 	EXTERN	_system_task_abort
    39 00000000                                 	EXTERN	_open_console
    40 00000000                                 	EXTERN	_sheet_slide
    41 00000000                                 	EXTERN	_sheet_updown
    42 00000000                                 	EXTERN	_open_constask
    43 00000000                                 	EXTERN	_file_search
    44 00000000                                 	EXTERN	_set_segmdesc
    45 00000000                                 	EXTERN	_start_app
    46 00000000                                 	EXTERN	_timer_cancelall
    47 00000000                                 	EXTERN	_io_in8
    48 00000000                                 	EXTERN	_io_out8
    49 00000000                                 	EXTERN	_timer_free
    50 00000000                                 	EXTERN	_memman_free
    51 00000000                                 	EXTERN	_memman_alloc
    52 00000000                                 	EXTERN	_memman_init
    53 00000000                                 	EXTERN	_putfonts32_asc
    54 00000000                                 	EXTERN	_sheet_alloc
    55 00000000                                 	EXTERN	_sheet_setbuf
    56 00000000                                 	EXTERN	_make_window32
    57 00000000                                 [FILE "console.c"]
    58                                          [SECTION .text]
    59 00000000                                 	GLOBAL	__cons_read_file
    60 00000000                                 __cons_read_file:
    61 00000000 55                              	PUSH	EBP
    62 00000001 89 E5                           	MOV	EBP,ESP
    63 00000003 57                              	PUSH	EDI
    64 00000004 56                              	PUSH	ESI
    65 00000005 53                              	PUSH	EBX
    66 00000006 31 DB                           	XOR	EBX,EBX
    67 00000008 50                              	PUSH	EAX
    68 00000009 8B 7D 18                        	MOV	EDI,DWORD [24+EBP]
    69 0000000C 8B 75 1C                        	MOV	ESI,DWORD [28+EBP]
    70 0000000F C7 45 F0 00000200               	MOV	DWORD [-16+EBP],512
    71 00000016                                 L2:
    72 00000016 0F B6 4F 0D                     	MOVZX	ECX,BYTE [13+EDI]
    73 0000001A 8B 45 F0                        	MOV	EAX,DWORD [-16+EBP]
    74 0000001D 0F AF C1                        	IMUL	EAX,ECX
    75 00000020 3B 45 0C                        	CMP	EAX,DWORD [12+EBP]
    76 00000023 77 54                           	JA	L7
    77 00000025 6A 00                           	PUSH	0
    78 00000027 8D 46 FE                        	LEA	EAX,DWORD [-2+ESI]
    79 0000002A 51                              	PUSH	ECX
    80 0000002B 0F B6 57 10                     	MOVZX	EDX,BYTE [16+EDI]
    81 0000002F 0F AF 57 24                     	IMUL	EDX,DWORD [36+EDI]
    82 00000033 0F AF C1                        	IMUL	EAX,ECX
    83 00000036 01 C2                           	ADD	EDX,EAX
    84 00000038 0F B7 47 0E                     	MOVZX	EAX,WORD [14+EDI]
    85 0000003C 03 45 14                        	ADD	EAX,DWORD [20+EBP]
    86 0000003F 01 C2                           	ADD	EDX,EAX
    87 00000041 89 D8                           	MOV	EAX,EBX
    88 00000043 0F AF C1                        	IMUL	EAX,ECX
    89 00000046 C1 E0 09                        	SAL	EAX,9
    90 00000049 52                              	PUSH	EDX
    91 0000004A 03 45 08                        	ADD	EAX,DWORD [8+EBP]
    92 0000004D 50                              	PUSH	EAX
    93 0000004E E8 [00000000]                   	CALL	_dmg_read
    94 00000053 83 C4 10                        	ADD	ESP,16
    95 00000056 8B 55 10                        	MOV	EDX,DWORD [16+EBP]
    96 00000059 8B 04 B2                        	MOV	EAX,DWORD [EDX+ESI*4]
    97 0000005C 3D 0FFFFFFF                     	CMP	EAX,268435455
    98 00000061 74 0C                           	JE	L1
    99 00000063 81 45 F0 00000200               	ADD	DWORD [-16+EBP],512
   100 0000006A 89 C6                           	MOV	ESI,EAX
   101 0000006C 43                              	INC	EBX
   102 0000006D EB A7                           	JMP	L2
   103 0000006F                                 L1:
   104 0000006F 8D 65 F4                        	LEA	ESP,DWORD [-12+EBP]
   105 00000072 31 C0                           	XOR	EAX,EAX
   106 00000074 5B                              	POP	EBX
   107 00000075 5E                              	POP	ESI
   108 00000076 5F                              	POP	EDI
   109 00000077 5D                              	POP	EBP
   110 00000078 C3                              	RET
   111 00000079                                 L7:
   112 00000079 0F AF D9                        	IMUL	EBX,ECX
   113 0000007C C1 E3 09                        	SAL	EBX,9
   114 0000007F 8B 45 0C                        	MOV	EAX,DWORD [12+EBP]
   115 00000082 89 18                           	MOV	DWORD [EAX],EBX
   116 00000084 EB E9                           	JMP	L1
   117 00000086                                 	GLOBAL	_console_task
   118 00000086                                 _console_task:
   119 00000086 55                              	PUSH	EBP
   120 00000087 89 E5                           	MOV	EBP,ESP
   121 00000089 57                              	PUSH	EDI
   122 0000008A 56                              	PUSH	ESI
   123 0000008B 53                              	PUSH	EBX
   124 0000008C 81 EC 000000CC                  	SUB	ESP,204
   125 00000092 8B 5D 08                        	MOV	EBX,DWORD [8+EBP]
   126 00000095 E8 [00000000]                   	CALL	_task_now
   127 0000009A 89 85 FFFFFF2C                  	MOV	DWORD [-212+EBP],EAX
   128 000000A0 E8 [00000000]                   	CALL	_task_now
   129 000000A5 A1 0026F028                     	MOV	EAX,DWORD [2551848]
   130 000000AA 8B 95 FFFFFF2C                  	MOV	EDX,DWORD [-212+EBP]
   131 000000B0 89 85 FFFFFF28                  	MOV	DWORD [-216+EBP],EAX
   132 000000B6 89 5D B4                        	MOV	DWORD [-76+EBP],EBX
   133 000000B9 8D 45 B4                        	LEA	EAX,DWORD [-76+EBP]
   134 000000BC 85 DB                           	TEST	EBX,EBX
   135 000000BE 89 82 000000C8                  	MOV	DWORD [200+EDX],EAX
   136 000000C4 8D 85 FFFFFF34                  	LEA	EAX,DWORD [-204+EBP]
   137 000000CA C7 45 B8 00000008               	MOV	DWORD [-72+EBP],8
   138 000000D1 C7 45 BC 0000001C               	MOV	DWORD [-68+EBP],28
   139 000000D8 C7 45 C0 FFFFFFFF               	MOV	DWORD [-64+EBP],-1
   140 000000DF 89 82 000000DC                  	MOV	DWORD [220+EDX],EAX
   141 000000E5 74 27                           	JE	L9
   142 000000E7 E8 [00000000]                   	CALL	_timer_alloc
   143 000000EC 8B 95 FFFFFF2C                  	MOV	EDX,DWORD [-212+EBP]
   144 000000F2 6A 01                           	PUSH	1
   145 000000F4 83 C2 10                        	ADD	EDX,16
   146 000000F7 52                              	PUSH	EDX
   147 000000F8 89 45 D4                        	MOV	DWORD [-44+EBP],EAX
   148 000000FB 50                              	PUSH	EAX
   149 000000FC E8 [00000000]                   	CALL	_timer_init
   150 00000101 6A 32                           	PUSH	50
   151 00000103 FF 75 D4                        	PUSH	DWORD [-44+EBP]
   152 00000106 E8 [00000000]                   	CALL	_timer_settime
   153 0000010B 83 C4 14                        	ADD	ESP,20
   154 0000010E                                 L9:
   155 0000010E 31 C0                           	XOR	EAX,EAX
   156 00000110 BE 00000007                     	MOV	ESI,7
   157 00000115                                 L14:
   158 00000115 C7 84 05 FFFFFF54 00000000      	MOV	DWORD [-172+EBP+EAX*1],0
   159 00000120 83 C0 0C                        	ADD	EAX,12
   160 00000123 4E                              	DEC	ESI
   161 00000124 79 EF                           	JNS	L14
   162 00000126 8B 8D FFFFFF2C                  	MOV	ECX,DWORD [-212+EBP]
   163 0000012C 8B BD FFFFFF28                  	MOV	EDI,DWORD [-216+EBP]
   164 00000132 8D 85 FFFFFF54                  	LEA	EAX,DWORD [-172+EBP]
   165 00000138 C6 81 000000E0 00               	MOV	BYTE [224+ECX],0
   166 0000013F C6 81 000000E1 00               	MOV	BYTE [225+ECX],0
   167 00000146 89 81 000000D4                  	MOV	DWORD [212+ECX],EAX
   168 0000014C 89 B9 000000D8                  	MOV	DWORD [216+ECX],EDI
   169 00000152 83 3D 0026F030 00               	CMP	DWORD [2551856],0
   170 00000159 0F 84 0000029B                  	JE	L17
   171 0000015F 8B 3D 0026F024                  	MOV	EDI,DWORD [2551844]
   172 00000165 8B 1D 0026F028                  	MOV	EBX,DWORD [2551848]
   173 0000016B C7 85 FFFFFF30 00002000         	MOV	DWORD [-208+EBP],8192
   174 00000175 E8 [00000000]                   	CALL	_task_now
   175 0000017A 53                              	PUSH	EBX
   176 0000017B 89 C6                           	MOV	ESI,EAX
   177 0000017D 8D 85 FFFFFF30                  	LEA	EAX,DWORD [-208+EBP]
   178 00000183 50                              	PUSH	EAX
   179 00000184 FF 77 2C                        	PUSH	DWORD [44+EDI]
   180 00000187 E8 [00000000]                   	CALL	_file_loadfile2
   181 0000018C 89 86 00000132                  	MOV	DWORD [306+ESI],EAX
   182 00000192 E8 [00000000]                   	CALL	_task_now
   183 00000197 83 C4 0C                        	ADD	ESP,12
   184 0000019A 8B 80 00000132                  	MOV	EAX,DWORD [306+EAX]
   185 000001A0 A3 0026F038                     	MOV	DWORD [2551864],EAX
   186 000001A5                                 L18:
   187 000001A5 6A 01                           	PUSH	1
   188 000001A7 8D 45 B4                        	LEA	EAX,DWORD [-76+EBP]
   189 000001AA 6A 3E                           	PUSH	62
   190 000001AC 50                              	PUSH	EAX
   191 000001AD E8 0000025C                     	CALL	_cons_putchar
   192 000001B2 83 C4 0C                        	ADD	ESP,12
   193 000001B5                                 L19:
   194 000001B5 E8 [00000000]                   	CALL	_io_cli
   195 000001BA 8B 9D FFFFFF2C                  	MOV	EBX,DWORD [-212+EBP]
   196 000001C0 83 C3 10                        	ADD	EBX,16
   197 000001C3 53                              	PUSH	EBX
   198 000001C4 E8 [00000000]                   	CALL	_fifo32_status
   199 000001C9 5E                              	POP	ESI
   200 000001CA 85 C0                           	TEST	EAX,EAX
   201 000001CC 0F 84 00000212                  	JE	L48
   202 000001D2 53                              	PUSH	EBX
   203 000001D3 E8 [00000000]                   	CALL	_fifo32_get
   204 000001D8 89 C6                           	MOV	ESI,EAX
   205 000001DA E8 [00000000]                   	CALL	_io_sti
   206 000001DF 59                              	POP	ECX
   207 000001E0 83 FE 01                        	CMP	ESI,1
   208 000001E3 0F 8E 000001A4                  	JLE	L49
   209 000001E9                                 L24:
   210 000001E9 83 FE 02                        	CMP	ESI,2
   211 000001EC 0F 84 0000018F                  	JE	L50
   212 000001F2                                 L29:
   213 000001F2 83 FE 03                        	CMP	ESI,3
   214 000001F5 0F 84 00000154                  	JE	L51
   215 000001FB                                 L30:
   216 000001FB 83 FE 04                        	CMP	ESI,4
   217 000001FE 0F 84 00000135                  	JE	L52
   218 00000204                                 L32:
   219 00000204 8D 9E FFFFFF00                  	LEA	EBX,DWORD [-256+ESI]
   220 0000020A 81 FB 000000FF                  	CMP	EBX,255
   221 00000210 77 49                           	JA	L33
   222 00000212 81 FE 00000108                  	CMP	ESI,264
   223 00000218 0F 84 000000FB                  	JE	L53
   224 0000021E 81 FE 0000010A                  	CMP	ESI,266
   225 00000224 0F 84 00000090                  	JE	L54
   226 0000022A 8B 4D B8                        	MOV	ECX,DWORD [-72+EBP]
   227 0000022D 81 F9 000000EF                  	CMP	ECX,239
   228 00000233 7F 26                           	JG	L33
   229 00000235 89 C8                           	MOV	EAX,ECX
   230 00000237 BA 00000008                     	MOV	EDX,8
   231 0000023C 89 D7                           	MOV	EDI,EDX
   232 0000023E 6A 01                           	PUSH	1
   233 00000240 99                              	CDQ
   234 00000241 F7 FF                           	IDIV	EDI
   235 00000243 89 C1                           	MOV	ECX,EAX
   236 00000245 53                              	PUSH	EBX
   237 00000246 89 F0                           	MOV	EAX,ESI
   238 00000248 88 84 0D FFFFFF32               	MOV	BYTE [-206+EBP+ECX*1],AL
   239 0000024F 8D 45 B4                        	LEA	EAX,DWORD [-76+EBP]
   240 00000252 50                              	PUSH	EAX
   241 00000253                                 L46:
   242 00000253 E8 000001B6                     	CALL	_cons_putchar
   243 00000258                                 L47:
   244 00000258 83 C4 0C                        	ADD	ESP,12
   245 0000025B                                 L33:
   246 0000025B 8B 5D B4                        	MOV	EBX,DWORD [-76+EBP]
   247 0000025E 85 DB                           	TEST	EBX,EBX
   248 00000260 0F 84 FFFFFF4F                  	JE	L19
   249 00000266 8B 75 C0                        	MOV	ESI,DWORD [-64+EBP]
   250 00000269 85 F6                           	TEST	ESI,ESI
   251 0000026B 78 1E                           	JS	L42
   252 0000026D 8B 4D BC                        	MOV	ECX,DWORD [-68+EBP]
   253 00000270 8B 55 B8                        	MOV	EDX,DWORD [-72+EBP]
   254 00000273 8D 41 0F                        	LEA	EAX,DWORD [15+ECX]
   255 00000276 50                              	PUSH	EAX
   256 00000277 8D 42 07                        	LEA	EAX,DWORD [7+EDX]
   257 0000027A 50                              	PUSH	EAX
   258 0000027B 51                              	PUSH	ECX
   259 0000027C 52                              	PUSH	EDX
   260 0000027D 56                              	PUSH	ESI
   261 0000027E FF 73 08                        	PUSH	DWORD [8+EBX]
   262 00000281 FF 33                           	PUSH	DWORD [EBX]
   263 00000283 E8 [00000000]                   	CALL	_boxfill32
   264 00000288 83 C4 1C                        	ADD	ESP,28
   265 0000028B                                 L42:
   266 0000028B 8B 5D B4                        	MOV	EBX,DWORD [-76+EBP]
   267 0000028E A1 00000FE4                     	MOV	EAX,DWORD [4068]
   268 00000293 39 43 28                        	CMP	DWORD [40+EBX],EAX
   269 00000296 0F 85 FFFFFF19                  	JNE	L19
   270 0000029C 8B 4D BC                        	MOV	ECX,DWORD [-68+EBP]
   271 0000029F 8B 55 B8                        	MOV	EDX,DWORD [-72+EBP]
   272 000002A2 8D 41 10                        	LEA	EAX,DWORD [16+ECX]
   273 000002A5 50                              	PUSH	EAX
   274 000002A6 8D 42 08                        	LEA	EAX,DWORD [8+EDX]
   275 000002A9 50                              	PUSH	EAX
   276 000002AA 51                              	PUSH	ECX
   277 000002AB 52                              	PUSH	EDX
   278 000002AC 53                              	PUSH	EBX
   279 000002AD E8 [00000000]                   	CALL	_sheet_refresh
   280 000002B2 83 C4 14                        	ADD	ESP,20
   281 000002B5 E9 FFFFFEFB                     	JMP	L19
   282 000002BA                                 L54:
   283 000002BA 6A 00                           	PUSH	0
   284 000002BC 8D 5D B4                        	LEA	EBX,DWORD [-76+EBP]
   285 000002BF 6A 20                           	PUSH	32
   286 000002C1 53                              	PUSH	EBX
   287 000002C2 E8 00000147                     	CALL	_cons_putchar
   288 000002C7 53                              	PUSH	EBX
   289 000002C8 8B 45 B8                        	MOV	EAX,DWORD [-72+EBP]
   290 000002CB BA 00000008                     	MOV	EDX,8
   291 000002D0 89 D1                           	MOV	ECX,EDX
   292 000002D2 99                              	CDQ
   293 000002D3 F7 F9                           	IDIV	ECX
   294 000002D5 C6 84 05 FFFFFF32 00            	MOV	BYTE [-206+EBP+EAX*1],0
   295 000002DD E8 000001E3                     	CALL	_cons_newline
   296 000002E2 8D 85 FFFFFF34                  	LEA	EAX,DWORD [-204+EBP]
   297 000002E8 FF 75 0C                        	PUSH	DWORD [12+EBP]
   298 000002EB FF B5 FFFFFF28                  	PUSH	DWORD [-216+EBP]
   299 000002F1 53                              	PUSH	EBX
   300 000002F2 50                              	PUSH	EAX
   301 000002F3 E8 00000329                     	CALL	_cons_runcmd
   302 000002F8 83 C4 20                        	ADD	ESP,32
   303 000002FB 83 7D B4 00                     	CMP	DWORD [-76+EBP],0
   304 000002FF 75 0E                           	JNE	L38
   305 00000301 FF B5 FFFFFF28                  	PUSH	DWORD [-216+EBP]
   306 00000307 53                              	PUSH	EBX
   307 00000308 E8 00000BB1                     	CALL	_cmd_exit
   308 0000030D 5A                              	POP	EDX
   309 0000030E 59                              	POP	ECX
   310 0000030F                                 L38:
   311 0000030F 6A 01                           	PUSH	1
   312 00000311 6A 3E                           	PUSH	62
   313 00000313 53                              	PUSH	EBX
   314 00000314 E9 FFFFFF3A                     	JMP	L46
   315 00000319                                 L53:
   316 00000319 83 7D B8 10                     	CMP	DWORD [-72+EBP],16
   317 0000031D 0F 8E FFFFFF38                  	JLE	L33
   318 00000323 6A 00                           	PUSH	0
   319 00000325 8D 45 B4                        	LEA	EAX,DWORD [-76+EBP]
   320 00000328 6A 20                           	PUSH	32
   321 0000032A 50                              	PUSH	EAX
   322 0000032B E8 000000DE                     	CALL	_cons_putchar
   323 00000330 83 6D B8 08                     	SUB	DWORD [-72+EBP],8
   324 00000334 E9 FFFFFF1F                     	JMP	L47
   325 00000339                                 L52:
   326 00000339 FF B5 FFFFFF28                  	PUSH	DWORD [-216+EBP]
   327 0000033F 8D 45 B4                        	LEA	EAX,DWORD [-76+EBP]
   328 00000342 50                              	PUSH	EAX
   329 00000343 E8 00000B76                     	CALL	_cmd_exit
   330 00000348 5B                              	POP	EBX
   331 00000349 5F                              	POP	EDI
   332 0000034A E9 FFFFFEB5                     	JMP	L32
   333 0000034F                                 L51:
   334 0000034F 8B 5D B4                        	MOV	EBX,DWORD [-76+EBP]
   335 00000352 85 DB                           	TEST	EBX,EBX
   336 00000354 74 1F                           	JE	L31
   337 00000356 8B 4D BC                        	MOV	ECX,DWORD [-68+EBP]
   338 00000359 8B 55 B8                        	MOV	EDX,DWORD [-72+EBP]
   339 0000035C 8D 41 0F                        	LEA	EAX,DWORD [15+ECX]
   340 0000035F 50                              	PUSH	EAX
   341 00000360 8D 42 07                        	LEA	EAX,DWORD [7+EDX]
   342 00000363 50                              	PUSH	EAX
   343 00000364 51                              	PUSH	ECX
   344 00000365 52                              	PUSH	EDX
   345 00000366 6A 00                           	PUSH	0
   346 00000368 FF 73 08                        	PUSH	DWORD [8+EBX]
   347 0000036B FF 33                           	PUSH	DWORD [EBX]
   348 0000036D E8 [00000000]                   	CALL	_boxfill32
   349 00000372 83 C4 1C                        	ADD	ESP,28
   350 00000375                                 L31:
   351 00000375 C7 45 C0 FFFFFFFF               	MOV	DWORD [-64+EBP],-1
   352 0000037C E9 FFFFFE7A                     	JMP	L30
   353 00000381                                 L50:
   354 00000381 C7 45 C0 00FFFFFF               	MOV	DWORD [-64+EBP],16777215
   355 00000388 E9 FFFFFE65                     	JMP	L29
   356 0000038D                                 L49:
   357 0000038D 83 7D B4 00                     	CMP	DWORD [-76+EBP],0
   358 00000391 0F 84 FFFFFE52                  	JE	L24
   359 00000397 85 F6                           	TEST	ESI,ESI
   360 00000399 74 2C                           	JE	L25
   361 0000039B 6A 00                           	PUSH	0
   362 0000039D 53                              	PUSH	EBX
   363 0000039E FF 75 D4                        	PUSH	DWORD [-44+EBP]
   364 000003A1 E8 [00000000]                   	CALL	_timer_init
   365 000003A6 83 C4 0C                        	ADD	ESP,12
   366 000003A9 83 7D C0 00                     	CMP	DWORD [-64+EBP],0
   367 000003AD 78 07                           	JS	L27
   368 000003AF C7 45 C0 00FFFFFF               	MOV	DWORD [-64+EBP],16777215
   369 000003B6                                 L27:
   370 000003B6 6A 32                           	PUSH	50
   371 000003B8 FF 75 D4                        	PUSH	DWORD [-44+EBP]
   372 000003BB E8 [00000000]                   	CALL	_timer_settime
   373 000003C0 58                              	POP	EAX
   374 000003C1 5A                              	POP	EDX
   375 000003C2 E9 FFFFFE22                     	JMP	L24
   376 000003C7                                 L25:
   377 000003C7 6A 01                           	PUSH	1
   378 000003C9 53                              	PUSH	EBX
   379 000003CA FF 75 D4                        	PUSH	DWORD [-44+EBP]
   380 000003CD E8 [00000000]                   	CALL	_timer_init
   381 000003D2 83 C4 0C                        	ADD	ESP,12
   382 000003D5 83 7D C0 00                     	CMP	DWORD [-64+EBP],0
   383 000003D9 78 DB                           	JS	L27
   384 000003DB C7 45 C0 00000000               	MOV	DWORD [-64+EBP],0
   385 000003E2 EB D2                           	JMP	L27
   386 000003E4                                 L48:
   387 000003E4 FF B5 FFFFFF2C                  	PUSH	DWORD [-212+EBP]
   388 000003EA E8 [00000000]                   	CALL	_task_sleep
   389 000003EF E8 [00000000]                   	CALL	_io_sti
   390 000003F4 5B                              	POP	EBX
   391 000003F5 E9 FFFFFDBB                     	JMP	L19
   392 000003FA                                 L17:
   393 000003FA E8 [00000000]                   	CALL	_task_now
   394 000003FF C7 80 00000132 00000000         	MOV	DWORD [306+EAX],0
   395 00000409 E9 FFFFFD97                     	JMP	L18
   396                                          [SECTION .data]
   397 00000000                                 LC0:
   398 00000000 20 00                           	DB	" ",0x00
   399                                          [SECTION .text]
   400 0000040E                                 	GLOBAL	_cons_putchar
   401 0000040E                                 _cons_putchar:
   402 0000040E 55                              	PUSH	EBP
   403 0000040F 89 E5                           	MOV	EBP,ESP
   404 00000411 53                              	PUSH	EBX
   405 00000412 50                              	PUSH	EAX
   406 00000413 8B 45 0C                        	MOV	EAX,DWORD [12+EBP]
   407 00000416 8A 55 10                        	MOV	DL,BYTE [16+EBP]
   408 00000419 8B 5D 08                        	MOV	EBX,DWORD [8+EBP]
   409 0000041C 88 55 F9                        	MOV	BYTE [-7+EBP],DL
   410 0000041F 88 45 FA                        	MOV	BYTE [-6+EBP],AL
   411 00000422 3C 09                           	CMP	AL,9
   412 00000424 C6 45 FB 00                     	MOV	BYTE [-5+EBP],0
   413 00000428 74 50                           	JE	L57
   414 0000042A 3C 0A                           	CMP	AL,10
   415 0000042C 74 25                           	JE	L71
   416 0000042E 3C 0D                           	CMP	AL,13
   417 00000430 74 1C                           	JE	L55
   418 00000432 8B 13                           	MOV	EDX,DWORD [EBX]
   419 00000434 85 D2                           	TEST	EDX,EDX
   420 00000436 75 24                           	JNE	L72
   421 00000438                                 L68:
   422 00000438 80 7D F9 00                     	CMP	BYTE [-7+EBP],0
   423 0000043C 74 10                           	JE	L55
   424 0000043E 8B 43 04                        	MOV	EAX,DWORD [4+EBX]
   425 00000441 83 C0 08                        	ADD	EAX,8
   426 00000444 89 43 04                        	MOV	DWORD [4+EBX],EAX
   427 00000447 3D 00000407                     	CMP	EAX,1031
   428 0000044C 7F 05                           	JG	L71
   429 0000044E                                 L55:
   430 0000044E 8B 5D FC                        	MOV	EBX,DWORD [-4+EBP]
   431 00000451 C9                              	LEAVE
   432 00000452 C3                              	RET
   433 00000453                                 L71:
   434 00000453 53                              	PUSH	EBX
   435 00000454 E8 0000006C                     	CALL	_cons_newline
   436 00000459 58                              	POP	EAX
   437 0000045A EB F2                           	JMP	L55
   438 0000045C                                 L72:
   439 0000045C 6A 01                           	PUSH	1
   440 0000045E 8D 45 FA                        	LEA	EAX,DWORD [-6+EBP]
   441 00000461 50                              	PUSH	EAX
   442 00000462 6A 00                           	PUSH	0
   443 00000464 68 00FFFFFF                     	PUSH	16777215
   444 00000469 FF 73 08                        	PUSH	DWORD [8+EBX]
   445 0000046C FF 73 04                        	PUSH	DWORD [4+EBX]
   446 0000046F 52                              	PUSH	EDX
   447 00000470 E8 [00000000]                   	CALL	_putfonts8_asc_sht32
   448 00000475 83 C4 1C                        	ADD	ESP,28
   449 00000478 EB BE                           	JMP	L68
   450 0000047A                                 L57:
   451 0000047A 8B 03                           	MOV	EAX,DWORD [EBX]
   452 0000047C 85 C0                           	TEST	EAX,EAX
   453 0000047E 75 26                           	JNE	L73
   454 00000480                                 L60:
   455 00000480 8B 43 04                        	MOV	EAX,DWORD [4+EBX]
   456 00000483 83 C0 08                        	ADD	EAX,8
   457 00000486 89 43 04                        	MOV	DWORD [4+EBX],EAX
   458 00000489 3D 00000407                     	CMP	EAX,1031
   459 0000048E 7F 0D                           	JG	L74
   460 00000490                                 L61:
   461 00000490 8B 43 04                        	MOV	EAX,DWORD [4+EBX]
   462 00000493 83 E8 08                        	SUB	EAX,8
   463 00000496 83 E0 1F                        	AND	EAX,31
   464 00000499 75 DF                           	JNE	L57
   465 0000049B EB B1                           	JMP	L55
   466 0000049D                                 L74:
   467 0000049D 53                              	PUSH	EBX
   468 0000049E E8 00000022                     	CALL	_cons_newline
   469 000004A3 58                              	POP	EAX
   470 000004A4 EB EA                           	JMP	L61
   471 000004A6                                 L73:
   472 000004A6 6A 01                           	PUSH	1
   473 000004A8 68 [00000000]                   	PUSH	LC0
   474 000004AD 6A 00                           	PUSH	0
   475 000004AF 68 00FFFFFF                     	PUSH	16777215
   476 000004B4 FF 73 08                        	PUSH	DWORD [8+EBX]
   477 000004B7 FF 73 04                        	PUSH	DWORD [4+EBX]
   478 000004BA 50                              	PUSH	EAX
   479 000004BB E8 [00000000]                   	CALL	_putfonts8_asc_sht32
   480 000004C0 83 C4 1C                        	ADD	ESP,28
   481 000004C3 EB BB                           	JMP	L60
   482 000004C5                                 	GLOBAL	_cons_newline
   483 000004C5                                 _cons_newline:
   484 000004C5 55                              	PUSH	EBP
   485 000004C6 89 E5                           	MOV	EBP,ESP
   486 000004C8 57                              	PUSH	EDI
   487 000004C9 56                              	PUSH	ESI
   488 000004CA 53                              	PUSH	EBX
   489 000004CB 50                              	PUSH	EAX
   490 000004CC 50                              	PUSH	EAX
   491 000004CD 8B 45 08                        	MOV	EAX,DWORD [8+EBP]
   492 000004D0 8B 38                           	MOV	EDI,DWORD [EAX]
   493 000004D2 E8 [00000000]                   	CALL	_task_now
   494 000004D7 8B 55 08                        	MOV	EDX,DWORD [8+EBP]
   495 000004DA 89 45 EC                        	MOV	DWORD [-20+EBP],EAX
   496 000004DD 8B 42 08                        	MOV	EAX,DWORD [8+EDX]
   497 000004E0 3D 000002D7                     	CMP	EAX,727
   498 000004E5 7F 36                           	JG	L76
   499 000004E7 83 C0 10                        	ADD	EAX,16
   500 000004EA 89 42 08                        	MOV	DWORD [8+EDX],EAX
   501 000004ED                                 L77:
   502 000004ED 8B 45 08                        	MOV	EAX,DWORD [8+EBP]
   503 000004F0 8B 55 EC                        	MOV	EDX,DWORD [-20+EBP]
   504 000004F3 C7 40 04 00000008               	MOV	DWORD [4+EAX],8
   505 000004FA 80 BA 000000E0 01               	CMP	BYTE [224+EDX],1
   506 00000501 74 08                           	JE	L109
   507 00000503                                 L75:
   508 00000503 8D 65 F4                        	LEA	ESP,DWORD [-12+EBP]
   509 00000506 5B                              	POP	EBX
   510 00000507 5E                              	POP	ESI
   511 00000508 5F                              	POP	EDI
   512 00000509 5D                              	POP	EBP
   513 0000050A C3                              	RET
   514 0000050B                                 L109:
   515 0000050B 80 BA 000000E1 00               	CMP	BYTE [225+EDX],0
   516 00000512 74 EF                           	JE	L75
   517 00000514 C7 40 04 00000010               	MOV	DWORD [4+EAX],16
   518 0000051B EB E6                           	JMP	L75
   519 0000051D                                 L76:
   520 0000051D 85 FF                           	TEST	EDI,EDI
   521 0000051F 74 CC                           	JE	L77
   522 00000521 C7 45 F0 0000001C               	MOV	DWORD [-16+EBP],28
   523 00000528                                 L88:
   524 00000528 BE 00000008                     	MOV	ESI,8
   525 0000052D                                 L87:
   526 0000052D 8B 45 F0                        	MOV	EAX,DWORD [-16+EBP]
   527 00000530 8B 4F 08                        	MOV	ECX,DWORD [8+EDI]
   528 00000533 83 C0 10                        	ADD	EAX,16
   529 00000536 8B 55 F0                        	MOV	EDX,DWORD [-16+EBP]
   530 00000539 0F AF C1                        	IMUL	EAX,ECX
   531 0000053C 0F AF D1                        	IMUL	EDX,ECX
   532 0000053F 8B 1F                           	MOV	EBX,DWORD [EDI]
   533 00000541 8D 04 30                        	LEA	EAX,DWORD [EAX+ESI*1]
   534 00000544 8D 14 32                        	LEA	EDX,DWORD [EDX+ESI*1]
   535 00000547 46                              	INC	ESI
   536 00000548 8B 04 83                        	MOV	EAX,DWORD [EBX+EAX*4]
   537 0000054B 81 FE 000000F7                  	CMP	ESI,247
   538 00000551 89 04 93                        	MOV	DWORD [EBX+EDX*4],EAX
   539 00000554 7E D7                           	JLE	L87
   540 00000556 FF 45 F0                        	INC	DWORD [-16+EBP]
   541 00000559 81 7D F0 0000008B               	CMP	DWORD [-16+EBP],139
   542 00000560 7E C6                           	JLE	L88
   543 00000562 C7 45 F0 0000008C               	MOV	DWORD [-16+EBP],140
   544 00000569                                 L98:
   545 00000569 BE 00000008                     	MOV	ESI,8
   546 0000056E                                 L97:
   547 0000056E 8B 45 F0                        	MOV	EAX,DWORD [-16+EBP]
   548 00000571 8B 17                           	MOV	EDX,DWORD [EDI]
   549 00000573 0F AF 47 08                     	IMUL	EAX,DWORD [8+EDI]
   550 00000577 8D 04 30                        	LEA	EAX,DWORD [EAX+ESI*1]
   551 0000057A 46                              	INC	ESI
   552 0000057B 81 FE 000000F7                  	CMP	ESI,247
   553 00000581 C7 04 82 00000000               	MOV	DWORD [EDX+EAX*4],0
   554 00000588 7E E4                           	JLE	L97
   555 0000058A FF 45 F0                        	INC	DWORD [-16+EBP]
   556 0000058D 81 7D F0 0000009B               	CMP	DWORD [-16+EBP],155
   557 00000594 7E D3                           	JLE	L98
   558 00000596 A1 00000FE4                     	MOV	EAX,DWORD [4068]
   559 0000059B 39 47 28                        	CMP	DWORD [40+EDI],EAX
   560 0000059E 0F 85 FFFFFF49                  	JNE	L77
   561 000005A4 68 0000031C                     	PUSH	796
   562 000005A9 68 00000408                     	PUSH	1032
   563 000005AE 6A 1C                           	PUSH	28
   564 000005B0 6A 08                           	PUSH	8
   565 000005B2 57                              	PUSH	EDI
   566 000005B3 E8 [00000000]                   	CALL	_sheet_refresh
   567 000005B8 83 C4 14                        	ADD	ESP,20
   568 000005BB E9 FFFFFF2D                     	JMP	L77
   569 000005C0                                 	GLOBAL	_cons_putstr0
   570 000005C0                                 _cons_putstr0:
   571 000005C0 55                              	PUSH	EBP
   572 000005C1 89 E5                           	MOV	EBP,ESP
   573 000005C3 56                              	PUSH	ESI
   574 000005C4 53                              	PUSH	EBX
   575 000005C5 8B 5D 0C                        	MOV	EBX,DWORD [12+EBP]
   576 000005C8 8B 75 08                        	MOV	ESI,DWORD [8+EBP]
   577 000005CB 80 3B 00                        	CMP	BYTE [EBX],0
   578 000005CE 75 07                           	JNE	L115
   579 000005D0                                 L117:
   580 000005D0 8D 65 F8                        	LEA	ESP,DWORD [-8+EBP]
   581 000005D3 5B                              	POP	EBX
   582 000005D4 5E                              	POP	ESI
   583 000005D5 5D                              	POP	EBP
   584 000005D6 C3                              	RET
   585 000005D7                                 L115:
   586 000005D7 6A 01                           	PUSH	1
   587 000005D9 0F BE 03                        	MOVSX	EAX,BYTE [EBX]
   588 000005DC 50                              	PUSH	EAX
   589 000005DD 43                              	INC	EBX
   590 000005DE 56                              	PUSH	ESI
   591 000005DF E8 FFFFFE2A                     	CALL	_cons_putchar
   592 000005E4 83 C4 0C                        	ADD	ESP,12
   593 000005E7 80 3B 00                        	CMP	BYTE [EBX],0
   594 000005EA 75 EB                           	JNE	L115
   595 000005EC EB E2                           	JMP	L117
   596 000005EE                                 	GLOBAL	_cons_putstr1
   597 000005EE                                 _cons_putstr1:
   598 000005EE 55                              	PUSH	EBP
   599 000005EF 89 E5                           	MOV	EBP,ESP
   600 000005F1 57                              	PUSH	EDI
   601 000005F2 56                              	PUSH	ESI
   602 000005F3 53                              	PUSH	EBX
   603 000005F4 8B 75 10                        	MOV	ESI,DWORD [16+EBP]
   604 000005F7 31 DB                           	XOR	EBX,EBX
   605 000005F9 8B 7D 0C                        	MOV	EDI,DWORD [12+EBP]
   606 000005FC 39 F3                           	CMP	EBX,ESI
   607 000005FE 7C 08                           	JL	L123
   608 00000600                                 L125:
   609 00000600 8D 65 F4                        	LEA	ESP,DWORD [-12+EBP]
   610 00000603 5B                              	POP	EBX
   611 00000604 5E                              	POP	ESI
   612 00000605 5F                              	POP	EDI
   613 00000606 5D                              	POP	EBP
   614 00000607 C3                              	RET
   615 00000608                                 L123:
   616 00000608 6A 01                           	PUSH	1
   617 0000060A 0F BE 04 3B                     	MOVSX	EAX,BYTE [EBX+EDI*1]
   618 0000060E 50                              	PUSH	EAX
   619 0000060F 43                              	INC	EBX
   620 00000610 FF 75 08                        	PUSH	DWORD [8+EBP]
   621 00000613 E8 FFFFFDF6                     	CALL	_cons_putchar
   622 00000618 83 C4 0C                        	ADD	ESP,12
   623 0000061B 39 F3                           	CMP	EBX,ESI
   624 0000061D 7C E9                           	JL	L123
   625 0000061F EB DF                           	JMP	L125
   626                                          [SECTION .data]
   627 00000002                                 LC1:
   628 00000002 6D 65 6D 00                     	DB	"mem",0x00
   629 00000006                                 LC2:
   630 00000006 63 6C 73 00                     	DB	"cls",0x00
   631 0000000A                                 LC3:
   632 0000000A 64 69 72 00                     	DB	"dir",0x00
   633 0000000E                                 LC4:
   634 0000000E 65 78 69 74 00                  	DB	"exit",0x00
   635 00000013                                 LC5:
   636 00000013 73 74 61 72 74 20 00            	DB	"start ",0x00
   637 0000001A                                 LC6:
   638 0000001A 6E 63 73 74 20 00               	DB	"ncst ",0x00
   639 00000020                                 LC7:
   640 00000020 6C 61 6E 67 6D 6F 64 65 20 00   	DB	"langmode ",0x00
   641 0000002A                                 LC8:
   642 0000002A 72 65 6C 6F 61 64 00            	DB	"reload",0x00
   643 00000031                                 LC9:
   644 00000031 73 68 75 74 64 6F 77 6E 00      	DB	"shutdown",0x00
   645 0000003A                                 LC10:
   646 0000003A 72 64 72 61 6E 64 00            	DB	"rdrand",0x00
   647 00000041                                 LC11:
   648 00000041 64 65 73 6B 74 6F 70 00         	DB	"desktop",0x00
   649 00000049                                 LC12:
   650 00000049 66 64 69 72 00                  	DB	"fdir",0x00
   651 0000004E                                 LC13:
   652 0000004E 63 64 20 00                     	DB	"cd ",0x00
   653 00000052                                 LC14:
   654 00000052 74 61 73 6B 20 00               	DB	"task ",0x00
   655 00000058                                 LC15:
   656 00000058 42 61 64 20 63 6F 6D 6D 61 6E   	DB	"Bad command0.",0x0A,0x0A,0x00
       00000062 64 30 2E 0A 0A 00 
   657                                          [SECTION .text]
   658 00000621                                 	GLOBAL	_cons_runcmd
   659 00000621                                 _cons_runcmd:
   660 00000621 55                              	PUSH	EBP
   661 00000622 89 E5                           	MOV	EBP,ESP
   662 00000624 57                              	PUSH	EDI
   663 00000625 56                              	PUSH	ESI
   664 00000626 BF [00000002]                   	MOV	EDI,LC1
   665 0000062B 53                              	PUSH	EBX
   666 0000062C 83 EC 0C                        	SUB	ESP,12
   667 0000062F 8B 45 08                        	MOV	EAX,DWORD [8+EBP]
   668 00000632 8B 4D 10                        	MOV	ECX,DWORD [16+EBP]
   669 00000635 89 45 E8                        	MOV	DWORD [-24+EBP],EAX
   670 00000638 89 4D F0                        	MOV	DWORD [-16+EBP],ECX
   671 0000063B 8B 45 14                        	MOV	EAX,DWORD [20+EBP]
   672 0000063E 8B 75 E8                        	MOV	ESI,DWORD [-24+EBP]
   673 00000641 89 45 EC                        	MOV	DWORD [-20+EBP],EAX
   674 00000644 8B 5D 0C                        	MOV	EBX,DWORD [12+EBP]
   675 00000647 B8 00000004                     	MOV	EAX,4
   676 0000064C FC                              	CLD
   677 0000064D 89 C1                           	MOV	ECX,EAX
   678 0000064F F3                              	REPE
   679 00000650 A6                              	CMPSB
   680 00000651 75 09                           	JNE	L127
   681 00000653 83 3B 00                        	CMP	DWORD [EBX],0
   682 00000656 0F 85 00000273                  	JNE	L157
   683 0000065C                                 L127:
   684 0000065C B8 00000004                     	MOV	EAX,4
   685 00000661 8B 75 E8                        	MOV	ESI,DWORD [-24+EBP]
   686 00000664 FC                              	CLD
   687 00000665 BF [00000006]                   	MOV	EDI,LC2
   688 0000066A 89 C1                           	MOV	ECX,EAX
   689 0000066C F3                              	REPE
   690 0000066D A6                              	CMPSB
   691 0000066E 75 09                           	JNE	L129
   692 00000670 83 3B 00                        	CMP	DWORD [EBX],0
   693 00000673 0F 85 00000247                  	JNE	L158
   694 00000679                                 L129:
   695 00000679 B8 00000004                     	MOV	EAX,4
   696 0000067E 8B 75 E8                        	MOV	ESI,DWORD [-24+EBP]
   697 00000681 FC                              	CLD
   698 00000682 BF [0000000A]                   	MOV	EDI,LC3
   699 00000687 89 C1                           	MOV	ECX,EAX
   700 00000689 F3                              	REPE
   701 0000068A A6                              	CMPSB
   702 0000068B 75 09                           	JNE	L131
   703 0000068D 83 3B 00                        	CMP	DWORD [EBX],0
   704 00000690 0F 85 0000021B                  	JNE	L159
   705 00000696                                 L131:
   706 00000696 B8 00000005                     	MOV	EAX,5
   707 0000069B 8B 75 E8                        	MOV	ESI,DWORD [-24+EBP]
   708 0000069E FC                              	CLD
   709 0000069F BF [0000000E]                   	MOV	EDI,LC4
   710 000006A4 89 C1                           	MOV	ECX,EAX
   711 000006A6 F3                              	REPE
   712 000006A7 A6                              	CMPSB
   713 000006A8 0F 84 000001EE                  	JE	L160
   714 000006AE B8 00000006                     	MOV	EAX,6
   715 000006B3 8B 75 E8                        	MOV	ESI,DWORD [-24+EBP]
   716 000006B6 FC                              	CLD
   717 000006B7 BF [00000013]                   	MOV	EDI,LC5
   718 000006BC 89 C1                           	MOV	ECX,EAX
   719 000006BE F3                              	REPE
   720 000006BF A6                              	CMPSB
   721 000006C0 0F 84 000001BB                  	JE	L161
   722 000006C6 B8 00000005                     	MOV	EAX,5
   723 000006CB 8B 75 E8                        	MOV	ESI,DWORD [-24+EBP]
   724 000006CE FC                              	CLD
   725 000006CF BF [0000001A]                   	MOV	EDI,LC6
   726 000006D4 89 C1                           	MOV	ECX,EAX
   727 000006D6 F3                              	REPE
   728 000006D7 A6                              	CMPSB
   729 000006D8 0F 84 00000188                  	JE	L162
   730 000006DE B8 00000009                     	MOV	EAX,9
   731 000006E3 8B 75 E8                        	MOV	ESI,DWORD [-24+EBP]
   732 000006E6 FC                              	CLD
   733 000006E7 BF [00000020]                   	MOV	EDI,LC7
   734 000006EC 89 C1                           	MOV	ECX,EAX
   735 000006EE F3                              	REPE
   736 000006EF A6                              	CMPSB
   737 000006F0 0F 84 0000015B                  	JE	L163
   738 000006F6 B8 00000007                     	MOV	EAX,7
   739 000006FB 8B 75 E8                        	MOV	ESI,DWORD [-24+EBP]
   740 000006FE FC                              	CLD
   741 000006FF BF [0000002A]                   	MOV	EDI,LC8
   742 00000704 89 C1                           	MOV	ECX,EAX
   743 00000706 F3                              	REPE
   744 00000707 A6                              	CMPSB
   745 00000708 0F 84 00000137                  	JE	L164
   746 0000070E B8 00000009                     	MOV	EAX,9
   747 00000713 8B 75 E8                        	MOV	ESI,DWORD [-24+EBP]
   748 00000716 FC                              	CLD
   749 00000717 BF [00000031]                   	MOV	EDI,LC9
   750 0000071C 89 C1                           	MOV	ECX,EAX
   751 0000071E F3                              	REPE
   752 0000071F A6                              	CMPSB
   753 00000720 0F 84 00000101                  	JE	L165
   754 00000726 B8 00000007                     	MOV	EAX,7
   755 0000072B 8B 75 E8                        	MOV	ESI,DWORD [-24+EBP]
   756 0000072E FC                              	CLD
   757 0000072F BF [0000003A]                   	MOV	EDI,LC10
   758 00000734 89 C1                           	MOV	ECX,EAX
   759 00000736 F3                              	REPE
   760 00000737 A6                              	CMPSB
   761 00000738 0F 84 000000D4                  	JE	L166
   762 0000073E B8 00000008                     	MOV	EAX,8
   763 00000743 8B 75 E8                        	MOV	ESI,DWORD [-24+EBP]
   764 00000746 FC                              	CLD
   765 00000747 BF [00000041]                   	MOV	EDI,LC11
   766 0000074C 89 C1                           	MOV	ECX,EAX
   767 0000074E F3                              	REPE
   768 0000074F A6                              	CMPSB
   769 00000750 0F 84 000000B0                  	JE	L167
   770 00000756 B8 00000005                     	MOV	EAX,5
   771 0000075B 8B 75 E8                        	MOV	ESI,DWORD [-24+EBP]
   772 0000075E FC                              	CLD
   773 0000075F BF [00000049]                   	MOV	EDI,LC12
   774 00000764 89 C1                           	MOV	ECX,EAX
   775 00000766 F3                              	REPE
   776 00000767 A6                              	CMPSB
   777 00000768 0F 84 00000089                  	JE	L168
   778 0000076E B8 00000003                     	MOV	EAX,3
   779 00000773 8B 75 E8                        	MOV	ESI,DWORD [-24+EBP]
   780 00000776 FC                              	CLD
   781 00000777 BF [0000004E]                   	MOV	EDI,LC13
   782 0000077C 89 C1                           	MOV	ECX,EAX
   783 0000077E F3                              	REPE
   784 0000077F A6                              	CMPSB
   785 00000780 74 60                           	JE	L169
   786 00000782 B8 00000004                     	MOV	EAX,4
   787 00000787 8B 75 E8                        	MOV	ESI,DWORD [-24+EBP]
   788 0000078A FC                              	CLD
   789 0000078B BF [00000052]                   	MOV	EDI,LC14
   790 00000790 89 C1                           	MOV	ECX,EAX
   791 00000792 F3                              	REPE
   792 00000793 A6                              	CMPSB
   793 00000794 74 37                           	JE	L170
   794 00000796 8B 4D E8                        	MOV	ECX,DWORD [-24+EBP]
   795 00000799 80 39 00                        	CMP	BYTE [ECX],0
   796 0000079C 75 08                           	JNE	L171
   797 0000079E                                 L126:
   798 0000079E 8D 65 F4                        	LEA	ESP,DWORD [-12+EBP]
   799 000007A1 5B                              	POP	EBX
   800 000007A2 5E                              	POP	ESI
   801 000007A3 5F                              	POP	EDI
   802 000007A4 5D                              	POP	EBP
   803 000007A5 C3                              	RET
   804 000007A6                                 L171:
   805 000007A6 51                              	PUSH	ECX
   806 000007A7 FF 75 F0                        	PUSH	DWORD [-16+EBP]
   807 000007AA 53                              	PUSH	EBX
   808 000007AB E8 000008EB                     	CALL	_cmd_app
   809 000007B0 83 C4 0C                        	ADD	ESP,12
   810 000007B3 85 C0                           	TEST	EAX,EAX
   811 000007B5 75 E7                           	JNE	L126
   812 000007B7 C7 45 0C [00000058]             	MOV	DWORD [12+EBP],LC15
   813 000007BE 89 5D 08                        	MOV	DWORD [8+EBP],EBX
   814 000007C1 8D 65 F4                        	LEA	ESP,DWORD [-12+EBP]
   815 000007C4 5B                              	POP	EBX
   816 000007C5 5E                              	POP	ESI
   817 000007C6 5F                              	POP	EDI
   818 000007C7 5D                              	POP	EBP
   819 000007C8 E9 FFFFFDF3                     	JMP	_cons_putstr0
   820 000007CD                                 L170:
   821 000007CD 8B 45 E8                        	MOV	EAX,DWORD [-24+EBP]
   822 000007D0 89 5D 08                        	MOV	DWORD [8+EBP],EBX
   823 000007D3 89 45 0C                        	MOV	DWORD [12+EBP],EAX
   824 000007D6 8D 65 F4                        	LEA	ESP,DWORD [-12+EBP]
   825 000007D9 5B                              	POP	EBX
   826 000007DA 5E                              	POP	ESI
   827 000007DB 5F                              	POP	EDI
   828 000007DC 5D                              	POP	EBP
   829 000007DD E9 00000102                     	JMP	_cmd_task
   830 000007E2                                 L169:
   831 000007E2 8B 45 E8                        	MOV	EAX,DWORD [-24+EBP]
   832 000007E5 89 5D 08                        	MOV	DWORD [8+EBP],EBX
   833 000007E8 89 45 0C                        	MOV	DWORD [12+EBP],EAX
   834 000007EB 8D 65 F4                        	LEA	ESP,DWORD [-12+EBP]
   835 000007EE 5B                              	POP	EBX
   836 000007EF 5E                              	POP	ESI
   837 000007F0 5F                              	POP	EDI
   838 000007F1 5D                              	POP	EBP
   839 000007F2 E9 0000057A                     	JMP	_cmd_cd
   840 000007F7                                 L168:
   841 000007F7 89 5D 08                        	MOV	DWORD [8+EBP],EBX
   842 000007FA 8D 65 F4                        	LEA	ESP,DWORD [-12+EBP]
   843 000007FD 5B                              	POP	EBX
   844 000007FE 5E                              	POP	ESI
   845 000007FF 5F                              	POP	EDI
   846 00000800 5D                              	POP	EBP
   847 00000801 E9 000004AF                     	JMP	_cmd_fdir
   848 00000806                                 L167:
   849 00000806 8D 65 F4                        	LEA	ESP,DWORD [-12+EBP]
   850 00000809 5B                              	POP	EBX
   851 0000080A 5E                              	POP	ESI
   852 0000080B 5F                              	POP	EDI
   853 0000080C 5D                              	POP	EBP
   854 0000080D E9 [00000000]                   	JMP	_desktop_start
   855 00000812                                 L166:
   856 00000812 8B 45 E8                        	MOV	EAX,DWORD [-24+EBP]
   857 00000815 89 5D 08                        	MOV	DWORD [8+EBP],EBX
   858 00000818 89 45 0C                        	MOV	DWORD [12+EBP],EAX
   859 0000081B 8D 65 F4                        	LEA	ESP,DWORD [-12+EBP]
   860 0000081E 5B                              	POP	EBX
   861 0000081F 5E                              	POP	ESI
   862 00000820 5F                              	POP	EDI
   863 00000821 5D                              	POP	EBP
   864 00000822 E9 000002D4                     	JMP	_cmd_rdrand
   865 00000827                                 L165:
   866 00000827 A1 [00000000]                   	MOV	EAX,DWORD [_system_task]
   867 0000082C 83 C0 10                        	ADD	EAX,16
   868 0000082F C7 45 0C 00000008               	MOV	DWORD [12+EBP],8
   869 00000836 89 45 08                        	MOV	DWORD [8+EBP],EAX
   870 00000839 8D 65 F4                        	LEA	ESP,DWORD [-12+EBP]
   871 0000083C 5B                              	POP	EBX
   872 0000083D 5E                              	POP	ESI
   873 0000083E 5F                              	POP	EDI
   874 0000083F 5D                              	POP	EBP
   875 00000840 E9 [00000000]                   	JMP	_fifo32_put
   876 00000845                                 L164:
   877 00000845 8D 65 F4                        	LEA	ESP,DWORD [-12+EBP]
   878 00000848 5B                              	POP	EBX
   879 00000849 5E                              	POP	ESI
   880 0000084A 5F                              	POP	EDI
   881 0000084B 5D                              	POP	EBP
   882 0000084C E9 [00000000]                   	JMP	_sys_reboot
   883 00000851                                 L163:
   884 00000851 8B 45 E8                        	MOV	EAX,DWORD [-24+EBP]
   885 00000854 89 5D 08                        	MOV	DWORD [8+EBP],EBX
   886 00000857 89 45 0C                        	MOV	DWORD [12+EBP],EAX
   887 0000085A 8D 65 F4                        	LEA	ESP,DWORD [-12+EBP]
   888 0000085D 5B                              	POP	EBX
   889 0000085E 5E                              	POP	ESI
   890 0000085F 5F                              	POP	EDI
   891 00000860 5D                              	POP	EBP
   892 00000861 E9 000007F7                     	JMP	_cmd_langmode
   893 00000866                                 L162:
   894 00000866 8B 45 EC                        	MOV	EAX,DWORD [-20+EBP]
   895 00000869 8B 4D E8                        	MOV	ECX,DWORD [-24+EBP]
   896 0000086C 89 45 10                        	MOV	DWORD [16+EBP],EAX
   897 0000086F 89 4D 0C                        	MOV	DWORD [12+EBP],ECX
   898 00000872 89 5D 08                        	MOV	DWORD [8+EBP],EBX
   899 00000875 8D 65 F4                        	LEA	ESP,DWORD [-12+EBP]
   900 00000878 5B                              	POP	EBX
   901 00000879 5E                              	POP	ESI
   902 0000087A 5F                              	POP	EDI
   903 0000087B 5D                              	POP	EBP
   904 0000087C E9 00000778                     	JMP	_cmd_ncst
   905 00000881                                 L161:
   906 00000881 8B 45 EC                        	MOV	EAX,DWORD [-20+EBP]
   907 00000884 8B 4D E8                        	MOV	ECX,DWORD [-24+EBP]
   908 00000887 89 45 10                        	MOV	DWORD [16+EBP],EAX
   909 0000088A 89 4D 0C                        	MOV	DWORD [12+EBP],ECX
   910 0000088D 89 5D 08                        	MOV	DWORD [8+EBP],EBX
   911 00000890 8D 65 F4                        	LEA	ESP,DWORD [-12+EBP]
   912 00000893 5B                              	POP	EBX
   913 00000894 5E                              	POP	ESI
   914 00000895 5F                              	POP	EDI
   915 00000896 5D                              	POP	EBP
   916 00000897 E9 000006D0                     	JMP	_cmd_start
   917 0000089C                                 L160:
   918 0000089C 8B 45 F0                        	MOV	EAX,DWORD [-16+EBP]
   919 0000089F 89 5D 08                        	MOV	DWORD [8+EBP],EBX
   920 000008A2 89 45 0C                        	MOV	DWORD [12+EBP],EAX
   921 000008A5 8D 65 F4                        	LEA	ESP,DWORD [-12+EBP]
   922 000008A8 5B                              	POP	EBX
   923 000008A9 5E                              	POP	ESI
   924 000008AA 5F                              	POP	EDI
   925 000008AB 5D                              	POP	EBP
   926 000008AC E9 0000060D                     	JMP	_cmd_exit
   927 000008B1                                 L159:
   928 000008B1 89 5D 08                        	MOV	DWORD [8+EBP],EBX
   929 000008B4 8D 65 F4                        	LEA	ESP,DWORD [-12+EBP]
   930 000008B7 5B                              	POP	EBX
   931 000008B8 5E                              	POP	ESI
   932 000008B9 5F                              	POP	EDI
   933 000008BA 5D                              	POP	EBP
   934 000008BB E9 00000346                     	JMP	_cmd_dir
   935 000008C0                                 L158:
   936 000008C0 89 5D 08                        	MOV	DWORD [8+EBP],EBX
   937 000008C3 8D 65 F4                        	LEA	ESP,DWORD [-12+EBP]
   938 000008C6 5B                              	POP	EBX
   939 000008C7 5E                              	POP	ESI
   940 000008C8 5F                              	POP	EDI
   941 000008C9 5D                              	POP	EBP
   942 000008CA E9 000002CC                     	JMP	_cmd_cls
   943 000008CF                                 L157:
   944 000008CF 8B 45 EC                        	MOV	EAX,DWORD [-20+EBP]
   945 000008D2 89 5D 08                        	MOV	DWORD [8+EBP],EBX
   946 000008D5 89 45 0C                        	MOV	DWORD [12+EBP],EAX
   947 000008D8 8D 65 F4                        	LEA	ESP,DWORD [-12+EBP]
   948 000008DB 5B                              	POP	EBX
   949 000008DC 5E                              	POP	ESI
   950 000008DD 5F                              	POP	EDI
   951 000008DE 5D                              	POP	EBP
   952 000008DF E9 0000024B                     	JMP	_cmd_mem
   953                                          [SECTION .data]
   954 00000068                                 LC17:
   955 00000068 0A 00                           	DB	0x0A,0x00
   956 0000006A                                 LC18:
   957 0000006A 2D 00                           	DB	"-",0x00
   958 0000006C                                 LC16:
   959 0000006C 25 73 20 69 64 3A 20 25 64 20   	DB	"%s id: %d mem: %d",0x0A,0x00
       00000076 6D 65 6D 3A 20 25 64 0A 00 
   960                                          [SECTION .text]
   961 000008E4                                 	GLOBAL	_cmd_task
   962 000008E4                                 _cmd_task:
   963 000008E4 55                              	PUSH	EBP
   964 000008E5 89 E5                           	MOV	EBP,ESP
   965 000008E7 57                              	PUSH	EDI
   966 000008E8 56                              	PUSH	ESI
   967 000008E9 53                              	PUSH	EBX
   968 000008EA BE 000003E7                     	MOV	ESI,999
   969 000008EF 57                              	PUSH	EDI
   970 000008F0 E8 [00000000]                   	CALL	_task_ctl_now
   971 000008F5 89 C3                           	MOV	EBX,EAX
   972 000008F7 89 45 F0                        	MOV	DWORD [-16+EBP],EAX
   973 000008FA                                 L178:
   974 000008FA 83 BB 00001001 00               	CMP	DWORD [4097+EBX],0
   975 00000901 0F 85 000000C6                  	JNE	L205
   976 00000907                                 L175:
   977 00000907 81 C3 0000013A                  	ADD	EBX,314
   978 0000090D 4E                              	DEC	ESI
   979 0000090E 79 EA                           	JNS	L178
   980 00000910 68 [00000068]                   	PUSH	LC17
   981 00000915 31 FF                           	XOR	EDI,EDI
   982 00000917 FF 75 08                        	PUSH	DWORD [8+EBP]
   983 0000091A E8 FFFFFCA1                     	CALL	_cons_putstr0
   984 0000091F 59                              	POP	ECX
   985 00000920 8B 5D F0                        	MOV	EBX,DWORD [-16+EBP]
   986 00000923 5E                              	POP	ESI
   987 00000924 81 C3 00000FFD                  	ADD	EBX,4093
   988 0000092A                                 L179:
   989 0000092A 85 FF                           	TEST	EDI,EDI
   990 0000092C 7E 14                           	JLE	L204
   991 0000092E 89 FE                           	MOV	ESI,EDI
   992 00000930                                 L186:
   993 00000930 68 [0000006A]                   	PUSH	LC18
   994 00000935 FF 75 08                        	PUSH	DWORD [8+EBP]
   995 00000938 E8 FFFFFC83                     	CALL	_cons_putstr0
   996 0000093D 4E                              	DEC	ESI
   997 0000093E 58                              	POP	EAX
   998 0000093F 5A                              	POP	EDX
   999 00000940 75 EE                           	JNE	L186
  1000 00000942                                 L204:
  1001 00000942 FF B3 0000012E                  	PUSH	DWORD [302+EBX]
  1002 00000948 FF B3 0000012A                  	PUSH	DWORD [298+EBX]
  1003 0000094E FF B3 00000136                  	PUSH	DWORD [310+EBX]
  1004 00000954 68 [0000006C]                   	PUSH	LC16
  1005 00000959 68 [000002A0]                   	PUSH	_text_buff
  1006 0000095E E8 [00000000]                   	CALL	_sprintf
  1007 00000963 68 [000002A0]                   	PUSH	_text_buff
  1008 00000968 FF 75 08                        	PUSH	DWORD [8+EBP]
  1009 0000096B E8 FFFFFC50                     	CALL	_cons_putstr0
  1010 00000970 8B 83 0000010A                  	MOV	EAX,DWORD [266+EBX]
  1011 00000976 83 C4 1C                        	ADD	ESP,28
  1012 00000979 85 C0                           	TEST	EAX,EAX
  1013 0000097B 75 48                           	JNE	L206
  1014 0000097D 8B 83 00000106                  	MOV	EAX,DWORD [262+EBX]
  1015 00000983 39 D8                           	CMP	EAX,EBX
  1016 00000985 75 37                           	JNE	L207
  1017 00000987                                 L191:
  1018 00000987 8B 83 0000010E                  	MOV	EAX,DWORD [270+EBX]
  1019 0000098D 85 C0                           	TEST	EAX,EAX
  1020 0000098F 74 29                           	JE	L194
  1021 00000991 8B 98 00000106                  	MOV	EBX,DWORD [262+EAX]
  1022 00000997 4F                              	DEC	EDI
  1023 00000998 8B 83 0000010E                  	MOV	EAX,DWORD [270+EBX]
  1024 0000099E 85 C0                           	TEST	EAX,EAX
  1025 000009A0 74 18                           	JE	L194
  1026 000009A2 39 98 0000010A                  	CMP	DWORD [266+EAX],EBX
  1027 000009A8 74 DD                           	JE	L191
  1028 000009AA                                 L192:
  1029 000009AA 85 DB                           	TEST	EBX,EBX
  1030 000009AC 0F 85 FFFFFF78                  	JNE	L179
  1031 000009B2 8D 65 F4                        	LEA	ESP,DWORD [-12+EBP]
  1032 000009B5 5B                              	POP	EBX
  1033 000009B6 5E                              	POP	ESI
  1034 000009B7 5F                              	POP	EDI
  1035 000009B8 5D                              	POP	EBP
  1036 000009B9 C3                              	RET
  1037 000009BA                                 L194:
  1038 000009BA 31 DB                           	XOR	EBX,EBX
  1039 000009BC EB EC                           	JMP	L192
  1040 000009BE                                 L207:
  1041 000009BE 89 C3                           	MOV	EBX,EAX
  1042 000009C0 E9 FFFFFF65                     	JMP	L179
  1043 000009C5                                 L206:
  1044 000009C5 89 C3                           	MOV	EBX,EAX
  1045 000009C7 47                              	INC	EDI
  1046 000009C8 E9 FFFFFF5D                     	JMP	L179
  1047 000009CD                                 L205:
  1048 000009CD FF B3 0000112B                  	PUSH	DWORD [4395+EBX]
  1049 000009D3 FF B3 00001127                  	PUSH	DWORD [4391+EBX]
  1050 000009D9 FF B3 00001133                  	PUSH	DWORD [4403+EBX]
  1051 000009DF 68 [0000006C]                   	PUSH	LC16
  1052 000009E4 68 [000002A0]                   	PUSH	_text_buff
  1053 000009E9 E8 [00000000]                   	CALL	_sprintf
  1054 000009EE 68 [000002A0]                   	PUSH	_text_buff
  1055 000009F3 FF 75 08                        	PUSH	DWORD [8+EBP]
  1056 000009F6 E8 FFFFFBC5                     	CALL	_cons_putstr0
  1057 000009FB 83 C4 1C                        	ADD	ESP,28
  1058 000009FE E9 FFFFFF04                     	JMP	L175
  1059                                          [SECTION .data]
  1060 0000007F                                 LC19:
  1061 0000007F 46 6F 75 6E 64 20 44 45 56 49   	DB	"Found DEVICE %d-%d-%d: %x",0x0A,0x00
       00000089 43 45 20 25 64 2D 25 64 2D 25 
       00000093 64 3A 20 25 78 0A 00 
  1062 0000009A                                 LC20:
  1063 0000009A 46 6F 75 6E 64 20 44 45 56 49   	DB	"Found DEVICE class %x",0x0A,0x00
       000000A4 43 45 20 63 6C 61 73 73 20 25 
       000000AE 78 0A 00 
  1064                                          [SECTION .text]
  1065 00000A03                                 	GLOBAL	_find_intel_gpu
  1066 00000A03                                 _find_intel_gpu:
  1067 00000A03 55                              	PUSH	EBP
  1068 00000A04 89 E5                           	MOV	EBP,ESP
  1069 00000A06 57                              	PUSH	EDI
  1070 00000A07 56                              	PUSH	ESI
  1071 00000A08 53                              	PUSH	EBX
  1072 00000A09 83 EC 10                        	SUB	ESP,16
  1073 00000A0C C7 45 F0 00000000               	MOV	DWORD [-16+EBP],0
  1074 00000A13 C7 45 E4 00000000               	MOV	DWORD [-28+EBP],0
  1075 00000A1A                                 L224:
  1076 00000A1A 31 FF                           	XOR	EDI,EDI
  1077 00000A1C C7 45 E8 00000000               	MOV	DWORD [-24+EBP],0
  1078 00000A23                                 L223:
  1079 00000A23 31 F6                           	XOR	ESI,ESI
  1080 00000A25 C7 45 EC 00000000               	MOV	DWORD [-20+EBP],0
  1081 00000A2C                                 L222:
  1082 00000A2C 8B 5D E4                        	MOV	EBX,DWORD [-28+EBP]
  1083 00000A2F 0B 5D E8                        	OR	EBX,DWORD [-24+EBP]
  1084 00000A32 0B 5D EC                        	OR	EBX,DWORD [-20+EBP]
  1085 00000A35 89 D8                           	MOV	EAX,EBX
  1086 00000A37 0D 80000000                     	OR	EAX,-2147483648
  1087 00000A3C 50                              	PUSH	EAX
  1088 00000A3D 68 00000CF8                     	PUSH	3320
  1089 00000A42 E8 [00000000]                   	CALL	_io_out32
  1090 00000A47 68 00000CFC                     	PUSH	3324
  1091 00000A4C E8 [00000000]                   	CALL	_io_in32
  1092 00000A51 83 C4 0C                        	ADD	ESP,12
  1093 00000A54 66 3D FFFF                      	CMP	AX,-1
  1094 00000A58 74 60                           	JE	L219
  1095 00000A5A 50                              	PUSH	EAX
  1096 00000A5B 81 CB 80000008                  	OR	EBX,-2147483640
  1097 00000A61 56                              	PUSH	ESI
  1098 00000A62 57                              	PUSH	EDI
  1099 00000A63 FF 75 F0                        	PUSH	DWORD [-16+EBP]
  1100 00000A66 68 [0000007F]                   	PUSH	LC19
  1101 00000A6B 68 [000002A0]                   	PUSH	_text_buff
  1102 00000A70 E8 [00000000]                   	CALL	_sprintf
  1103 00000A75 68 [000002A0]                   	PUSH	_text_buff
  1104 00000A7A FF 75 08                        	PUSH	DWORD [8+EBP]
  1105 00000A7D E8 FFFFFB3E                     	CALL	_cons_putstr0
  1106 00000A82 83 C4 20                        	ADD	ESP,32
  1107 00000A85 53                              	PUSH	EBX
  1108 00000A86 68 00000CF8                     	PUSH	3320
  1109 00000A8B E8 [00000000]                   	CALL	_io_out32
  1110 00000A90 68 00000CFC                     	PUSH	3324
  1111 00000A95 E8 [00000000]                   	CALL	_io_in32
  1112 00000A9A 50                              	PUSH	EAX
  1113 00000A9B 68 [0000009A]                   	PUSH	LC20
  1114 00000AA0 68 [000002A0]                   	PUSH	_text_buff
  1115 00000AA5 E8 [00000000]                   	CALL	_sprintf
  1116 00000AAA 68 [000002A0]                   	PUSH	_text_buff
  1117 00000AAF FF 75 08                        	PUSH	DWORD [8+EBP]
  1118 00000AB2 E8 FFFFFB09                     	CALL	_cons_putstr0
  1119 00000AB7 83 C4 20                        	ADD	ESP,32
  1120 00000ABA                                 L219:
  1121 00000ABA 46                              	INC	ESI
  1122 00000ABB 81 45 EC 00000100               	ADD	DWORD [-20+EBP],256
  1123 00000AC2 83 FE 07                        	CMP	ESI,7
  1124 00000AC5 0F 8E FFFFFF61                  	JLE	L222
  1125 00000ACB 47                              	INC	EDI
  1126 00000ACC 81 45 E8 00000800               	ADD	DWORD [-24+EBP],2048
  1127 00000AD3 83 FF 1F                        	CMP	EDI,31
  1128 00000AD6 0F 8E FFFFFF47                  	JLE	L223
  1129 00000ADC FF 45 F0                        	INC	DWORD [-16+EBP]
  1130 00000ADF 81 45 E4 00010000               	ADD	DWORD [-28+EBP],65536
  1131 00000AE6 81 7D F0 000000FF               	CMP	DWORD [-16+EBP],255
  1132 00000AED 0F 8E FFFFFF27                  	JLE	L224
  1133 00000AF3 8D 65 F4                        	LEA	ESP,DWORD [-12+EBP]
  1134 00000AF6 5B                              	POP	EBX
  1135 00000AF7 5E                              	POP	ESI
  1136 00000AF8 5F                              	POP	EDI
  1137 00000AF9 5D                              	POP	EBP
  1138 00000AFA C3                              	RET
  1139                                          [SECTION .data]
  1140 000000B1                                 LC21:
  1141 000000B1 72 64 72 61 6E 64 20 69 73 20   	DB	"rdrand is %d %x",0x0A,0x00
       000000BB 25 64 20 25 78 0A 00 
  1142                                          [SECTION .text]
  1143 00000AFB                                 	GLOBAL	_cmd_rdrand
  1144 00000AFB                                 _cmd_rdrand:
  1145 00000AFB 55                              	PUSH	EBP
  1146 00000AFC 89 E5                           	MOV	EBP,ESP
  1147 00000AFE 56                              	PUSH	ESI
  1148 00000AFF 53                              	PUSH	EBX
  1149 00000B00 83 EC 40                        	SUB	ESP,64
  1150 00000B03 8D 75 B8                        	LEA	ESI,DWORD [-72+EBP]
  1151 00000B06 8B 5D 08                        	MOV	EBX,DWORD [8+EBP]
  1152 00000B09 E8 [00000000]                   	CALL	_rdrand
  1153 00000B0E 50                              	PUSH	EAX
  1154 00000B0F 50                              	PUSH	EAX
  1155 00000B10 68 [000000B1]                   	PUSH	LC21
  1156 00000B15 56                              	PUSH	ESI
  1157 00000B16 E8 [00000000]                   	CALL	_sprintf
  1158 00000B1B 56                              	PUSH	ESI
  1159 00000B1C 53                              	PUSH	EBX
  1160 00000B1D E8 FFFFFA9E                     	CALL	_cons_putstr0
  1161 00000B22 53                              	PUSH	EBX
  1162 00000B23 E8 FFFFFEDB                     	CALL	_find_intel_gpu
  1163 00000B28 8D 65 F8                        	LEA	ESP,DWORD [-8+EBP]
  1164 00000B2B 5B                              	POP	EBX
  1165 00000B2C 5E                              	POP	ESI
  1166 00000B2D 5D                              	POP	EBP
  1167 00000B2E C3                              	RET
  1168                                          [SECTION .data]
  1169 000000C2                                 LC22:
  1170 000000C2 74 6F 74 61 6C 20 20 20 25 64   	DB	"total   %dMB",0x0A,"free %dKB",0x0A,0x0A,0x00
       000000CC 4D 42 0A 66 72 65 65 20 25 64 
       000000D6 4B 42 0A 0A 00 
  1171 000000DB                                 LC23:
  1172 000000DB 74 5F 70 3A 20 25 64 20 6C 5F   	DB	"t_p: %d l_p: %d",0x0A,0x0A,0x00
       000000E5 70 3A 20 25 64 0A 0A 00 
  1173                                          [SECTION .text]
  1174 00000B2F                                 	GLOBAL	_cmd_mem
  1175 00000B2F                                 _cmd_mem:
  1176 00000B2F 55                              	PUSH	EBP
  1177 00000B30 89 E5                           	MOV	EBP,ESP
  1178 00000B32 56                              	PUSH	ESI
  1179 00000B33 53                              	PUSH	EBX
  1180 00000B34 83 EC 40                        	SUB	ESP,64
  1181 00000B37 8B 75 08                        	MOV	ESI,DWORD [8+EBP]
  1182 00000B3A E8 [00000000]                   	CALL	_task_now
  1183 00000B3F FF B0 00000116                  	PUSH	DWORD [278+EAX]
  1184 00000B45 E8 [00000000]                   	CALL	_memman_total
  1185 00000B4A BA 00100000                     	MOV	EDX,1048576
  1186 00000B4F C1 E8 0A                        	SHR	EAX,10
  1187 00000B52 89 D3                           	MOV	EBX,EDX
  1188 00000B54 89 04 24                        	MOV	DWORD [ESP],EAX
  1189 00000B57 8B 45 0C                        	MOV	EAX,DWORD [12+EBP]
  1190 00000B5A 99                              	CDQ
  1191 00000B5B F7 FB                           	IDIV	EBX
  1192 00000B5D 50                              	PUSH	EAX
  1193 00000B5E 8D 5D B8                        	LEA	EBX,DWORD [-72+EBP]
  1194 00000B61 68 [000000C2]                   	PUSH	LC22
  1195 00000B66 53                              	PUSH	EBX
  1196 00000B67 E8 [00000000]                   	CALL	_sprintf
  1197 00000B6C 53                              	PUSH	EBX
  1198 00000B6D 56                              	PUSH	ESI
  1199 00000B6E E8 FFFFFA4D                     	CALL	_cons_putstr0
  1200 00000B73 FF 35 0026F00C                  	PUSH	DWORD [2551820]
  1201 00000B79 FF 35 0026F004                  	PUSH	DWORD [2551812]
  1202 00000B7F 68 [000000DB]                   	PUSH	LC23
  1203 00000B84 53                              	PUSH	EBX
  1204 00000B85 E8 [00000000]                   	CALL	_sprintf
  1205 00000B8A 83 C4 28                        	ADD	ESP,40
  1206 00000B8D 53                              	PUSH	EBX
  1207 00000B8E 56                              	PUSH	ESI
  1208 00000B8F E8 FFFFFA2C                     	CALL	_cons_putstr0
  1209 00000B94 8D 65 F8                        	LEA	ESP,DWORD [-8+EBP]
  1210 00000B97 5B                              	POP	EBX
  1211 00000B98 5E                              	POP	ESI
  1212 00000B99 5D                              	POP	EBP
  1213 00000B9A C3                              	RET
  1214 00000B9B                                 	GLOBAL	_cmd_cls
  1215 00000B9B                                 _cmd_cls:
  1216 00000B9B 55                              	PUSH	EBP
  1217 00000B9C 89 E5                           	MOV	EBP,ESP
  1218 00000B9E 57                              	PUSH	EDI
  1219 00000B9F 56                              	PUSH	ESI
  1220 00000BA0 BE 0000001C                     	MOV	ESI,28
  1221 00000BA5 8B 7D 08                        	MOV	EDI,DWORD [8+EBP]
  1222 00000BA8 53                              	PUSH	EBX
  1223 00000BA9 8B 1F                           	MOV	EBX,DWORD [EDI]
  1224 00000BAB                                 L243:
  1225 00000BAB B9 00000008                     	MOV	ECX,8
  1226 00000BB0                                 L242:
  1227 00000BB0 89 F0                           	MOV	EAX,ESI
  1228 00000BB2 8B 13                           	MOV	EDX,DWORD [EBX]
  1229 00000BB4 0F AF 43 08                     	IMUL	EAX,DWORD [8+EBX]
  1230 00000BB8 8D 04 08                        	LEA	EAX,DWORD [EAX+ECX*1]
  1231 00000BBB 41                              	INC	ECX
  1232 00000BBC 81 F9 000003F7                  	CMP	ECX,1015
  1233 00000BC2 C7 04 82 00000000               	MOV	DWORD [EDX+EAX*4],0
  1234 00000BC9 7E E5                           	JLE	L242
  1235 00000BCB 46                              	INC	ESI
  1236 00000BCC 81 FE 000002F7                  	CMP	ESI,759
  1237 00000BD2 7E D7                           	JLE	L243
  1238 00000BD4 A1 00000FE4                     	MOV	EAX,DWORD [4068]
  1239 00000BD9 39 43 28                        	CMP	DWORD [40+EBX],EAX
  1240 00000BDC 74 0F                           	JE	L249
  1241 00000BDE                                 L244:
  1242 00000BDE C7 47 08 0000001C               	MOV	DWORD [8+EDI],28
  1243 00000BE5 8D 65 F4                        	LEA	ESP,DWORD [-12+EBP]
  1244 00000BE8 5B                              	POP	EBX
  1245 00000BE9 5E                              	POP	ESI
  1246 00000BEA 5F                              	POP	EDI
  1247 00000BEB 5D                              	POP	EBP
  1248 00000BEC C3                              	RET
  1249 00000BED                                 L249:
  1250 00000BED 68 0000031C                     	PUSH	796
  1251 00000BF2 68 00000408                     	PUSH	1032
  1252 00000BF7 6A 1C                           	PUSH	28
  1253 00000BF9 6A 08                           	PUSH	8
  1254 00000BFB 53                              	PUSH	EBX
  1255 00000BFC E8 [00000000]                   	CALL	_sheet_refresh
  1256 00000C01 83 C4 14                        	ADD	ESP,20
  1257 00000C04 EB D8                           	JMP	L244
  1258                                          [SECTION .data]
  1259 000000ED                                 LC25:
  1260 000000ED 66 69 6C 65 6E 61 6D 65 2E 65   	DB	"filename.ext   %7d",0x0A,0x00
       000000F7 78 74 20 20 20 25 37 64 0A 00 
  1261 00000101                                 LC24:
  1262 00000101 66 69 6C 65 20 73 79 73 74 65   	DB	"file system not ready",0x0A,0x00
       0000010B 6D 20 6E 6F 74 20 72 65 61 64 
       00000115 79 0A 00 
  1263                                          [SECTION .text]
  1264 00000C06                                 	GLOBAL	_cmd_dir
  1265 00000C06                                 _cmd_dir:
  1266 00000C06 55                              	PUSH	EBP
  1267 00000C07 89 E5                           	MOV	EBP,ESP
  1268 00000C09 57                              	PUSH	EDI
  1269 00000C0A 56                              	PUSH	ESI
  1270 00000C0B 53                              	PUSH	EBX
  1271 00000C0C 83 EC 20                        	SUB	ESP,32
  1272 00000C0F E8 [00000000]                   	CALL	_task_now
  1273 00000C14 8B 98 00000132                  	MOV	EBX,DWORD [306+EAX]
  1274 00000C1A E8 [00000000]                   	CALL	_task_now
  1275 00000C1F 83 B8 00000132 00               	CMP	DWORD [306+EAX],0
  1276 00000C26 74 7E                           	JE	L268
  1277 00000C28 31 FF                           	XOR	EDI,EDI
  1278 00000C2A 31 F6                           	XOR	ESI,ESI
  1279 00000C2C                                 L264:
  1280 00000C2C 8A 04 33                        	MOV	AL,BYTE [EBX+ESI*1]
  1281 00000C2F 84 C0                           	TEST	AL,AL
  1282 00000C31 74 17                           	JE	L253
  1283 00000C33 3C E5                           	CMP	AL,-27
  1284 00000C35 74 07                           	JE	L254
  1285 00000C37 F6 44 33 0B 18                  	TEST	BYTE [11+EBX+ESI*1],24
  1286 00000C3C 74 1C                           	JE	L269
  1287 00000C3E                                 L254:
  1288 00000C3E 47                              	INC	EDI
  1289 00000C3F 83 C6 20                        	ADD	ESI,32
  1290 00000C42 81 FF 000000DF                  	CMP	EDI,223
  1291 00000C48 7E E2                           	JLE	L264
  1292 00000C4A                                 L253:
  1293 00000C4A FF 75 08                        	PUSH	DWORD [8+EBP]
  1294 00000C4D E8 FFFFF873                     	CALL	_cons_newline
  1295 00000C52                                 L250:
  1296 00000C52 8D 65 F4                        	LEA	ESP,DWORD [-12+EBP]
  1297 00000C55 5B                              	POP	EBX
  1298 00000C56 5E                              	POP	ESI
  1299 00000C57 5F                              	POP	EDI
  1300 00000C58 5D                              	POP	EBP
  1301 00000C59 C3                              	RET
  1302 00000C5A                                 L269:
  1303 00000C5A FF 74 33 1C                     	PUSH	DWORD [28+EBX+ESI*1]
  1304 00000C5E 68 [000000ED]                   	PUSH	LC25
  1305 00000C63 8D 45 D4                        	LEA	EAX,DWORD [-44+EBP]
  1306 00000C66 50                              	PUSH	EAX
  1307 00000C67 E8 [00000000]                   	CALL	_sprintf
  1308 00000C6C 8D 14 1E                        	LEA	EDX,DWORD [ESI+EBX*1]
  1309 00000C6F 31 C9                           	XOR	ECX,ECX
  1310 00000C71 83 C4 0C                        	ADD	ESP,12
  1311 00000C74                                 L263:
  1312 00000C74 8A 02                           	MOV	AL,BYTE [EDX]
  1313 00000C76 42                              	INC	EDX
  1314 00000C77 88 44 0D D4                     	MOV	BYTE [-44+EBP+ECX*1],AL
  1315 00000C7B 41                              	INC	ECX
  1316 00000C7C 83 F9 07                        	CMP	ECX,7
  1317 00000C7F 7E F3                           	JLE	L263
  1318 00000C81 8A 44 33 08                     	MOV	AL,BYTE [8+EBX+ESI*1]
  1319 00000C85 88 45 DD                        	MOV	BYTE [-35+EBP],AL
  1320 00000C88 8A 44 33 09                     	MOV	AL,BYTE [9+EBX+ESI*1]
  1321 00000C8C 88 45 DE                        	MOV	BYTE [-34+EBP],AL
  1322 00000C8F 8A 44 33 0A                     	MOV	AL,BYTE [10+EBX+ESI*1]
  1323 00000C93 88 45 DF                        	MOV	BYTE [-33+EBP],AL
  1324 00000C96 8D 45 D4                        	LEA	EAX,DWORD [-44+EBP]
  1325 00000C99 50                              	PUSH	EAX
  1326 00000C9A FF 75 08                        	PUSH	DWORD [8+EBP]
  1327 00000C9D E8 FFFFF91E                     	CALL	_cons_putstr0
  1328 00000CA2 58                              	POP	EAX
  1329 00000CA3 5A                              	POP	EDX
  1330 00000CA4 EB 98                           	JMP	L254
  1331 00000CA6                                 L268:
  1332 00000CA6 68 [00000101]                   	PUSH	LC24
  1333 00000CAB FF 75 08                        	PUSH	DWORD [8+EBP]
  1334 00000CAE E8 FFFFF90D                     	CALL	_cons_putstr0
  1335 00000CB3 EB 9D                           	JMP	L250
  1336                                          [SECTION .data]
  1337 00000118                                 LC26:
  1338 00000118 66 69 6C 65 6E 61 6D 65 2E 65   	DB	"filename.ext   %7d:%5d:%5x",0x0A,0x00
       00000122 78 74 20 20 20 25 37 64 3A 25 
       0000012C 35 64 3A 25 35 78 0A 00 
  1339                                          [SECTION .text]
  1340 00000CB5                                 	GLOBAL	_cmd_fdir
  1341 00000CB5                                 _cmd_fdir:
  1342 00000CB5 55                              	PUSH	EBP
  1343 00000CB6 89 E5                           	MOV	EBP,ESP
  1344 00000CB8 57                              	PUSH	EDI
  1345 00000CB9 56                              	PUSH	ESI
  1346 00000CBA 53                              	PUSH	EBX
  1347 00000CBB 83 EC 40                        	SUB	ESP,64
  1348 00000CBE E8 [00000000]                   	CALL	_task_now
  1349 00000CC3 8B 98 00000132                  	MOV	EBX,DWORD [306+EAX]
  1350 00000CC9 E8 [00000000]                   	CALL	_task_now
  1351 00000CCE 83 B8 00000132 00               	CMP	DWORD [306+EAX],0
  1352 00000CD5 0F 84 00000087                  	JE	L288
  1353 00000CDB 31 FF                           	XOR	EDI,EDI
  1354 00000CDD 31 F6                           	XOR	ESI,ESI
  1355 00000CDF                                 L284:
  1356 00000CDF 8A 04 33                        	MOV	AL,BYTE [EBX+ESI*1]
  1357 00000CE2 84 C0                           	TEST	AL,AL
  1358 00000CE4 74 6C                           	JE	L273
  1359 00000CE6 3C E5                           	CMP	AL,-27
  1360 00000CE8 74 5C                           	JE	L274
  1361 00000CEA 8A 44 33 0B                     	MOV	AL,BYTE [11+EBX+ESI*1]
  1362 00000CEE 3C 0F                           	CMP	AL,15
  1363 00000CF0 74 54                           	JE	L274
  1364 00000CF2 0F B6 C0                        	MOVZX	EAX,AL
  1365 00000CF5 50                              	PUSH	EAX
  1366 00000CF6 0F B7 44 33 1A                  	MOVZX	EAX,WORD [26+EBX+ESI*1]
  1367 00000CFB 50                              	PUSH	EAX
  1368 00000CFC 8D 45 B4                        	LEA	EAX,DWORD [-76+EBP]
  1369 00000CFF FF 74 33 1C                     	PUSH	DWORD [28+EBX+ESI*1]
  1370 00000D03 68 [00000118]                   	PUSH	LC26
  1371 00000D08 50                              	PUSH	EAX
  1372 00000D09 E8 [00000000]                   	CALL	_sprintf
  1373 00000D0E 8D 14 1E                        	LEA	EDX,DWORD [ESI+EBX*1]
  1374 00000D11 31 C9                           	XOR	ECX,ECX
  1375 00000D13 83 C4 14                        	ADD	ESP,20
  1376 00000D16                                 L283:
  1377 00000D16 8A 02                           	MOV	AL,BYTE [EDX]
  1378 00000D18 42                              	INC	EDX
  1379 00000D19 88 44 0D B4                     	MOV	BYTE [-76+EBP+ECX*1],AL
  1380 00000D1D 41                              	INC	ECX
  1381 00000D1E 83 F9 07                        	CMP	ECX,7
  1382 00000D21 7E F3                           	JLE	L283
  1383 00000D23 8A 44 33 08                     	MOV	AL,BYTE [8+EBX+ESI*1]
  1384 00000D27 88 45 BD                        	MOV	BYTE [-67+EBP],AL
  1385 00000D2A 8A 44 33 09                     	MOV	AL,BYTE [9+EBX+ESI*1]
  1386 00000D2E 88 45 BE                        	MOV	BYTE [-66+EBP],AL
  1387 00000D31 8A 44 33 0A                     	MOV	AL,BYTE [10+EBX+ESI*1]
  1388 00000D35 88 45 BF                        	MOV	BYTE [-65+EBP],AL
  1389 00000D38 8D 45 B4                        	LEA	EAX,DWORD [-76+EBP]
  1390 00000D3B 50                              	PUSH	EAX
  1391 00000D3C FF 75 08                        	PUSH	DWORD [8+EBP]
  1392 00000D3F E8 FFFFF87C                     	CALL	_cons_putstr0
  1393 00000D44 59                              	POP	ECX
  1394 00000D45 58                              	POP	EAX
  1395 00000D46                                 L274:
  1396 00000D46 47                              	INC	EDI
  1397 00000D47 83 C6 20                        	ADD	ESI,32
  1398 00000D4A 81 FF 000000DF                  	CMP	EDI,223
  1399 00000D50 7E 8D                           	JLE	L284
  1400 00000D52                                 L273:
  1401 00000D52 FF 75 08                        	PUSH	DWORD [8+EBP]
  1402 00000D55 E8 FFFFF76B                     	CALL	_cons_newline
  1403 00000D5A                                 L270:
  1404 00000D5A 8D 65 F4                        	LEA	ESP,DWORD [-12+EBP]
  1405 00000D5D 5B                              	POP	EBX
  1406 00000D5E 5E                              	POP	ESI
  1407 00000D5F 5F                              	POP	EDI
  1408 00000D60 5D                              	POP	EBP
  1409 00000D61 C3                              	RET
  1410 00000D62                                 L288:
  1411 00000D62 68 [00000101]                   	PUSH	LC24
  1412 00000D67 FF 75 08                        	PUSH	DWORD [8+EBP]
  1413 00000D6A E8 FFFFF851                     	CALL	_cons_putstr0
  1414 00000D6F EB E9                           	JMP	L270
  1415                                          [SECTION .data]
  1416 00000134                                 LC27:
  1417 00000134 66 69 6C 65 20 6E 6F 74 20 66   	DB	"file not found",0x0A,0x00
       0000013E 6F 75 6E 64 0A 00 
  1418                                          [SECTION .text]
  1419 00000D71                                 	GLOBAL	_cmd_cd
  1420 00000D71                                 _cmd_cd:
  1421 00000D71 55                              	PUSH	EBP
  1422 00000D72 89 E5                           	MOV	EBP,ESP
  1423 00000D74 57                              	PUSH	EDI
  1424 00000D75 56                              	PUSH	ESI
  1425 00000D76 53                              	PUSH	EBX
  1426 00000D77 83 EC 14                        	SUB	ESP,20
  1427 00000D7A A1 0026F000                     	MOV	EAX,DWORD [2551808]
  1428 00000D7F 8B 5D 08                        	MOV	EBX,DWORD [8+EBP]
  1429 00000D82 89 45 EC                        	MOV	DWORD [-20+EBP],EAX
  1430 00000D85 E8 [00000000]                   	CALL	_task_now
  1431 00000D8A 83 3D 0026F030 00               	CMP	DWORD [2551856],0
  1432 00000D91 8B 80 00000116                  	MOV	EAX,DWORD [278+EAX]
  1433 00000D97 89 45 E8                        	MOV	DWORD [-24+EBP],EAX
  1434 00000D9A 0F 84 00000117                  	JE	L290
  1435 00000DA0 68 000000E0                     	PUSH	224
  1436 00000DA5 6A 08                           	PUSH	8
  1437 00000DA7 6A 10                           	PUSH	16
  1438 00000DA9 E8 [00000000]                   	CALL	_task_now
  1439 00000DAE FF B0 00000132                  	PUSH	DWORD [306+EAX]
  1440 00000DB4 8B 45 0C                        	MOV	EAX,DWORD [12+EBP]
  1441 00000DB7 83 C0 03                        	ADD	EAX,3
  1442 00000DBA 50                              	PUSH	EAX
  1443 00000DBB E8 [00000000]                   	CALL	_file_full_search
  1444 00000DC0 83 C4 14                        	ADD	ESP,20
  1445 00000DC3 85 C0                           	TEST	EAX,EAX
  1446 00000DC5 0F 84 000000DD                  	JE	L306
  1447 00000DCB 8B 15 0026F028                  	MOV	EDX,DWORD [2551848]
  1448 00000DD1 8B 35 0026F024                  	MOV	ESI,DWORD [2551844]
  1449 00000DD7 89 55 E4                        	MOV	DWORD [-28+EBP],EDX
  1450 00000DDA 8B 15 0026F030                  	MOV	EDX,DWORD [2551856]
  1451 00000DE0 89 55 E0                        	MOV	DWORD [-32+EBP],EDX
  1452 00000DE3 0F B7 78 1A                     	MOVZX	EDI,WORD [26+EAX]
  1453 00000DE7 E8 [00000000]                   	CALL	_task_now
  1454 00000DEC 83 B8 00000132 00               	CMP	DWORD [306+EAX],0
  1455 00000DF3 0F 85 00000090                  	JNE	L307
  1456 00000DF9                                 L293:
  1457 00000DF9 E8 [00000000]                   	CALL	_task_now
  1458 00000DFE 68 00002000                     	PUSH	8192
  1459 00000E03 FF 75 E8                        	PUSH	DWORD [-24+EBP]
  1460 00000E06 89 C3                           	MOV	EBX,EAX
  1461 00000E08 E8 [00000000]                   	CALL	_memman_alloc_4k
  1462 00000E0D 89 83 00000132                  	MOV	DWORD [306+EBX],EAX
  1463 00000E13 31 DB                           	XOR	EBX,EBX
  1464 00000E15 6A 00                           	PUSH	0
  1465 00000E17 6A 02                           	PUSH	2
  1466 00000E19 6A 07                           	PUSH	7
  1467 00000E1B E8 [00000000]                   	CALL	_task_now
  1468 00000E20 FF B0 00000132                  	PUSH	DWORD [306+EAX]
  1469 00000E26 FF 75 EC                        	PUSH	DWORD [-20+EBP]
  1470 00000E29 E8 [00000000]                   	CALL	_pageman_link_page_32_m
  1471 00000E2E 83 C4 1C                        	ADD	ESP,28
  1472 00000E31                                 L298:
  1473 00000E31 E8 [00000000]                   	CALL	_task_now
  1474 00000E36 8B 80 00000132                  	MOV	EAX,DWORD [306+EAX]
  1475 00000E3C C7 04 98 00000000               	MOV	DWORD [EAX+EBX*4],0
  1476 00000E43 83 C3 04                        	ADD	EBX,4
  1477 00000E46 81 FB 000007FF                  	CMP	EBX,2047
  1478 00000E4C 7E E3                           	JLE	L298
  1479 00000E4E C7 45 F0 00002000               	MOV	DWORD [-16+EBP],8192
  1480 00000E55 85 FF                           	TEST	EDI,EDI
  1481 00000E57 74 29                           	JE	L299
  1482 00000E59 6A 00                           	PUSH	0
  1483 00000E5B 57                              	PUSH	EDI
  1484 00000E5C                                 L304:
  1485 00000E5C 56                              	PUSH	ESI
  1486 00000E5D 8D 45 F0                        	LEA	EAX,DWORD [-16+EBP]
  1487 00000E60 FF 75 E0                        	PUSH	DWORD [-32+EBP]
  1488 00000E63 FF 75 E4                        	PUSH	DWORD [-28+EBP]
  1489 00000E66 50                              	PUSH	EAX
  1490 00000E67 E8 [00000000]                   	CALL	_task_now
  1491 00000E6C FF B0 00000132                  	PUSH	DWORD [306+EAX]
  1492 00000E72 E8 FFFFF189                     	CALL	__cons_read_file
  1493 00000E77 83 C4 1C                        	ADD	ESP,28
  1494 00000E7A                                 L289:
  1495 00000E7A 8D 65 F4                        	LEA	ESP,DWORD [-12+EBP]
  1496 00000E7D 5B                              	POP	EBX
  1497 00000E7E 5E                              	POP	ESI
  1498 00000E7F 5F                              	POP	EDI
  1499 00000E80 5D                              	POP	EBP
  1500 00000E81 C3                              	RET
  1501 00000E82                                 L299:
  1502 00000E82 6A 00                           	PUSH	0
  1503 00000E84 FF 76 2C                        	PUSH	DWORD [44+ESI]
  1504 00000E87 EB D3                           	JMP	L304
  1505 00000E89                                 L307:
  1506 00000E89 6A 01                           	PUSH	1
  1507 00000E8B 6A 02                           	PUSH	2
  1508 00000E8D E8 [00000000]                   	CALL	_task_now
  1509 00000E92 FF B0 00000132                  	PUSH	DWORD [306+EAX]
  1510 00000E98 FF 75 EC                        	PUSH	DWORD [-20+EBP]
  1511 00000E9B E8 [00000000]                   	CALL	_pageman_unlink_page_32_m
  1512 00000EA0 83 C4 10                        	ADD	ESP,16
  1513 00000EA3 E9 FFFFFF51                     	JMP	L293
  1514 00000EA8                                 L306:
  1515 00000EA8 68 [00000134]                   	PUSH	LC27
  1516 00000EAD                                 L305:
  1517 00000EAD 53                              	PUSH	EBX
  1518 00000EAE E8 FFFFF70D                     	CALL	_cons_putstr0
  1519 00000EB3 58                              	POP	EAX
  1520 00000EB4 5A                              	POP	EDX
  1521 00000EB5 EB C3                           	JMP	L289
  1522 00000EB7                                 L290:
  1523 00000EB7 68 [00000101]                   	PUSH	LC24
  1524 00000EBC EB EF                           	JMP	L305
  1525 00000EBE                                 	GLOBAL	_cmd_exit
  1526 00000EBE                                 _cmd_exit:
  1527 00000EBE 55                              	PUSH	EBP
  1528 00000EBF 89 E5                           	MOV	EBP,ESP
  1529 00000EC1 57                              	PUSH	EDI
  1530 00000EC2 56                              	PUSH	ESI
  1531 00000EC3 53                              	PUSH	EBX
  1532 00000EC4 83 EC 18                        	SUB	ESP,24
  1533 00000EC7 A1 0026F000                     	MOV	EAX,DWORD [2551808]
  1534 00000ECC 8B 7D 08                        	MOV	EDI,DWORD [8+EBP]
  1535 00000ECF 89 45 E8                        	MOV	DWORD [-24+EBP],EAX
  1536 00000ED2 E8 [00000000]                   	CALL	_task_now
  1537 00000ED7 8B 80 00000116                  	MOV	EAX,DWORD [278+EAX]
  1538 00000EDD 89 45 E4                        	MOV	DWORD [-28+EBP],EAX
  1539 00000EE0 E8 [00000000]                   	CALL	_task_now
  1540 00000EE5 89 45 E0                        	MOV	DWORD [-32+EBP],EAX
  1541 00000EE8 A1 [00000000]                   	MOV	EAX,DWORD [_system_task]
  1542 00000EED 83 C0 10                        	ADD	EAX,16
  1543 00000EF0 83 3F 00                        	CMP	DWORD [EDI],0
  1544 00000EF3 89 45 DC                        	MOV	DWORD [-36+EBP],EAX
  1545 00000EF6 74 09                           	JE	L309
  1546 00000EF8 FF 77 20                        	PUSH	DWORD [32+EDI]
  1547 00000EFB E8 [00000000]                   	CALL	_timer_cancel
  1548 00000F00 5B                              	POP	EBX
  1549 00000F01                                 L309:
  1550 00000F01 83 3F 00                        	CMP	DWORD [EDI],0
  1551 00000F04 74 3F                           	JE	L310
  1552 00000F06 31 F6                           	XOR	ESI,ESI
  1553 00000F08 BB 000002FF                     	MOV	EBX,767
  1554 00000F0D                                 L315:
  1555 00000F0D 6A 01                           	PUSH	1
  1556 00000F0F 8B 07                           	MOV	EAX,DWORD [EDI]
  1557 00000F11 8B 00                           	MOV	EAX,DWORD [EAX]
  1558 00000F13 01 F0                           	ADD	EAX,ESI
  1559 00000F15 81 C6 00001000                  	ADD	ESI,4096
  1560 00000F1B 50                              	PUSH	EAX
  1561 00000F1C FF 75 E8                        	PUSH	DWORD [-24+EBP]
  1562 00000F1F E8 [00000000]                   	CALL	_pageman_unlink_page_32
  1563 00000F24 83 C4 0C                        	ADD	ESP,12
  1564 00000F27 4B                              	DEC	EBX
  1565 00000F28 79 E3                           	JNS	L315
  1566 00000F2A 68 00300000                     	PUSH	3145728
  1567 00000F2F 8B 07                           	MOV	EAX,DWORD [EDI]
  1568 00000F31 FF 30                           	PUSH	DWORD [EAX]
  1569 00000F33 FF 75 E4                        	PUSH	DWORD [-28+EBP]
  1570 00000F36 E8 [00000000]                   	CALL	_memman_free_4k
  1571 00000F3B FF 37                           	PUSH	DWORD [EDI]
  1572 00000F3D E8 [00000000]                   	CALL	_sheet_free
  1573 00000F42 83 C4 10                        	ADD	ESP,16
  1574 00000F45                                 L310:
  1575 00000F45 8B 45 E0                        	MOV	EAX,DWORD [-32+EBP]
  1576 00000F48 89 45 F0                        	MOV	DWORD [-16+EBP],EAX
  1577 00000F4B 8D 45 EC                        	LEA	EAX,DWORD [-20+EBP]
  1578 00000F4E 50                              	PUSH	EAX
  1579 00000F4F E8 [00000000]                   	CALL	_system_task_abort
  1580 00000F54 6A 05                           	PUSH	5
  1581 00000F56 FF 75 DC                        	PUSH	DWORD [-36+EBP]
  1582 00000F59 E8 [00000000]                   	CALL	_fifo32_put
  1583 00000F5E 83 C4 0C                        	ADD	ESP,12
  1584 00000F61                                 L316:
  1585 00000F61 FF 75 E0                        	PUSH	DWORD [-32+EBP]
  1586 00000F64 E8 [00000000]                   	CALL	_task_sleep
  1587 00000F69 59                              	POP	ECX
  1588 00000F6A EB F5                           	JMP	L316
  1589 00000F6C                                 	GLOBAL	_cmd_start
  1590 00000F6C                                 _cmd_start:
  1591 00000F6C 55                              	PUSH	EBP
  1592 00000F6D 89 E5                           	MOV	EBP,ESP
  1593 00000F6F 57                              	PUSH	EDI
  1594 00000F70 56                              	PUSH	ESI
  1595 00000F71 53                              	PUSH	EBX
  1596 00000F72 51                              	PUSH	ECX
  1597 00000F73 51                              	PUSH	ECX
  1598 00000F74 8B 45 08                        	MOV	EAX,DWORD [8+EBP]
  1599 00000F77 8B 7D 0C                        	MOV	EDI,DWORD [12+EBP]
  1600 00000F7A 8B 35 00000FE4                  	MOV	ESI,DWORD [4068]
  1601 00000F80 89 45 F0                        	MOV	DWORD [-16+EBP],EAX
  1602 00000F83 FF 75 10                        	PUSH	DWORD [16+EBP]
  1603 00000F86 56                              	PUSH	ESI
  1604 00000F87 E8 [00000000]                   	CALL	_open_console
  1605 00000F8C 89 C3                           	MOV	EBX,EAX
  1606 00000F8E 8B 40 30                        	MOV	EAX,DWORD [48+EAX]
  1607 00000F91 83 C0 10                        	ADD	EAX,16
  1608 00000F94 89 45 EC                        	MOV	DWORD [-20+EBP],EAX
  1609 00000F97 6A 04                           	PUSH	4
  1610 00000F99 6A 20                           	PUSH	32
  1611 00000F9B 53                              	PUSH	EBX
  1612 00000F9C E8 [00000000]                   	CALL	_sheet_slide
  1613 00000FA1 FF B6 00000414                  	PUSH	DWORD [1044+ESI]
  1614 00000FA7 53                              	PUSH	EBX
  1615 00000FA8 BB 00000006                     	MOV	EBX,6
  1616 00000FAD E8 [00000000]                   	CALL	_sheet_updown
  1617 00000FB2 83 C4 1C                        	ADD	ESP,28
  1618 00000FB5 80 7F 06 00                     	CMP	BYTE [6+EDI],0
  1619 00000FB9 75 21                           	JNE	L326
  1620 00000FBB                                 L328:
  1621 00000FBB 68 0000010A                     	PUSH	266
  1622 00000FC0 FF 75 EC                        	PUSH	DWORD [-20+EBP]
  1623 00000FC3 E8 [00000000]                   	CALL	_fifo32_put
  1624 00000FC8 8B 45 F0                        	MOV	EAX,DWORD [-16+EBP]
  1625 00000FCB 5E                              	POP	ESI
  1626 00000FCC 5F                              	POP	EDI
  1627 00000FCD 89 45 08                        	MOV	DWORD [8+EBP],EAX
  1628 00000FD0 8D 65 F4                        	LEA	ESP,DWORD [-12+EBP]
  1629 00000FD3 5B                              	POP	EBX
  1630 00000FD4 5E                              	POP	ESI
  1631 00000FD5 5F                              	POP	EDI
  1632 00000FD6 5D                              	POP	EBP
  1633 00000FD7 E9 FFFFF4E9                     	JMP	_cons_newline
  1634 00000FDC                                 L326:
  1635 00000FDC 0F BE 04 3B                     	MOVSX	EAX,BYTE [EBX+EDI*1]
  1636 00000FE0 05 00000100                     	ADD	EAX,256
  1637 00000FE5 43                              	INC	EBX
  1638 00000FE6 50                              	PUSH	EAX
  1639 00000FE7 FF 75 EC                        	PUSH	DWORD [-20+EBP]
  1640 00000FEA E8 [00000000]                   	CALL	_fifo32_put
  1641 00000FEF 80 3C 3B 00                     	CMP	BYTE [EBX+EDI*1],0
  1642 00000FF3 58                              	POP	EAX
  1643 00000FF4 5A                              	POP	EDX
  1644 00000FF5 75 E5                           	JNE	L326
  1645 00000FF7 EB C2                           	JMP	L328
  1646 00000FF9                                 	GLOBAL	_cmd_ncst
  1647 00000FF9                                 _cmd_ncst:
  1648 00000FF9 55                              	PUSH	EBP
  1649 00000FFA 89 E5                           	MOV	EBP,ESP
  1650 00000FFC 57                              	PUSH	EDI
  1651 00000FFD 56                              	PUSH	ESI
  1652 00000FFE BE 00000005                     	MOV	ESI,5
  1653 00001003 53                              	PUSH	EBX
  1654 00001004 50                              	PUSH	EAX
  1655 00001005 8B 45 08                        	MOV	EAX,DWORD [8+EBP]
  1656 00001008 8B 5D 0C                        	MOV	EBX,DWORD [12+EBP]
  1657 0000100B 89 45 F0                        	MOV	DWORD [-16+EBP],EAX
  1658 0000100E FF 75 10                        	PUSH	DWORD [16+EBP]
  1659 00001011 6A 00                           	PUSH	0
  1660 00001013 E8 [00000000]                   	CALL	_open_constask
  1661 00001018 59                              	POP	ECX
  1662 00001019 80 7B 05 00                     	CMP	BYTE [5+EBX],0
  1663 0000101D 8D 78 10                        	LEA	EDI,DWORD [16+EAX]
  1664 00001020 58                              	POP	EAX
  1665 00001021 75 1F                           	JNE	L334
  1666 00001023                                 L336:
  1667 00001023 68 0000010A                     	PUSH	266
  1668 00001028 57                              	PUSH	EDI
  1669 00001029 E8 [00000000]                   	CALL	_fifo32_put
  1670 0000102E 8B 45 F0                        	MOV	EAX,DWORD [-16+EBP]
  1671 00001031 5B                              	POP	EBX
  1672 00001032 5E                              	POP	ESI
  1673 00001033 89 45 08                        	MOV	DWORD [8+EBP],EAX
  1674 00001036 8D 65 F4                        	LEA	ESP,DWORD [-12+EBP]
  1675 00001039 5B                              	POP	EBX
  1676 0000103A 5E                              	POP	ESI
  1677 0000103B 5F                              	POP	EDI
  1678 0000103C 5D                              	POP	EBP
  1679 0000103D E9 FFFFF483                     	JMP	_cons_newline
  1680 00001042                                 L334:
  1681 00001042 0F BE 04 1E                     	MOVSX	EAX,BYTE [ESI+EBX*1]
  1682 00001046 05 00000100                     	ADD	EAX,256
  1683 0000104B 46                              	INC	ESI
  1684 0000104C 50                              	PUSH	EAX
  1685 0000104D 57                              	PUSH	EDI
  1686 0000104E E8 [00000000]                   	CALL	_fifo32_put
  1687 00001053 80 3C 1E 00                     	CMP	BYTE [ESI+EBX*1],0
  1688 00001057 58                              	POP	EAX
  1689 00001058 5A                              	POP	EDX
  1690 00001059 75 E7                           	JNE	L334
  1691 0000105B EB C6                           	JMP	L336
  1692                                          [SECTION .data]
  1693 00000144                                 LC28:
  1694 00000144 6D 6F 64 65 20 6E 75 6D 62 65   	DB	"mode number error.",0x0A,0x00
       0000014E 72 20 65 72 72 6F 72 2E 0A 00 
  1695                                          [SECTION .text]
  1696 0000105D                                 	GLOBAL	_cmd_langmode
  1697 0000105D                                 _cmd_langmode:
  1698 0000105D 55                              	PUSH	EBP
  1699 0000105E 89 E5                           	MOV	EBP,ESP
  1700 00001060 56                              	PUSH	ESI
  1701 00001061 53                              	PUSH	EBX
  1702 00001062 8B 5D 0C                        	MOV	EBX,DWORD [12+EBP]
  1703 00001065 8B 75 08                        	MOV	ESI,DWORD [8+EBP]
  1704 00001068 E8 [00000000]                   	CALL	_task_now
  1705 0000106D 8A 53 09                        	MOV	DL,BYTE [9+EBX]
  1706 00001070 83 EA 30                        	SUB	EDX,48
  1707 00001073 80 FA 02                        	CMP	DL,2
  1708 00001076 77 14                           	JA	L338
  1709 00001078 88 90 000000E0                  	MOV	BYTE [224+EAX],DL
  1710 0000107E                                 L339:
  1711 0000107E 89 75 08                        	MOV	DWORD [8+EBP],ESI
  1712 00001081 8D 65 F8                        	LEA	ESP,DWORD [-8+EBP]
  1713 00001084 5B                              	POP	EBX
  1714 00001085 5E                              	POP	ESI
  1715 00001086 5D                              	POP	EBP
  1716 00001087 E9 FFFFF439                     	JMP	_cons_newline
  1717 0000108C                                 L338:
  1718 0000108C 68 [00000144]                   	PUSH	LC28
  1719 00001091 56                              	PUSH	ESI
  1720 00001092 E8 FFFFF529                     	CALL	_cons_putstr0
  1721 00001097 58                              	POP	EAX
  1722 00001098 5A                              	POP	EDX
  1723 00001099 EB E3                           	JMP	L339
  1724                                          [SECTION .data]
  1725 00000158                                 LC29:
  1726 00000158 48 61 72 69 00                  	DB	"Hari",0x00
  1727 0000015D                                 LC31:
  1728 0000015D 2E 68 72 62 20 66 69 6C 65 20   	DB	".hrb file format error.",0x0A,0x00
       00000167 66 6F 72 6D 61 74 20 65 72 72 
       00000171 6F 72 2E 0A 00 
  1729 00000176                                 LC30:
  1730 00000176 61 70 70 20 66 69 6C 65 20 70   	DB	"app file page free: %d",0x0A,0x00
       00000180 61 67 65 20 66 72 65 65 3A 20 
       0000018A 25 64 0A 00 
  1731                                          [SECTION .text]
  1732 0000109B                                 	GLOBAL	_cmd_app
  1733 0000109B                                 _cmd_app:
  1734 0000109B 55                              	PUSH	EBP
  1735 0000109C 89 E5                           	MOV	EBP,ESP
  1736 0000109E 57                              	PUSH	EDI
  1737 0000109F 56                              	PUSH	ESI
  1738 000010A0 53                              	PUSH	EBX
  1739 000010A1 83 EC 48                        	SUB	ESP,72
  1740 000010A4 A1 0026F000                     	MOV	EAX,DWORD [2551808]
  1741 000010A9 8B 5D 10                        	MOV	EBX,DWORD [16+EBP]
  1742 000010AC 89 45 CC                        	MOV	DWORD [-52+EBP],EAX
  1743 000010AF E8 [00000000]                   	CALL	_task_now
  1744 000010B4 8B 80 00000116                  	MOV	EAX,DWORD [278+EAX]
  1745 000010BA 89 45 C8                        	MOV	DWORD [-56+EBP],EAX
  1746 000010BD E8 [00000000]                   	CALL	_task_now
  1747 000010C2 89 45 BC                        	MOV	DWORD [-68+EBP],EAX
  1748 000010C5 E8 [00000000]                   	CALL	_task_now
  1749 000010CA 83 B8 00000132 00               	CMP	DWORD [306+EAX],0
  1750 000010D1 0F 84 000003BE                  	JE	L412
  1751 000010D7 31 F6                           	XOR	ESI,ESI
  1752 000010D9                                 L347:
  1753 000010D9 8A 04 1E                        	MOV	AL,BYTE [ESI+EBX*1]
  1754 000010DC 3C 20                           	CMP	AL,32
  1755 000010DE 7E 0A                           	JLE	L343
  1756 000010E0 88 44 35 D4                     	MOV	BYTE [-44+EBP+ESI*1],AL
  1757 000010E4 46                              	INC	ESI
  1758 000010E5 83 FE 0C                        	CMP	ESI,12
  1759 000010E8 7E EF                           	JLE	L347
  1760 000010EA                                 L343:
  1761 000010EA 68 000000E0                     	PUSH	224
  1762 000010EF 8D 7D D4                        	LEA	EDI,DWORD [-44+EBP]
  1763 000010F2 C6 44 35 D4 00                  	MOV	BYTE [-44+EBP+ESI*1],0
  1764 000010F7 E8 [00000000]                   	CALL	_task_now
  1765 000010FC FF B0 00000132                  	PUSH	DWORD [306+EAX]
  1766 00001102 57                              	PUSH	EDI
  1767 00001103 E8 [00000000]                   	CALL	_file_search
  1768 00001108 83 C4 0C                        	ADD	ESP,12
  1769 0000110B 89 C3                           	MOV	EBX,EAX
  1770 0000110D 85 C0                           	TEST	EAX,EAX
  1771 0000110F 0F 84 00000336                  	JE	L413
  1772 00001115                                 L411:
  1773 00001115 8B 43 1C                        	MOV	EAX,DWORD [28+EBX]
  1774 00001118 89 45 D0                        	MOV	DWORD [-48+EBP],EAX
  1775 0000111B E8 [00000000]                   	CALL	_task_now
  1776 00001120 FF B0 000000D8                  	PUSH	DWORD [216+EAX]
  1777 00001126 8D 45 D0                        	LEA	EAX,DWORD [-48+EBP]
  1778 00001129 50                              	PUSH	EAX
  1779 0000112A 0F B7 43 1A                     	MOVZX	EAX,WORD [26+EBX]
  1780 0000112E 50                              	PUSH	EAX
  1781 0000112F E8 [00000000]                   	CALL	_file_loadfile2
  1782 00001134 83 C4 0C                        	ADD	ESP,12
  1783 00001137 83 7D D0 23                     	CMP	DWORD [-48+EBP],35
  1784 0000113B 89 45 C4                        	MOV	DWORD [-60+EBP],EAX
  1785 0000113E 7E 1C                           	JLE	L350
  1786 00001140 89 C6                           	MOV	ESI,EAX
  1787 00001142 BF [00000158]                   	MOV	EDI,LC29
  1788 00001147 FC                              	CLD
  1789 00001148 83 C6 04                        	ADD	ESI,4
  1790 0000114B B9 00000004                     	MOV	ECX,4
  1791 00001150 F3                              	REPE
  1792 00001151 A6                              	CMPSB
  1793 00001152 75 08                           	JNE	L350
  1794 00001154 8B 55 C4                        	MOV	EDX,DWORD [-60+EBP]
  1795 00001157 80 3A 00                        	CMP	BYTE [EDX],0
  1796 0000115A 74 6A                           	JE	L414
  1797 0000115C                                 L350:
  1798 0000115C 68 [0000015D]                   	PUSH	LC31
  1799 00001161 FF 75 08                        	PUSH	DWORD [8+EBP]
  1800 00001164 E8 FFFFF457                     	CALL	_cons_putstr0
  1801 00001169 59                              	POP	ECX
  1802 0000116A 5B                              	POP	EBX
  1803 0000116B                                 L388:
  1804 0000116B 8B 45 D0                        	MOV	EAX,DWORD [-48+EBP]
  1805 0000116E 31 F6                           	XOR	ESI,ESI
  1806 00001170 05 00000FFF                     	ADD	EAX,4095
  1807 00001175 C1 F8 0C                        	SAR	EAX,12
  1808 00001178 39 C6                           	CMP	ESI,EAX
  1809 0000117A 7D 27                           	JGE	L410
  1810 0000117C 8B 5D C4                        	MOV	EBX,DWORD [-60+EBP]
  1811 0000117F                                 L393:
  1812 0000117F 6A 01                           	PUSH	1
  1813 00001181 46                              	INC	ESI
  1814 00001182 53                              	PUSH	EBX
  1815 00001183 81 C3 00001000                  	ADD	EBX,4096
  1816 00001189 FF 75 CC                        	PUSH	DWORD [-52+EBP]
  1817 0000118C E8 [00000000]                   	CALL	_pageman_unlink_page_32
  1818 00001191 8B 45 D0                        	MOV	EAX,DWORD [-48+EBP]
  1819 00001194 05 00000FFF                     	ADD	EAX,4095
  1820 00001199 83 C4 0C                        	ADD	ESP,12
  1821 0000119C C1 F8 0C                        	SAR	EAX,12
  1822 0000119F 39 C6                           	CMP	ESI,EAX
  1823 000011A1 7C DC                           	JL	L393
  1824 000011A3                                 L410:
  1825 000011A3 FF 75 D0                        	PUSH	DWORD [-48+EBP]
  1826 000011A6 FF 75 C4                        	PUSH	DWORD [-60+EBP]
  1827 000011A9 FF 75 C8                        	PUSH	DWORD [-56+EBP]
  1828 000011AC E8 [00000000]                   	CALL	_memman_free_4k
  1829 000011B1 FF 75 08                        	PUSH	DWORD [8+EBP]
  1830 000011B4 E8 FFFFF30C                     	CALL	_cons_newline
  1831 000011B9 B8 00000001                     	MOV	EAX,1
  1832 000011BE                                 L340:
  1833 000011BE 8D 65 F4                        	LEA	ESP,DWORD [-12+EBP]
  1834 000011C1 5B                              	POP	EBX
  1835 000011C2 5E                              	POP	ESI
  1836 000011C3 5F                              	POP	EDI
  1837 000011C4 5D                              	POP	EBP
  1838 000011C5 C3                              	RET
  1839 000011C6                                 L414:
  1840 000011C6 8B 02                           	MOV	EAX,DWORD [EDX]
  1841 000011C8 8B 5A 10                        	MOV	EBX,DWORD [16+EDX]
  1842 000011CB 8B 7A 0C                        	MOV	EDI,DWORD [12+EDX]
  1843 000011CE 8B 72 14                        	MOV	ESI,DWORD [20+EDX]
  1844 000011D1 50                              	PUSH	EAX
  1845 000011D2 89 45 B8                        	MOV	DWORD [-72+EBP],EAX
  1846 000011D5 E8 [00000000]                   	CALL	_task_now
  1847 000011DA FF B0 00000116                  	PUSH	DWORD [278+EAX]
  1848 000011E0 E8 [00000000]                   	CALL	_memman_alloc_4k
  1849 000011E5 6A 00                           	PUSH	0
  1850 000011E7 89 45 C0                        	MOV	DWORD [-64+EBP],EAX
  1851 000011EA 8B 45 B8                        	MOV	EAX,DWORD [-72+EBP]
  1852 000011ED 05 00000FFF                     	ADD	EAX,4095
  1853 000011F2 C1 F8 0C                        	SAR	EAX,12
  1854 000011F5 50                              	PUSH	EAX
  1855 000011F6 6A 07                           	PUSH	7
  1856 000011F8 FF 75 C0                        	PUSH	DWORD [-64+EBP]
  1857 000011FB FF 75 CC                        	PUSH	DWORD [-52+EBP]
  1858 000011FE E8 [00000000]                   	CALL	_pageman_link_page_32_m
  1859 00001203 8B 55 BC                        	MOV	EDX,DWORD [-68+EBP]
  1860 00001206 8B 45 C0                        	MOV	EAX,DWORD [-64+EBP]
  1861 00001209 89 82 000000CC                  	MOV	DWORD [204+EDX],EAX
  1862 0000120F 8B 45 D0                        	MOV	EAX,DWORD [-48+EBP]
  1863 00001212 68 000040FA                     	PUSH	16634
  1864 00001217 48                              	DEC	EAX
  1865 00001218 FF 75 C4                        	PUSH	DWORD [-60+EBP]
  1866 0000121B 50                              	PUSH	EAX
  1867 0000121C 89 D0                           	MOV	EAX,EDX
  1868 0000121E 05 000000B8                     	ADD	EAX,184
  1869 00001223 50                              	PUSH	EAX
  1870 00001224 E8 [00000000]                   	CALL	_set_segmdesc
  1871 00001229 8B 45 B8                        	MOV	EAX,DWORD [-72+EBP]
  1872 0000122C 83 C4 2C                        	ADD	ESP,44
  1873 0000122F 48                              	DEC	EAX
  1874 00001230 68 000040F2                     	PUSH	16626
  1875 00001235 FF 75 C0                        	PUSH	DWORD [-64+EBP]
  1876 00001238 50                              	PUSH	EAX
  1877 00001239 8B 45 BC                        	MOV	EAX,DWORD [-68+EBP]
  1878 0000123C 05 000000C0                     	ADD	EAX,192
  1879 00001241 50                              	PUSH	EAX
  1880 00001242 E8 [00000000]                   	CALL	_set_segmdesc
  1881 00001247 83 C4 10                        	ADD	ESP,16
  1882 0000124A 85 DB                           	TEST	EBX,EBX
  1883 0000124C 7E 17                           	JLE	L396
  1884 0000124E 8B 55 C0                        	MOV	EDX,DWORD [-64+EBP]
  1885 00001251 8B 45 C4                        	MOV	EAX,DWORD [-60+EBP]
  1886 00001254 8D 0C 3A                        	LEA	ECX,DWORD [EDX+EDI*1]
  1887 00001257 8D 14 30                        	LEA	EDX,DWORD [EAX+ESI*1]
  1888 0000125A 89 DE                           	MOV	ESI,EBX
  1889 0000125C                                 L355:
  1890 0000125C 8A 02                           	MOV	AL,BYTE [EDX]
  1891 0000125E 42                              	INC	EDX
  1892 0000125F 88 01                           	MOV	BYTE [ECX],AL
  1893 00001261 41                              	INC	ECX
  1894 00001262 4E                              	DEC	ESI
  1895 00001263 75 F7                           	JNE	L355
  1896 00001265                                 L396:
  1897 00001265 8B 45 BC                        	MOV	EAX,DWORD [-68+EBP]
  1898 00001268 BE 00000007                     	MOV	ESI,7
  1899 0000126D 8B 90 000000D4                  	MOV	EDX,DWORD [212+EAX]
  1900 00001273 31 C0                           	XOR	EAX,EAX
  1901 00001275                                 L360:
  1902 00001275 C7 04 02 00000000               	MOV	DWORD [EDX+EAX*1],0
  1903 0000127C 83 C0 0C                        	ADD	EAX,12
  1904 0000127F 4E                              	DEC	ESI
  1905 00001280 79 F3                           	JNS	L360
  1906 00001282 8B 45 BC                        	MOV	EAX,DWORD [-68+EBP]
  1907 00001285 83 C0 44                        	ADD	EAX,68
  1908 00001288 50                              	PUSH	EAX
  1909 00001289 6A 1C                           	PUSH	28
  1910 0000128B 57                              	PUSH	EDI
  1911 0000128C 31 FF                           	XOR	EDI,EDI
  1912 0000128E 6A 14                           	PUSH	20
  1913 00001290 6A 1B                           	PUSH	27
  1914 00001292 E8 [00000000]                   	CALL	_start_app
  1915 00001297 83 C4 14                        	ADD	ESP,20
  1916 0000129A 8B 15 0026F018                  	MOV	EDX,DWORD [2551832]
  1917 000012A0 3B 3D 0026F01C                  	CMP	EDI,DWORD [2551836]
  1918 000012A6 89 55 B0                        	MOV	DWORD [-80+EBP],EDX
  1919 000012A9 7D 39                           	JGE	L400
  1920 000012AB                                 L371:
  1921 000012AB 8B 45 B0                        	MOV	EAX,DWORD [-80+EBP]
  1922 000012AE 31 DB                           	XOR	EBX,EBX
  1923 000012B0 BE 000000FF                     	MOV	ESI,255
  1924 000012B5 8B 04 B8                        	MOV	EAX,DWORD [EAX+EDI*4]
  1925 000012B8 89 45 B4                        	MOV	DWORD [-76+EBP],EAX
  1926 000012BB                                 L370:
  1927 000012BB 8B 45 B4                        	MOV	EAX,DWORD [-76+EBP]
  1928 000012BE 8B 90 0000081C                  	MOV	EDX,DWORD [2076+EAX]
  1929 000012C4 01 DA                           	ADD	EDX,EBX
  1930 000012C6 8B 42 20                        	MOV	EAX,DWORD [32+EDX]
  1931 000012C9 83 E0 11                        	AND	EAX,17
  1932 000012CC 83 F8 11                        	CMP	EAX,17
  1933 000012CF 0F 84 0000015E                  	JE	L415
  1934 000012D5                                 L367:
  1935 000012D5 83 C3 54                        	ADD	EBX,84
  1936 000012D8 4E                              	DEC	ESI
  1937 000012D9 79 E0                           	JNS	L370
  1938 000012DB 47                              	INC	EDI
  1939 000012DC 3B 3D 0026F01C                  	CMP	EDI,DWORD [2551836]
  1940 000012E2 7C C7                           	JL	L371
  1941 000012E4                                 L400:
  1942 000012E4 31 F6                           	XOR	ESI,ESI
  1943 000012E6                                 L382:
  1944 000012E6 8B 45 BC                        	MOV	EAX,DWORD [-68+EBP]
  1945 000012E9 8B 90 000000D4                  	MOV	EDX,DWORD [212+EAX]
  1946 000012EF 6B C6 0C                        	IMUL	EAX,ESI,12
  1947 000012F2 83 3C 02 00                     	CMP	DWORD [EDX+EAX*1],0
  1948 000012F6 75 6B                           	JNE	L416
  1949 000012F8                                 L374:
  1950 000012F8 46                              	INC	ESI
  1951 000012F9 83 FE 07                        	CMP	ESI,7
  1952 000012FC 7E E8                           	JLE	L382
  1953 000012FE 8B 45 BC                        	MOV	EAX,DWORD [-68+EBP]
  1954 00001301 31 F6                           	XOR	ESI,ESI
  1955 00001303 83 C0 10                        	ADD	EAX,16
  1956 00001306 50                              	PUSH	EAX
  1957 00001307 E8 [00000000]                   	CALL	_timer_cancelall
  1958 0000130C 8B 45 B8                        	MOV	EAX,DWORD [-72+EBP]
  1959 0000130F 05 00000FFF                     	ADD	EAX,4095
  1960 00001314 5F                              	POP	EDI
  1961 00001315 C1 F8 0C                        	SAR	EAX,12
  1962 00001318 39 C6                           	CMP	ESI,EAX
  1963 0000131A 7D 27                           	JGE	L408
  1964 0000131C 8B 5D C0                        	MOV	EBX,DWORD [-64+EBP]
  1965 0000131F                                 L387:
  1966 0000131F 6A 01                           	PUSH	1
  1967 00001321 46                              	INC	ESI
  1968 00001322 53                              	PUSH	EBX
  1969 00001323 81 C3 00001000                  	ADD	EBX,4096
  1970 00001329 FF 75 CC                        	PUSH	DWORD [-52+EBP]
  1971 0000132C E8 [00000000]                   	CALL	_pageman_unlink_page_32
  1972 00001331 8B 45 B8                        	MOV	EAX,DWORD [-72+EBP]
  1973 00001334 05 00000FFF                     	ADD	EAX,4095
  1974 00001339 83 C4 0C                        	ADD	ESP,12
  1975 0000133C C1 F8 0C                        	SAR	EAX,12
  1976 0000133F 39 C6                           	CMP	ESI,EAX
  1977 00001341 7C DC                           	JL	L387
  1978 00001343                                 L408:
  1979 00001343 FF 75 B8                        	PUSH	DWORD [-72+EBP]
  1980 00001346 FF 75 C0                        	PUSH	DWORD [-64+EBP]
  1981 00001349 FF 75 C8                        	PUSH	DWORD [-56+EBP]
  1982 0000134C E8 [00000000]                   	CALL	_memman_free_4k
  1983 00001351 83 C4 0C                        	ADD	ESP,12
  1984 00001354 8B 45 BC                        	MOV	EAX,DWORD [-68+EBP]
  1985 00001357 C6 80 000000E1 00               	MOV	BYTE [225+EAX],0
  1986 0000135E E9 FFFFFE08                     	JMP	L388
  1987 00001363                                 L416:
  1988 00001363 8B 44 02 04                     	MOV	EAX,DWORD [4+EDX+EAX*1]
  1989 00001367 31 F6                           	XOR	ESI,ESI
  1990 00001369 05 00000FFF                     	ADD	EAX,4095
  1991 0000136E C1 F8 0C                        	SAR	EAX,12
  1992 00001371 50                              	PUSH	EAX
  1993 00001372 68 [00000176]                   	PUSH	LC30
  1994 00001377 68 [000002A0]                   	PUSH	_text_buff
  1995 0000137C E8 [00000000]                   	CALL	_sprintf
  1996 00001381 68 [000002A0]                   	PUSH	_text_buff
  1997 00001386 FF 75 08                        	PUSH	DWORD [8+EBP]
  1998 00001389 E8 FFFFF232                     	CALL	_cons_putstr0
  1999 0000138E 8B 55 BC                        	MOV	EDX,DWORD [-68+EBP]
  2000 00001391 83 C4 14                        	ADD	ESP,20
  2001 00001394 8B 82 000000D4                  	MOV	EAX,DWORD [212+EDX]
  2002 0000139A 8B 40 04                        	MOV	EAX,DWORD [4+EAX]
  2003 0000139D 05 00000FFF                     	ADD	EAX,4095
  2004 000013A2 C1 F8 0C                        	SAR	EAX,12
  2005 000013A5 39 C6                           	CMP	ESI,EAX
  2006 000013A7 7D 51                           	JGE	L406
  2007 000013A9 C7 45 AC 00000000               	MOV	DWORD [-84+EBP],0
  2008 000013B0 31 FF                           	XOR	EDI,EDI
  2009 000013B2 31 DB                           	XOR	EBX,EBX
  2010 000013B4                                 L381:
  2011 000013B4 8B 55 BC                        	MOV	EDX,DWORD [-68+EBP]
  2012 000013B7 6A 01                           	PUSH	1
  2013 000013B9 46                              	INC	ESI
  2014 000013BA 8B 82 000000D4                  	MOV	EAX,DWORD [212+EDX]
  2015 000013C0 8B 04 18                        	MOV	EAX,DWORD [EAX+EBX*1]
  2016 000013C3 83 C3 0C                        	ADD	EBX,12
  2017 000013C6 01 F8                           	ADD	EAX,EDI
  2018 000013C8 81 C7 00001000                  	ADD	EDI,4096
  2019 000013CE 50                              	PUSH	EAX
  2020 000013CF FF 75 CC                        	PUSH	DWORD [-52+EBP]
  2021 000013D2 E8 [00000000]                   	CALL	_pageman_unlink_page_32
  2022 000013D7 8B 55 BC                        	MOV	EDX,DWORD [-68+EBP]
  2023 000013DA 83 45 AC 0C                     	ADD	DWORD [-84+EBP],12
  2024 000013DE 8B 82 000000D4                  	MOV	EAX,DWORD [212+EDX]
  2025 000013E4 83 C4 0C                        	ADD	ESP,12
  2026 000013E7 8B 55 AC                        	MOV	EDX,DWORD [-84+EBP]
  2027 000013EA 8B 44 10 04                     	MOV	EAX,DWORD [4+EAX+EDX*1]
  2028 000013EE 05 00000FFF                     	ADD	EAX,4095
  2029 000013F3 C1 F8 0C                        	SAR	EAX,12
  2030 000013F6 39 C6                           	CMP	ESI,EAX
  2031 000013F8 7C BA                           	JL	L381
  2032 000013FA                                 L406:
  2033 000013FA 6B DE 0C                        	IMUL	EBX,ESI,12
  2034 000013FD 8B 55 BC                        	MOV	EDX,DWORD [-68+EBP]
  2035 00001400 8B 82 000000D4                  	MOV	EAX,DWORD [212+EDX]
  2036 00001406 FF 74 18 04                     	PUSH	DWORD [4+EAX+EBX*1]
  2037 0000140A 8B 82 000000D4                  	MOV	EAX,DWORD [212+EDX]
  2038 00001410 FF 34 18                        	PUSH	DWORD [EAX+EBX*1]
  2039 00001413 FF 75 C8                        	PUSH	DWORD [-56+EBP]
  2040 00001416 E8 [00000000]                   	CALL	_memman_free_4k
  2041 0000141B 83 C4 0C                        	ADD	ESP,12
  2042 0000141E 8B 55 BC                        	MOV	EDX,DWORD [-68+EBP]
  2043 00001421 8B 82 000000D4                  	MOV	EAX,DWORD [212+EDX]
  2044 00001427 C7 04 18 00000000               	MOV	DWORD [EAX+EBX*1],0
  2045 0000142E E9 FFFFFEC5                     	JMP	L374
  2046 00001433                                 L415:
  2047 00001433 8B 45 BC                        	MOV	EAX,DWORD [-68+EBP]
  2048 00001436 39 42 30                        	CMP	DWORD [48+EDX],EAX
  2049 00001439 0F 85 FFFFFE96                  	JNE	L367
  2050 0000143F 52                              	PUSH	EDX
  2051 00001440 E8 [00000000]                   	CALL	_sheet_free
  2052 00001445 58                              	POP	EAX
  2053 00001446 E9 FFFFFE8A                     	JMP	L367
  2054 0000144B                                 L413:
  2055 0000144B 80 7C 35 D3 2E                  	CMP	BYTE [-45+EBP+ESI*1],46
  2056 00001450 74 34                           	JE	L348
  2057 00001452 68 000000E0                     	PUSH	224
  2058 00001457 C6 44 35 D4 2E                  	MOV	BYTE [-44+EBP+ESI*1],46
  2059 0000145C C6 44 35 D5 48                  	MOV	BYTE [-43+EBP+ESI*1],72
  2060 00001461 C6 44 35 D6 52                  	MOV	BYTE [-42+EBP+ESI*1],82
  2061 00001466 C6 44 35 D7 42                  	MOV	BYTE [-41+EBP+ESI*1],66
  2062 0000146B C6 44 35 D8 00                  	MOV	BYTE [-40+EBP+ESI*1],0
  2063 00001470 E8 [00000000]                   	CALL	_task_now
  2064 00001475 FF B0 00000132                  	PUSH	DWORD [306+EAX]
  2065 0000147B 57                              	PUSH	EDI
  2066 0000147C E8 [00000000]                   	CALL	_file_search
  2067 00001481 83 C4 0C                        	ADD	ESP,12
  2068 00001484 89 C3                           	MOV	EBX,EAX
  2069 00001486                                 L348:
  2070 00001486 85 DB                           	TEST	EBX,EBX
  2071 00001488 0F 85 FFFFFC87                  	JNE	L411
  2072 0000148E                                 L349:
  2073 0000148E 31 C0                           	XOR	EAX,EAX
  2074 00001490 E9 FFFFFD29                     	JMP	L340
  2075 00001495                                 L412:
  2076 00001495 68 [00000101]                   	PUSH	LC24
  2077 0000149A FF 75 08                        	PUSH	DWORD [8+EBP]
  2078 0000149D E8 FFFFF11E                     	CALL	_cons_putstr0
  2079 000014A2 EB EA                           	JMP	L349
  2080                                          [SECTION .data]
  2081 0000018E                                 LC32:
  2082 0000018E 73 79 73 20 61 70 69 20 63 61   	DB	"sys api call ",0x0A,0x00
       00000198 6C 6C 20 0A 00 
  2083 0000019D                                 LC39:
  2084 0000019D 61 70 69 20 67 65 74 20 63 6F   	DB	"api get command:",0x00
       000001A7 6D 6D 61 6E 64 3A 00 
  2085 000001AE                                 LC36:
  2086 000001AE 66 6F 70 65 6E 20 6F 6B 0A 00   	DB	"fopen ok",0x0A,0x00
  2087 000001B8                                 LC37:
  2088 000001B8 66 6F 70 65 6E 20 65 72 72 0A   	DB	"fopen err",0x0A,0x00
       000001C2 00 
  2089 000001C3                                 LC38:
  2090 000001C3 66 6F 70 65 6E 20 66 75 6C 6C   	DB	"fopen full",0x0A,0x00
       000001CD 0A 00 
  2091 000001CF                                 LC35:
  2092 000001CF 6D 65 6D 6D 61 6E 20 66 72 65   	DB	"memman free",0x0A,0x00
       000001D9 65 0A 00 
  2093 000001DC                                 LC34:
  2094 000001DC 6D 65 6D 6D 61 6E 20 6D 61 6C   	DB	"memman malloc",0x0A,0x00
       000001E6 6C 6F 63 0A 00 
  2095 000001EB                                 LC33:
  2096 000001EB 6D 65 6D 6D 61 6E 20 69 6E 69   	DB	"memman init",0x0A,0x00
       000001F5 74 0A 00 
  2097                                          [SECTION .text]
  2098 000014A4                                 	GLOBAL	_hrb_api
  2099 000014A4                                 _hrb_api:
  2100 000014A4 55                              	PUSH	EBP
  2101 000014A5 89 E5                           	MOV	EBP,ESP
  2102 000014A7 57                              	PUSH	EDI
  2103 000014A8 56                              	PUSH	ESI
  2104 000014A9 53                              	PUSH	EBX
  2105 000014AA 83 EC 4C                        	SUB	ESP,76
  2106 000014AD A1 0026F000                     	MOV	EAX,DWORD [2551808]
  2107 000014B2 8B 5D 1C                        	MOV	EBX,DWORD [28+EBP]
  2108 000014B5 8B 7D 20                        	MOV	EDI,DWORD [32+EBP]
  2109 000014B8 89 45 D0                        	MOV	DWORD [-48+EBP],EAX
  2110 000014BB E8 [00000000]                   	CALL	_task_now
  2111 000014C0 8B 35 00000FE4                  	MOV	ESI,DWORD [4068]
  2112 000014C6 89 75 C0                        	MOV	DWORD [-64+EBP],ESI
  2113 000014C9 8B 90 000000CC                  	MOV	EDX,DWORD [204+EAX]
  2114 000014CF 8B 88 000000C8                  	MOV	ECX,DWORD [200+EAX]
  2115 000014D5 89 45 CC                        	MOV	DWORD [-52+EBP],EAX
  2116 000014D8 89 55 C8                        	MOV	DWORD [-56+EBP],EDX
  2117 000014DB A1 00000FEC                     	MOV	EAX,DWORD [4076]
  2118 000014E0 89 4D C4                        	MOV	DWORD [-60+EBP],ECX
  2119 000014E3 89 45 BC                        	MOV	DWORD [-68+EBP],EAX
  2120 000014E6 E8 [00000000]                   	CALL	_task_now
  2121 000014EB 8B 80 00000116                  	MOV	EAX,DWORD [278+EAX]
  2122 000014F1 68 [0000018E]                   	PUSH	LC32
  2123 000014F6 FF 75 C4                        	PUSH	DWORD [-60+EBP]
  2124 000014F9 89 45 B8                        	MOV	DWORD [-72+EBP],EAX
  2125 000014FC E8 FFFFF0BF                     	CALL	_cons_putstr0
  2126 00001501 58                              	POP	EAX
  2127 00001502 83 FB 01                        	CMP	EBX,1
  2128 00001505 5A                              	POP	EDX
  2129 00001506 0F 84 0000080D                  	JE	L561
  2130 0000150C 83 FB 02                        	CMP	EBX,2
  2131 0000150F 0F 84 000007F8                  	JE	L562
  2132 00001515 83 FB 03                        	CMP	EBX,3
  2133 00001518 0F 84 000007DA                  	JE	L563
  2134 0000151E 83 FB 04                        	CMP	EBX,4
  2135 00001521 0F 84 000007C6                  	JE	L564
  2136 00001527 83 FB 05                        	CMP	EBX,5
  2137 0000152A 0F 84 000006A2                  	JE	L565
  2138 00001530 83 FB 06                        	CMP	EBX,6
  2139 00001533 0F 84 00000644                  	JE	L566
  2140 00001539 83 FB 07                        	CMP	EBX,7
  2141 0000153C 0F 84 00000609                  	JE	L567
  2142 00001542 83 FB 08                        	CMP	EBX,8
  2143 00001545 0F 84 000005D2                  	JE	L568
  2144 0000154B 83 FB 09                        	CMP	EBX,9
  2145 0000154E 0F 84 0000059E                  	JE	L569
  2146 00001554 83 FB 0A                        	CMP	EBX,10
  2147 00001557 0F 84 00000575                  	JE	L570
  2148 0000155D 83 FB 0B                        	CMP	EBX,11
  2149 00001560 0F 84 00000527                  	JE	L571
  2150 00001566 83 FB 0C                        	CMP	EBX,12
  2151 00001569 0F 84 00000500                  	JE	L572
  2152 0000156F 83 FB 0D                        	CMP	EBX,13
  2153 00001572 0F 84 00000489                  	JE	L573
  2154 00001578 83 FB 0E                        	CMP	EBX,14
  2155 0000157B 0F 84 00000473                  	JE	L574
  2156 00001581 83 FB 0F                        	CMP	EBX,15
  2157 00001584 0F 84 0000037E                  	JE	L463
  2158 0000158A 83 FB 10                        	CMP	EBX,16
  2159 0000158D 0F 84 00000364                  	JE	L575
  2160 00001593 83 FB 11                        	CMP	EBX,17
  2161 00001596 0F 84 0000033E                  	JE	L576
  2162 0000159C 83 FB 12                        	CMP	EBX,18
  2163 0000159F 0F 84 00000325                  	JE	L577
  2164 000015A5 83 FB 13                        	CMP	EBX,19
  2165 000015A8 0F 84 0000030E                  	JE	L578
  2166 000015AE 83 FB 14                        	CMP	EBX,20
  2167 000015B1 0F 84 00000296                  	JE	L579
  2168 000015B7 83 FB 15                        	CMP	EBX,21
  2169 000015BA 0F 84 000001DE                  	JE	L580
  2170 000015C0 83 FB 16                        	CMP	EBX,22
  2171 000015C3 0F 84 00000165                  	JE	L581
  2172 000015C9 83 FB 17                        	CMP	EBX,23
  2173 000015CC 0F 84 00000105                  	JE	L582
  2174 000015D2 83 FB 18                        	CMP	EBX,24
  2175 000015D5 0F 84 000000BF                  	JE	L583
  2176 000015DB 83 FB 19                        	CMP	EBX,25
  2177 000015DE 0F 84 00000080                  	JE	L584
  2178 000015E4 83 FB 1A                        	CMP	EBX,26
  2179 000015E7 74 1E                           	JE	L585
  2180 000015E9 83 FB 1B                        	CMP	EBX,27
  2181 000015EC 74 0A                           	JE	L586
  2182 000015EE                                 L419:
  2183 000015EE 31 C0                           	XOR	EAX,EAX
  2184 000015F0                                 L417:
  2185 000015F0 8D 65 F4                        	LEA	ESP,DWORD [-12+EBP]
  2186 000015F3 5B                              	POP	EBX
  2187 000015F4 5E                              	POP	ESI
  2188 000015F5 5F                              	POP	EDI
  2189 000015F6 5D                              	POP	EBP
  2190 000015F7 C3                              	RET
  2191 000015F8                                 L586:
  2192 000015F8 8B 75 CC                        	MOV	ESI,DWORD [-52+EBP]
  2193 000015FB 0F B6 86 000000E0               	MOVZX	EAX,BYTE [224+ESI]
  2194 00001602                                 L548:
  2195 00001602 89 45 44                        	MOV	DWORD [68+EBP],EAX
  2196 00001605 EB E7                           	JMP	L419
  2197 00001607                                 L585:
  2198 00001607 68 [0000019D]                   	PUSH	LC39
  2199 0000160C 31 DB                           	XOR	EBX,EBX
  2200 0000160E FF 75 C4                        	PUSH	DWORD [-60+EBP]
  2201 00001611 E8 FFFFEFAA                     	CALL	_cons_putstr0
  2202 00001616 8B 75 CC                        	MOV	ESI,DWORD [-52+EBP]
  2203 00001619 FF B6 000000DC                  	PUSH	DWORD [220+ESI]
  2204 0000161F FF 75 C4                        	PUSH	DWORD [-60+EBP]
  2205 00001622 E8 FFFFEF99                     	CALL	_cons_putstr0
  2206 00001627 68 [00000068]                   	PUSH	LC17
  2207 0000162C FF 75 C4                        	PUSH	DWORD [-60+EBP]
  2208 0000162F E8 FFFFEF8C                     	CALL	_cons_putstr0
  2209 00001634 83 C4 18                        	ADD	ESP,24
  2210 00001637                                 L532:
  2211 00001637 8B 4D CC                        	MOV	ECX,DWORD [-52+EBP]
  2212 0000163A 8B 55 18                        	MOV	EDX,DWORD [24+EBP]
  2213 0000163D 03 55 C8                        	ADD	EDX,DWORD [-56+EBP]
  2214 00001640 8B 81 000000DC                  	MOV	EAX,DWORD [220+ECX]
  2215 00001646 8A 04 03                        	MOV	AL,BYTE [EBX+EAX*1]
  2216 00001649 88 04 13                        	MOV	BYTE [EBX+EDX*1],AL
  2217 0000164C 8B 81 000000DC                  	MOV	EAX,DWORD [220+ECX]
  2218 00001652 80 3C 03 00                     	CMP	BYTE [EBX+EAX*1],0
  2219 00001656 74 07                           	JE	L533
  2220 00001658 39 FB                           	CMP	EBX,EDI
  2221 0000165A 7D 03                           	JGE	L533
  2222 0000165C 43                              	INC	EBX
  2223 0000165D EB D8                           	JMP	L532
  2224 0000165F                                 L533:
  2225 0000165F 89 5D 44                        	MOV	DWORD [68+EBP],EBX
  2226 00001662 EB 8A                           	JMP	L419
  2227 00001664                                 L584:
  2228 00001664 6B 45 24 0C                     	IMUL	EAX,DWORD [36+EBP],12
  2229 00001668 8B 4D CC                        	MOV	ECX,DWORD [-52+EBP]
  2230 0000166B 31 DB                           	XOR	EBX,EBX
  2231 0000166D 03 81 000000D4                  	ADD	EAX,DWORD [212+ECX]
  2232 00001673 39 FB                           	CMP	EBX,EDI
  2233 00001675 8D 70 F4                        	LEA	ESI,DWORD [-12+EAX]
  2234 00001678 7D E5                           	JGE	L533
  2235 0000167A                                 L529:
  2236 0000167A 8B 4E 08                        	MOV	ECX,DWORD [8+ESI]
  2237 0000167D 3B 4E 04                        	CMP	ECX,DWORD [4+ESI]
  2238 00001680 74 DD                           	JE	L533
  2239 00001682 8B 45 18                        	MOV	EAX,DWORD [24+EBP]
  2240 00001685 8B 16                           	MOV	EDX,DWORD [ESI]
  2241 00001687 03 45 C8                        	ADD	EAX,DWORD [-56+EBP]
  2242 0000168A 8A 14 11                        	MOV	DL,BYTE [ECX+EDX*1]
  2243 0000168D 88 14 03                        	MOV	BYTE [EBX+EAX*1],DL
  2244 00001690 43                              	INC	EBX
  2245 00001691 FF 46 08                        	INC	DWORD [8+ESI]
  2246 00001694 39 FB                           	CMP	EBX,EDI
  2247 00001696 7C E2                           	JL	L529
  2248 00001698 EB C5                           	JMP	L533
  2249 0000169A                                 L583:
  2250 0000169A 6B 45 24 0C                     	IMUL	EAX,DWORD [36+EBP],12
  2251 0000169E 8B 55 CC                        	MOV	EDX,DWORD [-52+EBP]
  2252 000016A1 03 82 000000D4                  	ADD	EAX,DWORD [212+EDX]
  2253 000016A7 85 FF                           	TEST	EDI,EDI
  2254 000016A9 8D 70 F4                        	LEA	ESI,DWORD [-12+EAX]
  2255 000016AC 75 08                           	JNE	L517
  2256 000016AE 8B 46 04                        	MOV	EAX,DWORD [4+ESI]
  2257 000016B1 E9 FFFFFF4C                     	JMP	L548
  2258 000016B6                                 L517:
  2259 000016B6 83 FF 01                        	CMP	EDI,1
  2260 000016B9 74 14                           	JE	L587
  2261 000016BB 83 FF 02                        	CMP	EDI,2
  2262 000016BE 0F 85 FFFFFF2A                  	JNE	L419
  2263 000016C4 8B 46 08                        	MOV	EAX,DWORD [8+ESI]
  2264 000016C7 2B 46 04                        	SUB	EAX,DWORD [4+ESI]
  2265 000016CA E9 FFFFFF33                     	JMP	L548
  2266 000016CF                                 L587:
  2267 000016CF 8B 46 08                        	MOV	EAX,DWORD [8+ESI]
  2268 000016D2 E9 FFFFFF2B                     	JMP	L548
  2269 000016D7                                 L582:
  2270 000016D7 6B 45 24 0C                     	IMUL	EAX,DWORD [36+EBP],12
  2271 000016DB 8B 4D CC                        	MOV	ECX,DWORD [-52+EBP]
  2272 000016DE 03 81 000000D4                  	ADD	EAX,DWORD [212+ECX]
  2273 000016E4 85 FF                           	TEST	EDI,EDI
  2274 000016E6 8D 70 F4                        	LEA	ESI,DWORD [-12+EAX]
  2275 000016E9 74 33                           	JE	L547
  2276 000016EB 83 FF 01                        	CMP	EDI,1
  2277 000016EE 74 36                           	JE	L588
  2278 000016F0 83 FF 02                        	CMP	EDI,2
  2279 000016F3 74 23                           	JE	L589
  2280 000016F5                                 L509:
  2281 000016F5 83 7E 08 00                     	CMP	DWORD [8+ESI],0
  2282 000016F9 78 14                           	JS	L590
  2283 000016FB                                 L513:
  2284 000016FB 8B 46 04                        	MOV	EAX,DWORD [4+ESI]
  2285 000016FE 39 46 08                        	CMP	DWORD [8+ESI],EAX
  2286 00001701 0F 8E FFFFFEE7                  	JLE	L419
  2287 00001707 89 46 08                        	MOV	DWORD [8+ESI],EAX
  2288 0000170A E9 FFFFFEDF                     	JMP	L419
  2289 0000170F                                 L590:
  2290 0000170F C7 46 08 00000000               	MOV	DWORD [8+ESI],0
  2291 00001716 EB E3                           	JMP	L513
  2292 00001718                                 L589:
  2293 00001718 8B 4E 04                        	MOV	ECX,DWORD [4+ESI]
  2294 0000171B 01 4D 18                        	ADD	DWORD [24+EBP],ECX
  2295 0000171E                                 L547:
  2296 0000171E 8B 45 18                        	MOV	EAX,DWORD [24+EBP]
  2297 00001721 89 46 08                        	MOV	DWORD [8+ESI],EAX
  2298 00001724 EB CF                           	JMP	L509
  2299 00001726                                 L588:
  2300 00001726 8B 55 18                        	MOV	EDX,DWORD [24+EBP]
  2301 00001729 01 56 08                        	ADD	DWORD [8+ESI],EDX
  2302 0000172C EB C7                           	JMP	L509
  2303 0000172E                                 L581:
  2304 0000172E 6B 45 24 0C                     	IMUL	EAX,DWORD [36+EBP],12
  2305 00001732 8B 55 CC                        	MOV	EDX,DWORD [-52+EBP]
  2306 00001735 03 82 000000D4                  	ADD	EAX,DWORD [212+EDX]
  2307 0000173B 8D 70 F4                        	LEA	ESI,DWORD [-12+EAX]
  2308 0000173E 83 78 F4 00                     	CMP	DWORD [-12+EAX],0
  2309 00001742 0F 84 FFFFFEA6                  	JE	L419
  2310 00001748 8B 46 04                        	MOV	EAX,DWORD [4+ESI]
  2311 0000174B 31 DB                           	XOR	EBX,EBX
  2312 0000174D 05 00000FFF                     	ADD	EAX,4095
  2313 00001752 C1 F8 0C                        	SAR	EAX,12
  2314 00001755 39 C3                           	CMP	EBX,EAX
  2315 00001757 7D 2A                           	JGE	L545
  2316 00001759 31 FF                           	XOR	EDI,EDI
  2317 0000175B                                 L505:
  2318 0000175B 6A 01                           	PUSH	1
  2319 0000175D 43                              	INC	EBX
  2320 0000175E 8B 06                           	MOV	EAX,DWORD [ESI]
  2321 00001760 01 F8                           	ADD	EAX,EDI
  2322 00001762 81 C7 00001000                  	ADD	EDI,4096
  2323 00001768 50                              	PUSH	EAX
  2324 00001769 FF 75 D0                        	PUSH	DWORD [-48+EBP]
  2325 0000176C E8 [00000000]                   	CALL	_pageman_unlink_page_32
  2326 00001771 8B 46 04                        	MOV	EAX,DWORD [4+ESI]
  2327 00001774 05 00000FFF                     	ADD	EAX,4095
  2328 00001779 83 C4 0C                        	ADD	ESP,12
  2329 0000177C C1 F8 0C                        	SAR	EAX,12
  2330 0000177F 39 C3                           	CMP	EBX,EAX
  2331 00001781 7C D8                           	JL	L505
  2332 00001783                                 L545:
  2333 00001783 FF 76 04                        	PUSH	DWORD [4+ESI]
  2334 00001786 FF 36                           	PUSH	DWORD [ESI]
  2335 00001788 FF 75 B8                        	PUSH	DWORD [-72+EBP]
  2336 0000178B E8 [00000000]                   	CALL	_memman_free_4k
  2337 00001790 C7 06 00000000                  	MOV	DWORD [ESI],0
  2338 00001796                                 L550:
  2339 00001796 83 C4 0C                        	ADD	ESP,12
  2340 00001799 E9 FFFFFE50                     	JMP	L419
  2341 0000179E                                 L580:
  2342 0000179E 31 DB                           	XOR	EBX,EBX
  2343 000017A0 31 C0                           	XOR	EAX,EAX
  2344 000017A2                                 L493:
  2345 000017A2 8B 4D CC                        	MOV	ECX,DWORD [-52+EBP]
  2346 000017A5 8B 91 000000D4                  	MOV	EDX,DWORD [212+ECX]
  2347 000017AB 83 3C 02 00                     	CMP	DWORD [EDX+EAX*1],0
  2348 000017AF 74 09                           	JE	L489
  2349 000017B1 43                              	INC	EBX
  2350 000017B2 83 C0 0C                        	ADD	EAX,12
  2351 000017B5 83 FB 07                        	CMP	EBX,7
  2352 000017B8 7E E8                           	JLE	L493
  2353 000017BA                                 L489:
  2354 000017BA 6B C3 0C                        	IMUL	EAX,EBX,12
  2355 000017BD C7 45 44 00000000               	MOV	DWORD [68+EBP],0
  2356 000017C4 8D 34 10                        	LEA	ESI,DWORD [EAX+EDX*1]
  2357 000017C7 83 FB 07                        	CMP	EBX,7
  2358 000017CA 7F 7A                           	JG	L494
  2359 000017CC 68 000000E0                     	PUSH	224
  2360 000017D1 E8 [00000000]                   	CALL	_task_now
  2361 000017D6 FF B0 00000132                  	PUSH	DWORD [306+EAX]
  2362 000017DC 8B 45 18                        	MOV	EAX,DWORD [24+EBP]
  2363 000017DF 03 45 C8                        	ADD	EAX,DWORD [-56+EBP]
  2364 000017E2 50                              	PUSH	EAX
  2365 000017E3 E8 [00000000]                   	CALL	_file_search
  2366 000017E8 83 C4 0C                        	ADD	ESP,12
  2367 000017EB 89 C2                           	MOV	EDX,EAX
  2368 000017ED 85 C0                           	TEST	EAX,EAX
  2369 000017EF 74 41                           	JE	L495
  2370 000017F1 8D 43 01                        	LEA	EAX,DWORD [1+EBX]
  2371 000017F4 89 45 44                        	MOV	DWORD [68+EBP],EAX
  2372 000017F7 8B 42 1C                        	MOV	EAX,DWORD [28+EDX]
  2373 000017FA 89 46 04                        	MOV	DWORD [4+ESI],EAX
  2374 000017FD 8B 45 CC                        	MOV	EAX,DWORD [-52+EBP]
  2375 00001800 C7 46 08 00000000               	MOV	DWORD [8+ESI],0
  2376 00001807 FF B0 000000D8                  	PUSH	DWORD [216+EAX]
  2377 0000180D 8D 46 04                        	LEA	EAX,DWORD [4+ESI]
  2378 00001810 50                              	PUSH	EAX
  2379 00001811 0F B7 42 1A                     	MOVZX	EAX,WORD [26+EDX]
  2380 00001815 50                              	PUSH	EAX
  2381 00001816 E8 [00000000]                   	CALL	_file_loadfile2
  2382 0000181B 89 06                           	MOV	DWORD [ESI],EAX
  2383 0000181D 68 [000001AE]                   	PUSH	LC36
  2384 00001822                                 L556:
  2385 00001822 FF 75 C4                        	PUSH	DWORD [-60+EBP]
  2386 00001825 E8 FFFFED96                     	CALL	_cons_putstr0
  2387 0000182A                                 L553:
  2388 0000182A 83 C4 14                        	ADD	ESP,20
  2389 0000182D E9 FFFFFDBC                     	JMP	L419
  2390 00001832                                 L495:
  2391 00001832 68 [000001B8]                   	PUSH	LC37
  2392 00001837                                 L549:
  2393 00001837 FF 75 C4                        	PUSH	DWORD [-60+EBP]
  2394 0000183A E8 FFFFED81                     	CALL	_cons_putstr0
  2395 0000183F                                 L551:
  2396 0000183F 58                              	POP	EAX
  2397 00001840 5A                              	POP	EDX
  2398 00001841 E9 FFFFFDA8                     	JMP	L419
  2399 00001846                                 L494:
  2400 00001846 68 [000001C3]                   	PUSH	LC38
  2401 0000184B EB EA                           	JMP	L549
  2402 0000184D                                 L579:
  2403 0000184D 8B 55 24                        	MOV	EDX,DWORD [36+EBP]
  2404 00001850 85 D2                           	TEST	EDX,EDX
  2405 00001852 75 19                           	JNE	L484
  2406 00001854 6A 61                           	PUSH	97
  2407 00001856 E8 [00000000]                   	CALL	_io_in8
  2408 0000185B 89 C3                           	MOV	EBX,EAX
  2409 0000185D 83 E3 0D                        	AND	EBX,13
  2410 00001860 53                              	PUSH	EBX
  2411 00001861 6A 61                           	PUSH	97
  2412 00001863 E8 [00000000]                   	CALL	_io_out8
  2413 00001868 E9 FFFFFF29                     	JMP	L550
  2414 0000186D                                 L484:
  2415 0000186D B9 471E7B60                     	MOV	ECX,1193180000
  2416 00001872 89 D6                           	MOV	ESI,EDX
  2417 00001874 89 C8                           	MOV	EAX,ECX
  2418 00001876 68 000000B6                     	PUSH	182
  2419 0000187B 99                              	CDQ
  2420 0000187C F7 FE                           	IDIV	ESI
  2421 0000187E 6A 43                           	PUSH	67
  2422 00001880 89 C3                           	MOV	EBX,EAX
  2423 00001882 E8 [00000000]                   	CALL	_io_out8
  2424 00001887 0F B6 C3                        	MOVZX	EAX,BL
  2425 0000188A C1 FB 08                        	SAR	EBX,8
  2426 0000188D 50                              	PUSH	EAX
  2427 0000188E 6A 42                           	PUSH	66
  2428 00001890 E8 [00000000]                   	CALL	_io_out8
  2429 00001895 53                              	PUSH	EBX
  2430 00001896 6A 42                           	PUSH	66
  2431 00001898 E8 [00000000]                   	CALL	_io_out8
  2432 0000189D 6A 61                           	PUSH	97
  2433 0000189F E8 [00000000]                   	CALL	_io_in8
  2434 000018A4 89 C3                           	MOV	EBX,EAX
  2435 000018A6 83 CB 03                        	OR	EBX,3
  2436 000018A9 83 E3 0F                        	AND	EBX,15
  2437 000018AC 53                              	PUSH	EBX
  2438 000018AD 6A 61                           	PUSH	97
  2439 000018AF E8 [00000000]                   	CALL	_io_out8
  2440 000018B4 83 C4 24                        	ADD	ESP,36
  2441 000018B7 E9 FFFFFD32                     	JMP	L419
  2442 000018BC                                 L578:
  2443 000018BC FF 75 18                        	PUSH	DWORD [24+EBP]
  2444 000018BF E8 [00000000]                   	CALL	_timer_free
  2445 000018C4                                 L552:
  2446 000018C4 59                              	POP	ECX
  2447 000018C5 E9 FFFFFD24                     	JMP	L419
  2448 000018CA                                 L577:
  2449 000018CA FF 75 24                        	PUSH	DWORD [36+EBP]
  2450 000018CD FF 75 18                        	PUSH	DWORD [24+EBP]
  2451 000018D0 E8 [00000000]                   	CALL	_timer_settime
  2452 000018D5 E9 FFFFFF65                     	JMP	L551
  2453 000018DA                                 L576:
  2454 000018DA 8B 45 24                        	MOV	EAX,DWORD [36+EBP]
  2455 000018DD 05 00000100                     	ADD	EAX,256
  2456 000018E2 50                              	PUSH	EAX
  2457 000018E3 8B 45 CC                        	MOV	EAX,DWORD [-52+EBP]
  2458 000018E6 83 C0 10                        	ADD	EAX,16
  2459 000018E9 50                              	PUSH	EAX
  2460 000018EA FF 75 18                        	PUSH	DWORD [24+EBP]
  2461 000018ED E8 [00000000]                   	CALL	_timer_init
  2462 000018F2 E9 FFFFFE9F                     	JMP	L550
  2463 000018F7                                 L575:
  2464 000018F7 E8 [00000000]                   	CALL	_timer_alloc
  2465 000018FC 89 45 44                        	MOV	DWORD [68+EBP],EAX
  2466 000018FF C6 40 09 01                     	MOV	BYTE [9+EAX],1
  2467 00001903 E9 FFFFFCE6                     	JMP	L419
  2468 00001908                                 L463:
  2469 00001908 E8 [00000000]                   	CALL	_io_cli
  2470 0000190D 8B 45 CC                        	MOV	EAX,DWORD [-52+EBP]
  2471 00001910 83 C0 10                        	ADD	EAX,16
  2472 00001913 50                              	PUSH	EAX
  2473 00001914 E8 [00000000]                   	CALL	_fifo32_status
  2474 00001919 5A                              	POP	EDX
  2475 0000191A 85 C0                           	TEST	EAX,EAX
  2476 0000191C 75 13                           	JNE	L466
  2477 0000191E 83 7D 24 00                     	CMP	DWORD [36+EBP],0
  2478 00001922 0F 84 000000BB                  	JE	L467
  2479 00001928 FF 75 CC                        	PUSH	DWORD [-52+EBP]
  2480 0000192B E8 [00000000]                   	CALL	_task_sleep
  2481 00001930 58                              	POP	EAX
  2482 00001931                                 L466:
  2483 00001931 8B 75 CC                        	MOV	ESI,DWORD [-52+EBP]
  2484 00001934 83 C6 10                        	ADD	ESI,16
  2485 00001937 56                              	PUSH	ESI
  2486 00001938 E8 [00000000]                   	CALL	_fifo32_get
  2487 0000193D 89 C3                           	MOV	EBX,EAX
  2488 0000193F E8 [00000000]                   	CALL	_io_sti
  2489 00001944 5F                              	POP	EDI
  2490 00001945 83 FB 01                        	CMP	EBX,1
  2491 00001948 7E 71                           	JLE	L591
  2492 0000194A                                 L469:
  2493 0000194A 83 FB 02                        	CMP	EBX,2
  2494 0000194D 74 60                           	JE	L592
  2495 0000194F                                 L470:
  2496 0000194F 83 FB 03                        	CMP	EBX,3
  2497 00001952 74 4F                           	JE	L593
  2498 00001954                                 L471:
  2499 00001954 83 FB 04                        	CMP	EBX,4
  2500 00001957 74 14                           	JE	L594
  2501 00001959                                 L472:
  2502 00001959 8D 83 FFFFFF00                  	LEA	EAX,DWORD [-256+EBX]
  2503 0000195F 81 FB 000000FF                  	CMP	EBX,255
  2504 00001965 0F 8F FFFFFC97                  	JG	L548
  2505 0000196B EB 9B                           	JMP	L463
  2506 0000196D                                 L594:
  2507 0000196D 8B 4D C4                        	MOV	ECX,DWORD [-60+EBP]
  2508 00001970 FF 71 20                        	PUSH	DWORD [32+ECX]
  2509 00001973 E8 [00000000]                   	CALL	_timer_cancel
  2510 00001978 E8 [00000000]                   	CALL	_io_cli
  2511 0000197D 8B 75 C4                        	MOV	ESI,DWORD [-60+EBP]
  2512 00001980 8B 06                           	MOV	EAX,DWORD [ESI]
  2513 00001982 8B 40 24                        	MOV	EAX,DWORD [36+EAX]
  2514 00001985 05 000007E8                     	ADD	EAX,2024
  2515 0000198A 50                              	PUSH	EAX
  2516 0000198B FF 75 BC                        	PUSH	DWORD [-68+EBP]
  2517 0000198E E8 [00000000]                   	CALL	_fifo32_put
  2518 00001993 C7 06 00000000                  	MOV	DWORD [ESI],0
  2519 00001999 E8 [00000000]                   	CALL	_io_sti
  2520 0000199E 83 C4 0C                        	ADD	ESP,12
  2521 000019A1 EB B6                           	JMP	L472
  2522 000019A3                                 L593:
  2523 000019A3 8B 55 C4                        	MOV	EDX,DWORD [-60+EBP]
  2524 000019A6 C7 42 0C FFFFFFFF               	MOV	DWORD [12+EDX],-1
  2525 000019AD EB A5                           	JMP	L471
  2526 000019AF                                 L592:
  2527 000019AF 8B 45 C4                        	MOV	EAX,DWORD [-60+EBP]
  2528 000019B2 C7 40 0C 00FFFFFF               	MOV	DWORD [12+EAX],16777215
  2529 000019B9 EB 94                           	JMP	L470
  2530 000019BB                                 L591:
  2531 000019BB 8B 4D C4                        	MOV	ECX,DWORD [-60+EBP]
  2532 000019BE 83 39 00                        	CMP	DWORD [ECX],0
  2533 000019C1 74 87                           	JE	L469
  2534 000019C3 6A 01                           	PUSH	1
  2535 000019C5 56                              	PUSH	ESI
  2536 000019C6 FF 71 20                        	PUSH	DWORD [32+ECX]
  2537 000019C9 E8 [00000000]                   	CALL	_timer_init
  2538 000019CE 8B 75 C4                        	MOV	ESI,DWORD [-60+EBP]
  2539 000019D1 6A 32                           	PUSH	50
  2540 000019D3 FF 76 20                        	PUSH	DWORD [32+ESI]
  2541 000019D6 E8 [00000000]                   	CALL	_timer_settime
  2542 000019DB 83 C4 14                        	ADD	ESP,20
  2543 000019DE E9 FFFFFF67                     	JMP	L469
  2544 000019E3                                 L467:
  2545 000019E3 E8 [00000000]                   	CALL	_io_sti
  2546 000019E8 C7 45 44 FFFFFFFF               	MOV	DWORD [68+EBP],-1
  2547 000019EF E9 FFFFFBFA                     	JMP	L419
  2548 000019F4                                 L574:
  2549 000019F4 FF 75 18                        	PUSH	DWORD [24+EBP]
  2550 000019F7 E8 [00000000]                   	CALL	_sheet_free
  2551 000019FC E9 FFFFFEC3                     	JMP	L552
  2552 00001A01                                 L573:
  2553 00001A01 FF 75 10                        	PUSH	DWORD [16+EBP]
  2554 00001A04 FF 75 08                        	PUSH	DWORD [8+EBP]
  2555 00001A07 FF 75 0C                        	PUSH	DWORD [12+EBP]
  2556 00001A0A 57                              	PUSH	EDI
  2557 00001A0B 8B 75 18                        	MOV	ESI,DWORD [24+EBP]
  2558 00001A0E FF 75 24                        	PUSH	DWORD [36+EBP]
  2559 00001A11 83 E6 FE                        	AND	ESI,-2
  2560 00001A14 56                              	PUSH	ESI
  2561 00001A15 E8 00000419                     	CALL	_hrb_api_linewin
  2562 00001A1A 83 C4 18                        	ADD	ESP,24
  2563 00001A1D F7 45 18 00000001               	TEST	DWORD [24+EBP],1
  2564 00001A24 0F 85 FFFFFBC4                  	JNE	L419
  2565 00001A2A 8B 45 24                        	MOV	EAX,DWORD [36+EBP]
  2566 00001A2D 3B 45 0C                        	CMP	EAX,DWORD [12+EBP]
  2567 00001A30 7E 09                           	JLE	L456
  2568 00001A32 8B 55 0C                        	MOV	EDX,DWORD [12+EBP]
  2569 00001A35 89 45 0C                        	MOV	DWORD [12+EBP],EAX
  2570 00001A38 89 55 24                        	MOV	DWORD [36+EBP],EDX
  2571 00001A3B                                 L456:
  2572 00001A3B 3B 7D 08                        	CMP	EDI,DWORD [8+EBP]
  2573 00001A3E 7E 08                           	JLE	L457
  2574 00001A40 89 FB                           	MOV	EBX,EDI
  2575 00001A42 8B 7D 08                        	MOV	EDI,DWORD [8+EBP]
  2576 00001A45 89 5D 08                        	MOV	DWORD [8+EBP],EBX
  2577 00001A48                                 L457:
  2578 00001A48 A1 00000FE4                     	MOV	EAX,DWORD [4068]
  2579 00001A4D 39 46 28                        	CMP	DWORD [40+ESI],EAX
  2580 00001A50 0F 85 FFFFFB98                  	JNE	L419
  2581 00001A56 8B 45 08                        	MOV	EAX,DWORD [8+EBP]
  2582 00001A59 40                              	INC	EAX
  2583 00001A5A 50                              	PUSH	EAX
  2584 00001A5B 8B 45 0C                        	MOV	EAX,DWORD [12+EBP]
  2585 00001A5E 40                              	INC	EAX
  2586 00001A5F 50                              	PUSH	EAX
  2587 00001A60 57                              	PUSH	EDI
  2588 00001A61 FF 75 24                        	PUSH	DWORD [36+EBP]
  2589 00001A64                                 L559:
  2590 00001A64 56                              	PUSH	ESI
  2591 00001A65                                 L558:
  2592 00001A65 E8 [00000000]                   	CALL	_sheet_refresh
  2593 00001A6A E9 FFFFFDBB                     	JMP	L553
  2594 00001A6F                                 L572:
  2595 00001A6F 8B 4D 18                        	MOV	ECX,DWORD [24+EBP]
  2596 00001A72 A1 00000FE4                     	MOV	EAX,DWORD [4068]
  2597 00001A77 39 41 28                        	CMP	DWORD [40+ECX],EAX
  2598 00001A7A 0F 85 FFFFFB6E                  	JNE	L419
  2599 00001A80 FF 75 08                        	PUSH	DWORD [8+EBP]
  2600 00001A83 FF 75 0C                        	PUSH	DWORD [12+EBP]
  2601 00001A86 57                              	PUSH	EDI
  2602 00001A87 FF 75 24                        	PUSH	DWORD [36+EBP]
  2603 00001A8A 51                              	PUSH	ECX
  2604 00001A8B EB D8                           	JMP	L558
  2605 00001A8D                                 L571:
  2606 00001A8D 8B 75 18                        	MOV	ESI,DWORD [24+EBP]
  2607 00001A90 8B 45 08                        	MOV	EAX,DWORD [8+EBP]
  2608 00001A93 83 E6 FE                        	AND	ESI,-2
  2609 00001A96 8B 55 24                        	MOV	EDX,DWORD [36+EBP]
  2610 00001A99 0F AF 46 08                     	IMUL	EAX,DWORD [8+ESI]
  2611 00001A9D 03 45 0C                        	ADD	EAX,DWORD [12+EBP]
  2612 00001AA0 8B 0E                           	MOV	ECX,DWORD [ESI]
  2613 00001AA2 89 14 81                        	MOV	DWORD [ECX+EAX*4],EDX
  2614 00001AA5 F7 45 18 00000001               	TEST	DWORD [24+EBP],1
  2615 00001AAC 0F 85 FFFFFB3C                  	JNE	L419
  2616 00001AB2 A1 00000FE4                     	MOV	EAX,DWORD [4068]
  2617 00001AB7 39 46 28                        	CMP	DWORD [40+ESI],EAX
  2618 00001ABA 0F 85 FFFFFB2E                  	JNE	L419
  2619 00001AC0 8B 45 08                        	MOV	EAX,DWORD [8+EBP]
  2620 00001AC3 40                              	INC	EAX
  2621 00001AC4 50                              	PUSH	EAX
  2622 00001AC5 8B 45 0C                        	MOV	EAX,DWORD [12+EBP]
  2623 00001AC8 40                              	INC	EAX
  2624 00001AC9 50                              	PUSH	EAX
  2625 00001ACA FF 75 08                        	PUSH	DWORD [8+EBP]
  2626 00001ACD FF 75 0C                        	PUSH	DWORD [12+EBP]
  2627 00001AD0 EB 92                           	JMP	L559
  2628 00001AD2                                 L570:
  2629 00001AD2 8D 47 0F                        	LEA	EAX,DWORD [15+EDI]
  2630 00001AD5 83 E0 F0                        	AND	EAX,-16
  2631 00001AD8 50                              	PUSH	EAX
  2632 00001AD9 8B 45 18                        	MOV	EAX,DWORD [24+EBP]
  2633 00001ADC 03 45 C8                        	ADD	EAX,DWORD [-56+EBP]
  2634 00001ADF FF 75 24                        	PUSH	DWORD [36+EBP]
  2635 00001AE2 50                              	PUSH	EAX
  2636 00001AE3 E8 [00000000]                   	CALL	_memman_free
  2637 00001AE8 68 [000001CF]                   	PUSH	LC35
  2638 00001AED E9 FFFFFD30                     	JMP	L556
  2639 00001AF2                                 L569:
  2640 00001AF2 8D 47 0F                        	LEA	EAX,DWORD [15+EDI]
  2641 00001AF5 83 E0 F0                        	AND	EAX,-16
  2642 00001AF8 50                              	PUSH	EAX
  2643 00001AF9 8B 45 18                        	MOV	EAX,DWORD [24+EBP]
  2644 00001AFC 03 45 C8                        	ADD	EAX,DWORD [-56+EBP]
  2645 00001AFF 50                              	PUSH	EAX
  2646 00001B00 E8 [00000000]                   	CALL	_memman_alloc
  2647 00001B05 68 [000001DC]                   	PUSH	LC34
  2648 00001B0A FF 75 C4                        	PUSH	DWORD [-60+EBP]
  2649 00001B0D 89 45 44                        	MOV	DWORD [68+EBP],EAX
  2650 00001B10 E8 FFFFEAAB                     	CALL	_cons_putstr0
  2651 00001B15 83 C4 10                        	ADD	ESP,16
  2652 00001B18 E9 FFFFFAD1                     	JMP	L419
  2653 00001B1D                                 L568:
  2654 00001B1D 8B 5D 18                        	MOV	EBX,DWORD [24+EBP]
  2655 00001B20 83 E7 F0                        	AND	EDI,-16
  2656 00001B23 03 5D C8                        	ADD	EBX,DWORD [-56+EBP]
  2657 00001B26 53                              	PUSH	EBX
  2658 00001B27 E8 [00000000]                   	CALL	_memman_init
  2659 00001B2C 57                              	PUSH	EDI
  2660 00001B2D FF 75 24                        	PUSH	DWORD [36+EBP]
  2661 00001B30 53                              	PUSH	EBX
  2662 00001B31 E8 [00000000]                   	CALL	_memman_free
  2663 00001B36 68 [000001EB]                   	PUSH	LC33
  2664 00001B3B FF 75 C4                        	PUSH	DWORD [-60+EBP]
  2665 00001B3E E8 FFFFEA7D                     	CALL	_cons_putstr0
  2666 00001B43 83 C4 18                        	ADD	ESP,24
  2667 00001B46 E9 FFFFFAA3                     	JMP	L419
  2668 00001B4B                                 L567:
  2669 00001B4B FF 75 08                        	PUSH	DWORD [8+EBP]
  2670 00001B4E FF 75 0C                        	PUSH	DWORD [12+EBP]
  2671 00001B51 57                              	PUSH	EDI
  2672 00001B52 8B 75 18                        	MOV	ESI,DWORD [24+EBP]
  2673 00001B55 FF 75 24                        	PUSH	DWORD [36+EBP]
  2674 00001B58 83 E6 FE                        	AND	ESI,-2
  2675 00001B5B FF 75 10                        	PUSH	DWORD [16+EBP]
  2676 00001B5E FF 76 08                        	PUSH	DWORD [8+ESI]
  2677 00001B61 FF 36                           	PUSH	DWORD [ESI]
  2678 00001B63 E8 [00000000]                   	CALL	_boxfill32
  2679 00001B68 83 C4 1C                        	ADD	ESP,28
  2680 00001B6B F7 45 18 00000001               	TEST	DWORD [24+EBP],1
  2681 00001B72 0F 85 FFFFFA76                  	JNE	L419
  2682 00001B78 E9 FFFFFECB                     	JMP	L457
  2683 00001B7D                                 L566:
  2684 00001B7D 8B 45 10                        	MOV	EAX,DWORD [16+EBP]
  2685 00001B80 8B 75 18                        	MOV	ESI,DWORD [24+EBP]
  2686 00001B83 03 45 C8                        	ADD	EAX,DWORD [-56+EBP]
  2687 00001B86 83 E6 FE                        	AND	ESI,-2
  2688 00001B89 50                              	PUSH	EAX
  2689 00001B8A FF 75 24                        	PUSH	DWORD [36+EBP]
  2690 00001B8D FF 75 08                        	PUSH	DWORD [8+EBP]
  2691 00001B90 FF 75 0C                        	PUSH	DWORD [12+EBP]
  2692 00001B93 FF 76 08                        	PUSH	DWORD [8+ESI]
  2693 00001B96 FF 36                           	PUSH	DWORD [ESI]
  2694 00001B98 E8 [00000000]                   	CALL	_putfonts32_asc
  2695 00001B9D 83 C4 18                        	ADD	ESP,24
  2696 00001BA0 F7 45 18 00000001               	TEST	DWORD [24+EBP],1
  2697 00001BA7 0F 85 FFFFFA41                  	JNE	L419
  2698 00001BAD A1 00000FE4                     	MOV	EAX,DWORD [4068]
  2699 00001BB2 39 46 28                        	CMP	DWORD [40+ESI],EAX
  2700 00001BB5 0F 85 FFFFFA33                  	JNE	L419
  2701 00001BBB 8B 55 0C                        	MOV	EDX,DWORD [12+EBP]
  2702 00001BBE 8B 45 08                        	MOV	EAX,DWORD [8+EBP]
  2703 00001BC1 83 C0 10                        	ADD	EAX,16
  2704 00001BC4 50                              	PUSH	EAX
  2705 00001BC5 8D 04 FA                        	LEA	EAX,DWORD [EDX+EDI*8]
  2706 00001BC8 50                              	PUSH	EAX
  2707 00001BC9 FF 75 08                        	PUSH	DWORD [8+EBP]
  2708 00001BCC 52                              	PUSH	EDX
  2709 00001BCD E9 FFFFFE92                     	JMP	L559
  2710 00001BD2                                 L565:
  2711 00001BD2 8B 5D 0C                        	MOV	EBX,DWORD [12+EBP]
  2712 00001BD5 8B 55 18                        	MOV	EDX,DWORD [24+EBP]
  2713 00001BD8 0F AF 5D 08                     	IMUL	EBX,DWORD [8+EBP]
  2714 00001BDC C1 E3 02                        	SAL	EBX,2
  2715 00001BDF 31 F6                           	XOR	ESI,ESI
  2716 00001BE1 03 55 C8                        	ADD	EDX,DWORD [-56+EBP]
  2717 00001BE4 8D 83 00001FFF                  	LEA	EAX,DWORD [8191+EBX]
  2718 00001BEA 50                              	PUSH	EAX
  2719 00001BEB 89 55 B4                        	MOV	DWORD [-76+EBP],EDX
  2720 00001BEE 68 003C0000                     	PUSH	3932160
  2721 00001BF3 E8 [00000000]                   	CALL	_memman_alloc_4k
  2722 00001BF8 59                              	POP	ECX
  2723 00001BF9 8B 4D B4                        	MOV	ECX,DWORD [-76+EBP]
  2724 00001BFC 81 E1 00000FFF                  	AND	ECX,4095
  2725 00001C02 89 45 B0                        	MOV	DWORD [-80+EBP],EAX
  2726 00001C05 89 4D A8                        	MOV	DWORD [-88+EBP],ECX
  2727 00001C08 58                              	POP	EAX
  2728 00001C09 8D 9C 19 00001FFF               	LEA	EBX,DWORD [8191+ECX+EBX*1]
  2729 00001C10 C1 FB 0C                        	SAR	EBX,12
  2730 00001C13 39 DE                           	CMP	ESI,EBX
  2731 00001C15 7D 46                           	JGE	L542
  2732 00001C17 31 C9                           	XOR	ECX,ECX
  2733 00001C19                                 L431:
  2734 00001C19 8B 55 B4                        	MOV	EDX,DWORD [-76+EBP]
  2735 00001C1C 8B 45 B0                        	MOV	EAX,DWORD [-80+EBP]
  2736 00001C1F 01 CA                           	ADD	EDX,ECX
  2737 00001C21 01 C8                           	ADD	EAX,ECX
  2738 00001C23 C1 FA 0A                        	SAR	EDX,10
  2739 00001C26 46                              	INC	ESI
  2740 00001C27 C1 F8 0A                        	SAR	EAX,10
  2741 00001C2A 83 E2 FC                        	AND	EDX,-4
  2742 00001C2D 81 CA FFC00000                  	OR	EDX,-4194304
  2743 00001C33 83 E0 FC                        	AND	EAX,-4
  2744 00001C36 0D FFC00000                     	OR	EAX,-4194304
  2745 00001C3B 81 C1 00001000                  	ADD	ECX,4096
  2746 00001C41 8B 12                           	MOV	EDX,DWORD [EDX]
  2747 00001C43 89 10                           	MOV	DWORD [EAX],EDX
  2748 00001C45 8B 55 A8                        	MOV	EDX,DWORD [-88+EBP]
  2749 00001C48 8B 45 0C                        	MOV	EAX,DWORD [12+EBP]
  2750 00001C4B 0F AF 45 08                     	IMUL	EAX,DWORD [8+EBP]
  2751 00001C4F 8D 84 82 00001FFF               	LEA	EAX,DWORD [8191+EDX+EAX*4]
  2752 00001C56 C1 F8 0C                        	SAR	EAX,12
  2753 00001C59 39 C6                           	CMP	ESI,EAX
  2754 00001C5B 7C BC                           	JL	L431
  2755 00001C5D                                 L542:
  2756 00001C5D FF 75 C0                        	PUSH	DWORD [-64+EBP]
  2757 00001C60 BB 00000002                     	MOV	EBX,2
  2758 00001C65 E8 [00000000]                   	CALL	_sheet_alloc
  2759 00001C6A 81 65 B4 00000FFF               	AND	DWORD [-76+EBP],4095
  2760 00001C71 8B 4D CC                        	MOV	ECX,DWORD [-52+EBP]
  2761 00001C74 89 C6                           	MOV	ESI,EAX
  2762 00001C76 89 48 30                        	MOV	DWORD [48+EAX],ECX
  2763 00001C79 83 48 20 10                     	OR	DWORD [32+EAX],16
  2764 00001C7D FF 75 24                        	PUSH	DWORD [36+EBP]
  2765 00001C80 8B 45 B0                        	MOV	EAX,DWORD [-80+EBP]
  2766 00001C83 FF 75 08                        	PUSH	DWORD [8+EBP]
  2767 00001C86 03 45 B4                        	ADD	EAX,DWORD [-76+EBP]
  2768 00001C89 FF 75 0C                        	PUSH	DWORD [12+EBP]
  2769 00001C8C 50                              	PUSH	EAX
  2770 00001C8D 56                              	PUSH	ESI
  2771 00001C8E E8 [00000000]                   	CALL	_sheet_setbuf
  2772 00001C93 8B 55 C8                        	MOV	EDX,DWORD [-56+EBP]
  2773 00001C96 6A 00                           	PUSH	0
  2774 00001C98 8D 04 3A                        	LEA	EAX,DWORD [EDX+EDI*1]
  2775 00001C9B 50                              	PUSH	EAX
  2776 00001C9C 8B 45 18                        	MOV	EAX,DWORD [24+EBP]
  2777 00001C9F FF 75 08                        	PUSH	DWORD [8+EBP]
  2778 00001CA2 01 D0                           	ADD	EAX,EDX
  2779 00001CA4 FF 75 0C                        	PUSH	DWORD [12+EBP]
  2780 00001CA7 50                              	PUSH	EAX
  2781 00001CA8 E8 [00000000]                   	CALL	_make_window32
  2782 00001CAD 8B 4D C0                        	MOV	ECX,DWORD [-64+EBP]
  2783 00001CB0 83 C4 2C                        	ADD	ESP,44
  2784 00001CB3 8B 81 00000410                  	MOV	EAX,DWORD [1040+ECX]
  2785 00001CB9 2B 45 08                        	SUB	EAX,DWORD [8+EBP]
  2786 00001CBC 99                              	CDQ
  2787 00001CBD F7 FB                           	IDIV	EBX
  2788 00001CBF 50                              	PUSH	EAX
  2789 00001CC0 8B 81 0000040C                  	MOV	EAX,DWORD [1036+ECX]
  2790 00001CC6 2B 45 0C                        	SUB	EAX,DWORD [12+EBP]
  2791 00001CC9 99                              	CDQ
  2792 00001CCA F7 FB                           	IDIV	EBX
  2793 00001CCC 83 E0 FC                        	AND	EAX,-4
  2794 00001CCF 50                              	PUSH	EAX
  2795 00001CD0 56                              	PUSH	ESI
  2796 00001CD1 E8 [00000000]                   	CALL	_sheet_slide
  2797 00001CD6 8B 4D C0                        	MOV	ECX,DWORD [-64+EBP]
  2798 00001CD9 FF B1 00000414                  	PUSH	DWORD [1044+ECX]
  2799 00001CDF 56                              	PUSH	ESI
  2800 00001CE0 E8 [00000000]                   	CALL	_sheet_updown
  2801 00001CE5 89 75 44                        	MOV	DWORD [68+EBP],ESI
  2802 00001CE8 E9 FFFFFB3D                     	JMP	L553
  2803 00001CED                                 L564:
  2804 00001CED 8B 45 CC                        	MOV	EAX,DWORD [-52+EBP]
  2805 00001CF0 83 C0 44                        	ADD	EAX,68
  2806 00001CF3 E9 FFFFF8F8                     	JMP	L417
  2807 00001CF8                                 L563:
  2808 00001CF8 8B 45 18                        	MOV	EAX,DWORD [24+EBP]
  2809 00001CFB 57                              	PUSH	EDI
  2810 00001CFC 03 45 C8                        	ADD	EAX,DWORD [-56+EBP]
  2811 00001CFF 50                              	PUSH	EAX
  2812 00001D00 FF 75 C4                        	PUSH	DWORD [-60+EBP]
  2813 00001D03 E8 FFFFE8E6                     	CALL	_cons_putstr1
  2814 00001D08 E9 FFFFFA89                     	JMP	L550
  2815 00001D0D                                 L562:
  2816 00001D0D 8B 45 18                        	MOV	EAX,DWORD [24+EBP]
  2817 00001D10 03 45 C8                        	ADD	EAX,DWORD [-56+EBP]
  2818 00001D13 50                              	PUSH	EAX
  2819 00001D14 E9 FFFFFB1E                     	JMP	L549
  2820 00001D19                                 L561:
  2821 00001D19 6A 01                           	PUSH	1
  2822 00001D1B 0F B6 45 24                     	MOVZX	EAX,BYTE [36+EBP]
  2823 00001D1F 50                              	PUSH	EAX
  2824 00001D20 FF 75 C4                        	PUSH	DWORD [-60+EBP]
  2825 00001D23 E8 FFFFE6E6                     	CALL	_cons_putchar
  2826 00001D28 E9 FFFFFA69                     	JMP	L550
  2827                                          [SECTION .data]
  2828 000001F8                                 LC40:
  2829 000001F8 0A 49 4E 54 20 30 43 20 3A 0A   	DB	0x0A,"INT 0C :",0x0A," Stack Exception.",0x0A,0x00
       00000202 20 53 74 61 63 6B 20 45 78 63 
       0000020C 65 70 74 69 6F 6E 2E 0A 00 
  2830 00000215                                 LC41:
  2831 00000215 45 49 50 20 3D 20 25 30 38 58   	DB	"EIP = %08X",0x0A,0x00
       0000021F 0A 00 
  2832                                          [SECTION .text]
  2833 00001D2D                                 	GLOBAL	_inthandler0c
  2834 00001D2D                                 _inthandler0c:
  2835 00001D2D 55                              	PUSH	EBP
  2836 00001D2E 89 E5                           	MOV	EBP,ESP
  2837 00001D30 57                              	PUSH	EDI
  2838 00001D31 56                              	PUSH	ESI
  2839 00001D32 53                              	PUSH	EBX
  2840 00001D33 8D 5D D4                        	LEA	EBX,DWORD [-44+EBP]
  2841 00001D36 83 EC 20                        	SUB	ESP,32
  2842 00001D39 E8 [00000000]                   	CALL	_task_now
  2843 00001D3E 89 C6                           	MOV	ESI,EAX
  2844 00001D40 8B B8 000000C8                  	MOV	EDI,DWORD [200+EAX]
  2845 00001D46 83 C6 44                        	ADD	ESI,68
  2846 00001D49 68 [000001F8]                   	PUSH	LC40
  2847 00001D4E 57                              	PUSH	EDI
  2848 00001D4F E8 FFFFE86C                     	CALL	_cons_putstr0
  2849 00001D54 8B 45 08                        	MOV	EAX,DWORD [8+EBP]
  2850 00001D57 FF 70 2C                        	PUSH	DWORD [44+EAX]
  2851 00001D5A 68 [00000215]                   	PUSH	LC41
  2852 00001D5F 53                              	PUSH	EBX
  2853 00001D60 E8 [00000000]                   	CALL	_sprintf
  2854 00001D65 53                              	PUSH	EBX
  2855 00001D66 57                              	PUSH	EDI
  2856 00001D67 E8 FFFFE854                     	CALL	_cons_putstr0
  2857 00001D6C 8D 65 F4                        	LEA	ESP,DWORD [-12+EBP]
  2858 00001D6F 5B                              	POP	EBX
  2859 00001D70 89 F0                           	MOV	EAX,ESI
  2860 00001D72 5E                              	POP	ESI
  2861 00001D73 5F                              	POP	EDI
  2862 00001D74 5D                              	POP	EBP
  2863 00001D75 C3                              	RET
  2864                                          [SECTION .data]
  2865 00000221                                 LC42:
  2866 00000221 0A 49 4E 54 20 30 44 20 3A 0A   	DB	0x0A,"INT 0D :",0x0A," General Protected Exception.",0x0A,0x00
       0000022B 20 47 65 6E 65 72 61 6C 20 50 
       00000235 72 6F 74 65 63 74 65 64 20 45 
       0000023F 78 63 65 70 74 69 6F 6E 2E 0A 
       00000249 00 
  2867 0000024A                                 LC43:
  2868 0000024A 45 52 52 4F 52 20 43 4F 44 45   	DB	"ERROR CODE =%08X",0x0A,0x00
       00000254 20 3D 25 30 38 58 0A 00 
  2869 0000025C                                 LC44:
  2870 0000025C 41 50 50 20 43 53 20 3D 25 30   	DB	"APP CS =%08X",0x0A,0x00
       00000266 38 58 0A 00 
  2871 0000026A                                 LC45:
  2872 0000026A 41 50 50 20 45 53 50 20 3D 25   	DB	"APP ESP =%08X",0x0A,0x00
       00000274 30 38 58 0A 00 
  2873 00000279                                 LC46:
  2874 00000279 41 50 50 20 53 53 20 3D 25 30   	DB	"APP SS =%08X",0x0A,0x00
       00000283 38 58 0A 00 
  2875 00000287                                 LC47:
  2876 00000287 41 50 50 20 44 53 20 3D 25 30   	DB	"APP DS =%08X",0x0A,0x00
       00000291 38 58 0A 00 
  2877                                          [SECTION .text]
  2878 00001D76                                 	GLOBAL	_inthandler0d
  2879 00001D76                                 _inthandler0d:
  2880 00001D76 55                              	PUSH	EBP
  2881 00001D77 89 E5                           	MOV	EBP,ESP
  2882 00001D79 57                              	PUSH	EDI
  2883 00001D7A 56                              	PUSH	ESI
  2884 00001D7B 53                              	PUSH	EBX
  2885 00001D7C 8D 5D D4                        	LEA	EBX,DWORD [-44+EBP]
  2886 00001D7F 83 EC 24                        	SUB	ESP,36
  2887 00001D82 8B 7D 08                        	MOV	EDI,DWORD [8+EBP]
  2888 00001D85 E8 [00000000]                   	CALL	_task_now
  2889 00001D8A 8B B0 000000C8                  	MOV	ESI,DWORD [200+EAX]
  2890 00001D90 89 45 D0                        	MOV	DWORD [-48+EBP],EAX
  2891 00001D93 68 [00000221]                   	PUSH	LC42
  2892 00001D98 56                              	PUSH	ESI
  2893 00001D99 E8 FFFFE822                     	CALL	_cons_putstr0
  2894 00001D9E FF 77 2C                        	PUSH	DWORD [44+EDI]
  2895 00001DA1 68 [00000215]                   	PUSH	LC41
  2896 00001DA6 53                              	PUSH	EBX
  2897 00001DA7 E8 [00000000]                   	CALL	_sprintf
  2898 00001DAC 53                              	PUSH	EBX
  2899 00001DAD 56                              	PUSH	ESI
  2900 00001DAE E8 FFFFE80D                     	CALL	_cons_putstr0
  2901 00001DB3 FF 77 28                        	PUSH	DWORD [40+EDI]
  2902 00001DB6 68 [0000024A]                   	PUSH	LC43
  2903 00001DBB 53                              	PUSH	EBX
  2904 00001DBC E8 [00000000]                   	CALL	_sprintf
  2905 00001DC1 83 C4 28                        	ADD	ESP,40
  2906 00001DC4 53                              	PUSH	EBX
  2907 00001DC5 56                              	PUSH	ESI
  2908 00001DC6 E8 FFFFE7F5                     	CALL	_cons_putstr0
  2909 00001DCB FF 77 30                        	PUSH	DWORD [48+EDI]
  2910 00001DCE 68 [0000025C]                   	PUSH	LC44
  2911 00001DD3 53                              	PUSH	EBX
  2912 00001DD4 E8 [00000000]                   	CALL	_sprintf
  2913 00001DD9 53                              	PUSH	EBX
  2914 00001DDA 56                              	PUSH	ESI
  2915 00001DDB E8 FFFFE7E0                     	CALL	_cons_putstr0
  2916 00001DE0 FF 77 38                        	PUSH	DWORD [56+EDI]
  2917 00001DE3 68 [0000026A]                   	PUSH	LC45
  2918 00001DE8 53                              	PUSH	EBX
  2919 00001DE9 E8 [00000000]                   	CALL	_sprintf
  2920 00001DEE 83 C4 28                        	ADD	ESP,40
  2921 00001DF1 53                              	PUSH	EBX
  2922 00001DF2 56                              	PUSH	ESI
  2923 00001DF3 E8 FFFFE7C8                     	CALL	_cons_putstr0
  2924 00001DF8 FF 77 3C                        	PUSH	DWORD [60+EDI]
  2925 00001DFB 68 [00000279]                   	PUSH	LC46
  2926 00001E00 53                              	PUSH	EBX
  2927 00001E01 E8 [00000000]                   	CALL	_sprintf
  2928 00001E06 53                              	PUSH	EBX
  2929 00001E07 56                              	PUSH	ESI
  2930 00001E08 E8 FFFFE7B3                     	CALL	_cons_putstr0
  2931 00001E0D FF 77 20                        	PUSH	DWORD [32+EDI]
  2932 00001E10 68 [00000287]                   	PUSH	LC47
  2933 00001E15 53                              	PUSH	EBX
  2934 00001E16 E8 [00000000]                   	CALL	_sprintf
  2935 00001E1B 83 C4 28                        	ADD	ESP,40
  2936 00001E1E 53                              	PUSH	EBX
  2937 00001E1F 56                              	PUSH	ESI
  2938 00001E20 E8 FFFFE79B                     	CALL	_cons_putstr0
  2939 00001E25 8B 45 D0                        	MOV	EAX,DWORD [-48+EBP]
  2940 00001E28 8D 65 F4                        	LEA	ESP,DWORD [-12+EBP]
  2941 00001E2B 83 C0 44                        	ADD	EAX,68
  2942 00001E2E 5B                              	POP	EBX
  2943 00001E2F 5E                              	POP	ESI
  2944 00001E30 5F                              	POP	EDI
  2945 00001E31 5D                              	POP	EBP
  2946 00001E32 C3                              	RET
  2947 00001E33                                 	GLOBAL	_hrb_api_linewin
  2948 00001E33                                 _hrb_api_linewin:
  2949 00001E33 55                              	PUSH	EBP
  2950 00001E34 89 E5                           	MOV	EBP,ESP
  2951 00001E36 57                              	PUSH	EDI
  2952 00001E37 56                              	PUSH	ESI
  2953 00001E38 53                              	PUSH	EBX
  2954 00001E39 56                              	PUSH	ESI
  2955 00001E3A 56                              	PUSH	ESI
  2956 00001E3B 8B 7D 0C                        	MOV	EDI,DWORD [12+EBP]
  2957 00001E3E 8B 45 14                        	MOV	EAX,DWORD [20+EBP]
  2958 00001E41 89 F9                           	MOV	ECX,EDI
  2959 00001E43 8B 55 18                        	MOV	EDX,DWORD [24+EBP]
  2960 00001E46 C1 E1 0A                        	SAL	ECX,10
  2961 00001E49 89 D6                           	MOV	ESI,EDX
  2962 00001E4B 89 4D F0                        	MOV	DWORD [-16+EBP],ECX
  2963 00001E4E 89 C3                           	MOV	EBX,EAX
  2964 00001E50 8B 4D 10                        	MOV	ECX,DWORD [16+EBP]
  2965 00001E53 2B 75 10                        	SUB	ESI,DWORD [16+EBP]
  2966 00001E56 C1 E1 0A                        	SAL	ECX,10
  2967 00001E59 29 FB                           	SUB	EBX,EDI
  2968 00001E5B 89 4D EC                        	MOV	DWORD [-20+EBP],ECX
  2969 00001E5E 0F 88 0000009F                  	JS	L619
  2970 00001E64                                 L598:
  2971 00001E64 85 F6                           	TEST	ESI,ESI
  2972 00001E66 0F 88 00000090                  	JS	L620
  2973 00001E6C                                 L599:
  2974 00001E6C 39 F3                           	CMP	EBX,ESI
  2975 00001E6E 7C 5E                           	JL	L600
  2976 00001E70 8D 4B 01                        	LEA	ECX,DWORD [1+EBX]
  2977 00001E73 39 C7                           	CMP	EDI,EAX
  2978 00001E75 BB FFFFFC00                     	MOV	EBX,-1024
  2979 00001E7A 7F 05                           	JG	L602
  2980 00001E7C BB 00000400                     	MOV	EBX,1024
  2981 00001E81                                 L602:
  2982 00001E81 39 55 10                        	CMP	DWORD [16+EBP],EDX
  2983 00001E84 7F 42                           	JG	L603
  2984 00001E86 2B 55 10                        	SUB	EDX,DWORD [16+EBP]
  2985 00001E89 42                              	INC	EDX
  2986 00001E8A                                 L618:
  2987 00001E8A C1 E2 0A                        	SAL	EDX,10
  2988 00001E8D 89 D0                           	MOV	EAX,EDX
  2989 00001E8F 99                              	CDQ
  2990 00001E90 F7 F9                           	IDIV	ECX
  2991 00001E92 89 C6                           	MOV	ESI,EAX
  2992 00001E94                                 L605:
  2993 00001E94 85 C9                           	TEST	ECX,ECX
  2994 00001E96 7E 29                           	JLE	L616
  2995 00001E98                                 L614:
  2996 00001E98 8B 45 EC                        	MOV	EAX,DWORD [-20+EBP]
  2997 00001E9B 8B 55 08                        	MOV	EDX,DWORD [8+EBP]
  2998 00001E9E C1 F8 0A                        	SAR	EAX,10
  2999 00001EA1 8B 7D 08                        	MOV	EDI,DWORD [8+EBP]
  3000 00001EA4 0F AF 42 08                     	IMUL	EAX,DWORD [8+EDX]
  3001 00001EA8 8B 55 F0                        	MOV	EDX,DWORD [-16+EBP]
  3002 00001EAB C1 FA 0A                        	SAR	EDX,10
  3003 00001EAE 01 D0                           	ADD	EAX,EDX
  3004 00001EB0 8B 17                           	MOV	EDX,DWORD [EDI]
  3005 00001EB2 8B 7D 1C                        	MOV	EDI,DWORD [28+EBP]
  3006 00001EB5 01 5D F0                        	ADD	DWORD [-16+EBP],EBX
  3007 00001EB8 01 75 EC                        	ADD	DWORD [-20+EBP],ESI
  3008 00001EBB 49                              	DEC	ECX
  3009 00001EBC 89 3C 82                        	MOV	DWORD [EDX+EAX*4],EDI
  3010 00001EBF 75 D7                           	JNE	L614
  3011 00001EC1                                 L616:
  3012 00001EC1 59                              	POP	ECX
  3013 00001EC2 5B                              	POP	EBX
  3014 00001EC3 5B                              	POP	EBX
  3015 00001EC4 5E                              	POP	ESI
  3016 00001EC5 5F                              	POP	EDI
  3017 00001EC6 5D                              	POP	EBP
  3018 00001EC7 C3                              	RET
  3019 00001EC8                                 L603:
  3020 00001EC8 2B 55 10                        	SUB	EDX,DWORD [16+EBP]
  3021 00001ECB 4A                              	DEC	EDX
  3022 00001ECC EB BC                           	JMP	L618
  3023 00001ECE                                 L600:
  3024 00001ECE 8D 4E 01                        	LEA	ECX,DWORD [1+ESI]
  3025 00001ED1 39 55 10                        	CMP	DWORD [16+EBP],EDX
  3026 00001ED4 BE FFFFFC00                     	MOV	ESI,-1024
  3027 00001ED9 7F 05                           	JG	L607
  3028 00001EDB BE 00000400                     	MOV	ESI,1024
  3029 00001EE0                                 L607:
  3030 00001EE0 39 C7                           	CMP	EDI,EAX
  3031 00001EE2 7F 11                           	JG	L608
  3032 00001EE4 29 F8                           	SUB	EAX,EDI
  3033 00001EE6 8D 50 01                        	LEA	EDX,DWORD [1+EAX]
  3034 00001EE9                                 L617:
  3035 00001EE9 C1 E2 0A                        	SAL	EDX,10
  3036 00001EEC 89 D0                           	MOV	EAX,EDX
  3037 00001EEE 99                              	CDQ
  3038 00001EEF F7 F9                           	IDIV	ECX
  3039 00001EF1 89 C3                           	MOV	EBX,EAX
  3040 00001EF3 EB 9F                           	JMP	L605
  3041 00001EF5                                 L608:
  3042 00001EF5 29 F8                           	SUB	EAX,EDI
  3043 00001EF7 8D 50 FF                        	LEA	EDX,DWORD [-1+EAX]
  3044 00001EFA EB ED                           	JMP	L617
  3045 00001EFC                                 L620:
  3046 00001EFC F7 DE                           	NEG	ESI
  3047 00001EFE E9 FFFFFF69                     	JMP	L599
  3048 00001F03                                 L619:
  3049 00001F03 F7 DB                           	NEG	EBX
  3050 00001F05 E9 FFFFFF5A                     	JMP	L598
  3051 00001F0A                                 	GLOBAL	_cons_set_system_task
  3052 00001F0A                                 _cons_set_system_task:
  3053 00001F0A 55                              	PUSH	EBP
  3054 00001F0B 89 E5                           	MOV	EBP,ESP
  3055 00001F0D 8B 45 08                        	MOV	EAX,DWORD [8+EBP]
  3056 00001F10 5D                              	POP	EBP
  3057 00001F11 A3 [00000000]                   	MOV	DWORD [_system_task],EAX
  3058 00001F16 C3                              	RET
  3059 00001F17                                 	GLOBAL	_text_buff
  3060                                          [SECTION .data]
  3061 00000295 00 00 00 00 00 00 00 00 00 00   	ALIGNB	16
       0000029F 00 
  3062 000002A0                                 _text_buff:
  3063 000002A0 00 00 00 00 00 00 00 00 00 00   	RESB	100
       000002AA 00 00 00 00 00 00 00 00 00 00 
       000002B4 00 00 00 00 00 00 00 00 00 00 
       000002BE 00 00 00 00 00 00 00 00 00 00 
       000002C8 00 00 00 00 00 00 00 00 00 00 
       000002D2 00 00 00 00 00 00 00 00 00 00 
       000002DC 00 00 00 00 00 00 00 00 00 00 
       000002E6 00 00 00 00 00 00 00 00 00 00 
       000002F0 00 00 00 00 00 00 00 00 00 00 
       000002FA 00 00 00 00 00 00 00 00 00 00 
