     1 00000000                                 [FORMAT "WCOFF"]
     2 00000000                                 [INSTRSET "i486p"]
     3 00000000                                 [OPTIMIZE 1]
     4 00000000                                 [OPTION 1]
     5 00000000                                 [BITS 32]
     6 00000000                                 	EXTERN	_task_now
     7 00000000                                 	EXTERN	_memman_alloc_4k
     8 00000000                                 	EXTERN	_pageman_link_page_32_m
     9 00000000                                 	EXTERN	_timer_alloc
    10 00000000                                 	EXTERN	_timer_init
    11 00000000                                 	EXTERN	_timer_settime
    12 00000000                                 	EXTERN	_file_readfat
    13 00000000                                 	EXTERN	_io_cli
    14 00000000                                 	EXTERN	_fifo32_status
    15 00000000                                 	EXTERN	_fifo32_get
    16 00000000                                 	EXTERN	_io_sti
    17 00000000                                 	EXTERN	_boxfill8
    18 00000000                                 	EXTERN	_sheet_refresh
    19 00000000                                 	EXTERN	_task_sleep
    20 00000000                                 	EXTERN	_putfonts8_asc_sht
    21 00000000                                 	EXTERN	_io_out8
    22 00000000                                 	EXTERN	_sys_reboot
    23 00000000                                 	EXTERN	_rdrand
    24 00000000                                 	EXTERN	_sprintf
    25 00000000                                 	EXTERN	_memman_total
    26 00000000                                 	EXTERN	_timer_cancel
    27 00000000                                 	EXTERN	_pageman_unlink_page_32
    28 00000000                                 	EXTERN	_memman_free_page_32
    29 00000000                                 	EXTERN	_memman_free_4k
    30 00000000                                 	EXTERN	_fifo32_put
    31 00000000                                 	EXTERN	_taskctl
    32 00000000                                 	EXTERN	_open_console
    33 00000000                                 	EXTERN	_sheet_slide
    34 00000000                                 	EXTERN	_sheet_updown
    35 00000000                                 	EXTERN	_open_constask
    36 00000000                                 	EXTERN	_file_search
    37 00000000                                 	EXTERN	_file_loadfile2
    38 00000000                                 	EXTERN	_set_segmdesc
    39 00000000                                 	EXTERN	_start_app
    40 00000000                                 	EXTERN	_timer_cancelall
    41 00000000                                 	EXTERN	_sheet_free
    42 00000000                                 	EXTERN	_io_in8
    43 00000000                                 	EXTERN	_timer_free
    44 00000000                                 	EXTERN	_memman_free
    45 00000000                                 	EXTERN	_memman_alloc
    46 00000000                                 	EXTERN	_memman_init
    47 00000000                                 	EXTERN	_putfonts8_asc
    48 00000000                                 	EXTERN	_sheet_alloc
    49 00000000                                 	EXTERN	_sheet_setbuf
    50 00000000                                 	EXTERN	_make_window8
    51 00000000                                 [FILE "console.c"]
    52                                          [SECTION .text]
    53 00000000                                 	GLOBAL	_console_task
    54 00000000                                 _console_task:
    55 00000000 55                              	PUSH	EBP
    56 00000001 89 E5                           	MOV	EBP,ESP
    57 00000003 57                              	PUSH	EDI
    58 00000004 56                              	PUSH	ESI
    59 00000005 53                              	PUSH	EBX
    60 00000006 81 EC 000000B8                  	SUB	ESP,184
    61 0000000C 8B 75 08                        	MOV	ESI,DWORD [8+EBP]
    62 0000000F 8B 1D 0026F000                  	MOV	EBX,DWORD [2551808]
    63 00000015 E8 [00000000]                   	CALL	_task_now
    64 0000001A 89 C7                           	MOV	EDI,EAX
    65 0000001C E8 [00000000]                   	CALL	_task_now
    66 00000021 68 00002D00                     	PUSH	11520
    67 00000026 FF B0 00000104                  	PUSH	DWORD [260+EAX]
    68 0000002C E8 [00000000]                   	CALL	_memman_alloc_4k
    69 00000031 6A 00                           	PUSH	0
    70 00000033 6A 03                           	PUSH	3
    71 00000035 6A 07                           	PUSH	7
    72 00000037 89 85 FFFFFF40                  	MOV	DWORD [-192+EBP],EAX
    73 0000003D 50                              	PUSH	EAX
    74 0000003E 53                              	PUSH	EBX
    75 0000003F E8 [00000000]                   	CALL	_pageman_link_page_32_m
    76 00000044 83 C4 1C                        	ADD	ESP,28
    77 00000047 8D 45 C4                        	LEA	EAX,DWORD [-60+EBP]
    78 0000004A 8B 1D 00000FE8                  	MOV	EBX,DWORD [4072]
    79 00000050 89 87 000000B4                  	MOV	DWORD [180+EDI],EAX
    80 00000056 89 75 C4                        	MOV	DWORD [-60+EBP],ESI
    81 00000059 8D 85 FFFFFF44                  	LEA	EAX,DWORD [-188+EBP]
    82 0000005F 85 F6                           	TEST	ESI,ESI
    83 00000061 C7 45 C8 00000008               	MOV	DWORD [-56+EBP],8
    84 00000068 C7 45 CC 0000001C               	MOV	DWORD [-52+EBP],28
    85 0000006F C7 45 D0 FFFFFFFF               	MOV	DWORD [-48+EBP],-1
    86 00000076 89 87 000000C8                  	MOV	DWORD [200+EDI],EAX
    87 0000007C 74 21                           	JE	L2
    88 0000007E E8 [00000000]                   	CALL	_timer_alloc
    89 00000083 8D 57 10                        	LEA	EDX,DWORD [16+EDI]
    90 00000086 6A 01                           	PUSH	1
    91 00000088 52                              	PUSH	EDX
    92 00000089 89 45 D4                        	MOV	DWORD [-44+EBP],EAX
    93 0000008C 50                              	PUSH	EAX
    94 0000008D E8 [00000000]                   	CALL	_timer_init
    95 00000092 6A 32                           	PUSH	50
    96 00000094 FF 75 D4                        	PUSH	DWORD [-44+EBP]
    97 00000097 E8 [00000000]                   	CALL	_timer_settime
    98 0000009C 83 C4 14                        	ADD	ESP,20
    99 0000009F                                 L2:
   100 0000009F 68 00100200                     	PUSH	1049088
   101 000000A4 BE 00000007                     	MOV	ESI,7
   102 000000A9 FF B5 FFFFFF40                  	PUSH	DWORD [-192+EBP]
   103 000000AF E8 [00000000]                   	CALL	_file_readfat
   104 000000B4 58                              	POP	EAX
   105 000000B5 5A                              	POP	EDX
   106 000000B6 31 C0                           	XOR	EAX,EAX
   107 000000B8                                 L7:
   108 000000B8 C7 84 05 FFFFFF64 00000000      	MOV	DWORD [-156+EBP+EAX*1],0
   109 000000C3 83 C0 0C                        	ADD	EAX,12
   110 000000C6 4E                              	DEC	ESI
   111 000000C7 79 EF                           	JNS	L7
   112 000000C9 8D 85 FFFFFF64                  	LEA	EAX,DWORD [-156+EBP]
   113 000000CF 89 87 000000C0                  	MOV	DWORD [192+EDI],EAX
   114 000000D5 8B 85 FFFFFF40                  	MOV	EAX,DWORD [-192+EBP]
   115 000000DB 89 87 000000C4                  	MOV	DWORD [196+EDI],EAX
   116 000000E1 8D 45 C4                        	LEA	EAX,DWORD [-60+EBP]
   117 000000E4 80 BB 00001000 FF               	CMP	BYTE [4096+EBX],-1
   118 000000EB C6 87 000000CD 00               	MOV	BYTE [205+EDI],0
   119 000000F2 0F 95 87 000000CC               	SETNE	BYTE [204+EDI]
   120 000000F9 6A 01                           	PUSH	1
   121 000000FB 6A 3E                           	PUSH	62
   122 000000FD 50                              	PUSH	EAX
   123 000000FE E8 0000023C                     	CALL	_cons_putchar
   124 00000103 83 C4 0C                        	ADD	ESP,12
   125 00000106                                 L10:
   126 00000106 8D 5F 10                        	LEA	EBX,DWORD [16+EDI]
   127 00000109 E8 [00000000]                   	CALL	_io_cli
   128 0000010E 53                              	PUSH	EBX
   129 0000010F E8 [00000000]                   	CALL	_fifo32_status
   130 00000114 5E                              	POP	ESI
   131 00000115 85 C0                           	TEST	EAX,EAX
   132 00000117 0F 84 00000211                  	JE	L38
   133 0000011D 53                              	PUSH	EBX
   134 0000011E E8 [00000000]                   	CALL	_fifo32_get
   135 00000123 89 C6                           	MOV	ESI,EAX
   136 00000125 E8 [00000000]                   	CALL	_io_sti
   137 0000012A 59                              	POP	ECX
   138 0000012B 83 FE 01                        	CMP	ESI,1
   139 0000012E 0F 8E 000001A3                  	JLE	L39
   140 00000134                                 L15:
   141 00000134 83 FE 02                        	CMP	ESI,2
   142 00000137 0F 84 0000018E                  	JE	L40
   143 0000013D                                 L20:
   144 0000013D 83 FE 03                        	CMP	ESI,3
   145 00000140 0F 84 00000153                  	JE	L41
   146 00000146                                 L21:
   147 00000146 83 FE 04                        	CMP	ESI,4
   148 00000149 0F 84 00000134                  	JE	L42
   149 0000014F                                 L23:
   150 0000014F 8D 8E FFFFFF00                  	LEA	ECX,DWORD [-256+ESI]
   151 00000155 89 8D FFFFFF3C                  	MOV	DWORD [-196+EBP],ECX
   152 0000015B 81 F9 000000FF                  	CMP	ECX,255
   153 00000161 77 4E                           	JA	L24
   154 00000163 81 FE 00000108                  	CMP	ESI,264
   155 00000169 0F 84 000000F4                  	JE	L43
   156 0000016F 81 FE 0000010A                  	CMP	ESI,266
   157 00000175 0F 84 00000089                  	JE	L44
   158 0000017B 8B 4D C8                        	MOV	ECX,DWORD [-56+EBP]
   159 0000017E 81 F9 000000EF                  	CMP	ECX,239
   160 00000184 7F 2B                           	JG	L24
   161 00000186 89 C8                           	MOV	EAX,ECX
   162 00000188 BA 00000008                     	MOV	EDX,8
   163 0000018D 89 D3                           	MOV	EBX,EDX
   164 0000018F 6A 01                           	PUSH	1
   165 00000191 99                              	CDQ
   166 00000192 F7 FB                           	IDIV	EBX
   167 00000194 89 C1                           	MOV	ECX,EAX
   168 00000196 89 F0                           	MOV	EAX,ESI
   169 00000198 88 84 0D FFFFFF42               	MOV	BYTE [-190+EBP+ECX*1],AL
   170 0000019F 8D 45 C4                        	LEA	EAX,DWORD [-60+EBP]
   171 000001A2 FF B5 FFFFFF3C                  	PUSH	DWORD [-196+EBP]
   172 000001A8 50                              	PUSH	EAX
   173 000001A9                                 L36:
   174 000001A9 E8 00000191                     	CALL	_cons_putchar
   175 000001AE                                 L37:
   176 000001AE 83 C4 0C                        	ADD	ESP,12
   177 000001B1                                 L24:
   178 000001B1 8B 5D C4                        	MOV	EBX,DWORD [-60+EBP]
   179 000001B4 85 DB                           	TEST	EBX,EBX
   180 000001B6 0F 84 FFFFFF4A                  	JE	L10
   181 000001BC 83 7D D0 00                     	CMP	DWORD [-48+EBP],0
   182 000001C0 78 22                           	JS	L33
   183 000001C2 8B 4D CC                        	MOV	ECX,DWORD [-52+EBP]
   184 000001C5 8B 55 C8                        	MOV	EDX,DWORD [-56+EBP]
   185 000001C8 8D 41 0F                        	LEA	EAX,DWORD [15+ECX]
   186 000001CB 50                              	PUSH	EAX
   187 000001CC 8D 42 07                        	LEA	EAX,DWORD [7+EDX]
   188 000001CF 50                              	PUSH	EAX
   189 000001D0 51                              	PUSH	ECX
   190 000001D1 52                              	PUSH	EDX
   191 000001D2 0F B6 45 D0                     	MOVZX	EAX,BYTE [-48+EBP]
   192 000001D6 50                              	PUSH	EAX
   193 000001D7 FF 73 04                        	PUSH	DWORD [4+EBX]
   194 000001DA FF 33                           	PUSH	DWORD [EBX]
   195 000001DC E8 [00000000]                   	CALL	_boxfill8
   196 000001E1 83 C4 1C                        	ADD	ESP,28
   197 000001E4                                 L33:
   198 000001E4 8B 4D CC                        	MOV	ECX,DWORD [-52+EBP]
   199 000001E7 8B 55 C8                        	MOV	EDX,DWORD [-56+EBP]
   200 000001EA 8D 41 10                        	LEA	EAX,DWORD [16+ECX]
   201 000001ED 50                              	PUSH	EAX
   202 000001EE 8D 42 08                        	LEA	EAX,DWORD [8+EDX]
   203 000001F1 50                              	PUSH	EAX
   204 000001F2 51                              	PUSH	ECX
   205 000001F3 52                              	PUSH	EDX
   206 000001F4 FF 75 C4                        	PUSH	DWORD [-60+EBP]
   207 000001F7 E8 [00000000]                   	CALL	_sheet_refresh
   208 000001FC 83 C4 14                        	ADD	ESP,20
   209 000001FF E9 FFFFFF02                     	JMP	L10
   210 00000204                                 L44:
   211 00000204 6A 00                           	PUSH	0
   212 00000206 8D 5D C4                        	LEA	EBX,DWORD [-60+EBP]
   213 00000209 6A 20                           	PUSH	32
   214 0000020B 53                              	PUSH	EBX
   215 0000020C E8 0000012E                     	CALL	_cons_putchar
   216 00000211 53                              	PUSH	EBX
   217 00000212 8B 45 C8                        	MOV	EAX,DWORD [-56+EBP]
   218 00000215 BA 00000008                     	MOV	EDX,8
   219 0000021A 89 D1                           	MOV	ECX,EDX
   220 0000021C 99                              	CDQ
   221 0000021D F7 F9                           	IDIV	ECX
   222 0000021F C6 84 05 FFFFFF42 00            	MOV	BYTE [-190+EBP+EAX*1],0
   223 00000227 E8 000001C4                     	CALL	_cons_newline
   224 0000022C 8D 85 FFFFFF44                  	LEA	EAX,DWORD [-188+EBP]
   225 00000232 FF 75 0C                        	PUSH	DWORD [12+EBP]
   226 00000235 FF B5 FFFFFF40                  	PUSH	DWORD [-192+EBP]
   227 0000023B 53                              	PUSH	EBX
   228 0000023C 50                              	PUSH	EAX
   229 0000023D E8 000002F7                     	CALL	_cons_runcmd
   230 00000242 83 C4 20                        	ADD	ESP,32
   231 00000245 83 7D C4 00                     	CMP	DWORD [-60+EBP],0
   232 00000249 75 0E                           	JNE	L29
   233 0000024B FF B5 FFFFFF40                  	PUSH	DWORD [-192+EBP]
   234 00000251 53                              	PUSH	EBX
   235 00000252 E8 0000067E                     	CALL	_cmd_exit
   236 00000257 58                              	POP	EAX
   237 00000258 5A                              	POP	EDX
   238 00000259                                 L29:
   239 00000259 6A 01                           	PUSH	1
   240 0000025B 6A 3E                           	PUSH	62
   241 0000025D 53                              	PUSH	EBX
   242 0000025E E9 FFFFFF46                     	JMP	L36
   243 00000263                                 L43:
   244 00000263 83 7D C8 10                     	CMP	DWORD [-56+EBP],16
   245 00000267 0F 8E FFFFFF44                  	JLE	L24
   246 0000026D 6A 00                           	PUSH	0
   247 0000026F 8D 45 C4                        	LEA	EAX,DWORD [-60+EBP]
   248 00000272 6A 20                           	PUSH	32
   249 00000274 50                              	PUSH	EAX
   250 00000275 E8 000000C5                     	CALL	_cons_putchar
   251 0000027A 83 6D C8 08                     	SUB	DWORD [-56+EBP],8
   252 0000027E E9 FFFFFF2B                     	JMP	L37
   253 00000283                                 L42:
   254 00000283 FF B5 FFFFFF40                  	PUSH	DWORD [-192+EBP]
   255 00000289 8D 45 C4                        	LEA	EAX,DWORD [-60+EBP]
   256 0000028C 50                              	PUSH	EAX
   257 0000028D E8 00000643                     	CALL	_cmd_exit
   258 00000292 59                              	POP	ECX
   259 00000293 5B                              	POP	EBX
   260 00000294 E9 FFFFFEB6                     	JMP	L23
   261 00000299                                 L41:
   262 00000299 8B 5D C4                        	MOV	EBX,DWORD [-60+EBP]
   263 0000029C 85 DB                           	TEST	EBX,EBX
   264 0000029E 74 1F                           	JE	L22
   265 000002A0 8B 4D CC                        	MOV	ECX,DWORD [-52+EBP]
   266 000002A3 8B 55 C8                        	MOV	EDX,DWORD [-56+EBP]
   267 000002A6 8D 41 0F                        	LEA	EAX,DWORD [15+ECX]
   268 000002A9 50                              	PUSH	EAX
   269 000002AA 8D 42 07                        	LEA	EAX,DWORD [7+EDX]
   270 000002AD 50                              	PUSH	EAX
   271 000002AE 51                              	PUSH	ECX
   272 000002AF 52                              	PUSH	EDX
   273 000002B0 6A 00                           	PUSH	0
   274 000002B2 FF 73 04                        	PUSH	DWORD [4+EBX]
   275 000002B5 FF 33                           	PUSH	DWORD [EBX]
   276 000002B7 E8 [00000000]                   	CALL	_boxfill8
   277 000002BC 83 C4 1C                        	ADD	ESP,28
   278 000002BF                                 L22:
   279 000002BF C7 45 D0 FFFFFFFF               	MOV	DWORD [-48+EBP],-1
   280 000002C6 E9 FFFFFE7B                     	JMP	L21
   281 000002CB                                 L40:
   282 000002CB C7 45 D0 00000007               	MOV	DWORD [-48+EBP],7
   283 000002D2 E9 FFFFFE66                     	JMP	L20
   284 000002D7                                 L39:
   285 000002D7 83 7D C4 00                     	CMP	DWORD [-60+EBP],0
   286 000002DB 0F 84 FFFFFE53                  	JE	L15
   287 000002E1 85 F6                           	TEST	ESI,ESI
   288 000002E3 74 2C                           	JE	L16
   289 000002E5 6A 00                           	PUSH	0
   290 000002E7 53                              	PUSH	EBX
   291 000002E8 FF 75 D4                        	PUSH	DWORD [-44+EBP]
   292 000002EB E8 [00000000]                   	CALL	_timer_init
   293 000002F0 83 C4 0C                        	ADD	ESP,12
   294 000002F3 83 7D D0 00                     	CMP	DWORD [-48+EBP],0
   295 000002F7 78 07                           	JS	L18
   296 000002F9 C7 45 D0 00000007               	MOV	DWORD [-48+EBP],7
   297 00000300                                 L18:
   298 00000300 6A 32                           	PUSH	50
   299 00000302 FF 75 D4                        	PUSH	DWORD [-44+EBP]
   300 00000305 E8 [00000000]                   	CALL	_timer_settime
   301 0000030A 58                              	POP	EAX
   302 0000030B 5A                              	POP	EDX
   303 0000030C E9 FFFFFE23                     	JMP	L15
   304 00000311                                 L16:
   305 00000311 6A 01                           	PUSH	1
   306 00000313 53                              	PUSH	EBX
   307 00000314 FF 75 D4                        	PUSH	DWORD [-44+EBP]
   308 00000317 E8 [00000000]                   	CALL	_timer_init
   309 0000031C 83 C4 0C                        	ADD	ESP,12
   310 0000031F 83 7D D0 00                     	CMP	DWORD [-48+EBP],0
   311 00000323 78 DB                           	JS	L18
   312 00000325 C7 45 D0 00000000               	MOV	DWORD [-48+EBP],0
   313 0000032C EB D2                           	JMP	L18
   314 0000032E                                 L38:
   315 0000032E 57                              	PUSH	EDI
   316 0000032F E8 [00000000]                   	CALL	_task_sleep
   317 00000334 E8 [00000000]                   	CALL	_io_sti
   318 00000339 5B                              	POP	EBX
   319 0000033A E9 FFFFFDC7                     	JMP	L10
   320                                          [SECTION .data]
   321 00000000                                 LC0:
   322 00000000 20 00                           	DB	" ",0x00
   323                                          [SECTION .text]
   324 0000033F                                 	GLOBAL	_cons_putchar
   325 0000033F                                 _cons_putchar:
   326 0000033F 55                              	PUSH	EBP
   327 00000340 89 E5                           	MOV	EBP,ESP
   328 00000342 53                              	PUSH	EBX
   329 00000343 50                              	PUSH	EAX
   330 00000344 8B 45 0C                        	MOV	EAX,DWORD [12+EBP]
   331 00000347 8A 55 10                        	MOV	DL,BYTE [16+EBP]
   332 0000034A 8B 5D 08                        	MOV	EBX,DWORD [8+EBP]
   333 0000034D 88 55 F9                        	MOV	BYTE [-7+EBP],DL
   334 00000350 88 45 FA                        	MOV	BYTE [-6+EBP],AL
   335 00000353 3C 09                           	CMP	AL,9
   336 00000355 C6 45 FB 00                     	MOV	BYTE [-5+EBP],0
   337 00000359 74 4D                           	JE	L47
   338 0000035B 3C 0A                           	CMP	AL,10
   339 0000035D 74 25                           	JE	L61
   340 0000035F 3C 0D                           	CMP	AL,13
   341 00000361 74 1C                           	JE	L45
   342 00000363 8B 13                           	MOV	EDX,DWORD [EBX]
   343 00000365 85 D2                           	TEST	EDX,EDX
   344 00000367 75 24                           	JNE	L62
   345 00000369                                 L58:
   346 00000369 80 7D F9 00                     	CMP	BYTE [-7+EBP],0
   347 0000036D 74 10                           	JE	L45
   348 0000036F 8B 43 04                        	MOV	EAX,DWORD [4+EBX]
   349 00000372 83 C0 08                        	ADD	EAX,8
   350 00000375 89 43 04                        	MOV	DWORD [4+EBX],EAX
   351 00000378 3D 000000F8                     	CMP	EAX,248
   352 0000037D 74 05                           	JE	L61
   353 0000037F                                 L45:
   354 0000037F 8B 5D FC                        	MOV	EBX,DWORD [-4+EBP]
   355 00000382 C9                              	LEAVE
   356 00000383 C3                              	RET
   357 00000384                                 L61:
   358 00000384 53                              	PUSH	EBX
   359 00000385 E8 00000066                     	CALL	_cons_newline
   360 0000038A 59                              	POP	ECX
   361 0000038B EB F2                           	JMP	L45
   362 0000038D                                 L62:
   363 0000038D 6A 01                           	PUSH	1
   364 0000038F 8D 45 FA                        	LEA	EAX,DWORD [-6+EBP]
   365 00000392 50                              	PUSH	EAX
   366 00000393 6A 00                           	PUSH	0
   367 00000395 6A 07                           	PUSH	7
   368 00000397 FF 73 08                        	PUSH	DWORD [8+EBX]
   369 0000039A FF 73 04                        	PUSH	DWORD [4+EBX]
   370 0000039D 52                              	PUSH	EDX
   371 0000039E E8 [00000000]                   	CALL	_putfonts8_asc_sht
   372 000003A3 83 C4 1C                        	ADD	ESP,28
   373 000003A6 EB C1                           	JMP	L58
   374 000003A8                                 L47:
   375 000003A8 8B 03                           	MOV	EAX,DWORD [EBX]
   376 000003AA 85 C0                           	TEST	EAX,EAX
   377 000003AC 75 26                           	JNE	L63
   378 000003AE                                 L50:
   379 000003AE 8B 43 04                        	MOV	EAX,DWORD [4+EBX]
   380 000003B1 83 C0 08                        	ADD	EAX,8
   381 000003B4 89 43 04                        	MOV	DWORD [4+EBX],EAX
   382 000003B7 3D 000000F8                     	CMP	EAX,248
   383 000003BC 74 0D                           	JE	L64
   384 000003BE                                 L51:
   385 000003BE 8B 43 04                        	MOV	EAX,DWORD [4+EBX]
   386 000003C1 83 E8 08                        	SUB	EAX,8
   387 000003C4 83 E0 1F                        	AND	EAX,31
   388 000003C7 75 DF                           	JNE	L47
   389 000003C9 EB B4                           	JMP	L45
   390 000003CB                                 L64:
   391 000003CB 53                              	PUSH	EBX
   392 000003CC E8 0000001F                     	CALL	_cons_newline
   393 000003D1 58                              	POP	EAX
   394 000003D2 EB EA                           	JMP	L51
   395 000003D4                                 L63:
   396 000003D4 6A 01                           	PUSH	1
   397 000003D6 68 [00000000]                   	PUSH	LC0
   398 000003DB 6A 00                           	PUSH	0
   399 000003DD 6A 07                           	PUSH	7
   400 000003DF FF 73 08                        	PUSH	DWORD [8+EBX]
   401 000003E2 FF 73 04                        	PUSH	DWORD [4+EBX]
   402 000003E5 50                              	PUSH	EAX
   403 000003E6 E8 [00000000]                   	CALL	_putfonts8_asc_sht
   404 000003EB 83 C4 1C                        	ADD	ESP,28
   405 000003EE EB BE                           	JMP	L50
   406 000003F0                                 	GLOBAL	_cons_newline
   407 000003F0                                 _cons_newline:
   408 000003F0 55                              	PUSH	EBP
   409 000003F1 89 E5                           	MOV	EBP,ESP
   410 000003F3 57                              	PUSH	EDI
   411 000003F4 56                              	PUSH	ESI
   412 000003F5 53                              	PUSH	EBX
   413 000003F6 50                              	PUSH	EAX
   414 000003F7 50                              	PUSH	EAX
   415 000003F8 8B 45 08                        	MOV	EAX,DWORD [8+EBP]
   416 000003FB 8B 00                           	MOV	EAX,DWORD [EAX]
   417 000003FD 89 45 F0                        	MOV	DWORD [-16+EBP],EAX
   418 00000400 E8 [00000000]                   	CALL	_task_now
   419 00000405 8B 55 08                        	MOV	EDX,DWORD [8+EBP]
   420 00000408 89 45 EC                        	MOV	DWORD [-20+EBP],EAX
   421 0000040B 8B 42 08                        	MOV	EAX,DWORD [8+EDX]
   422 0000040E 3D 0000008B                     	CMP	EAX,139
   423 00000413 7F 36                           	JG	L66
   424 00000415 83 C0 10                        	ADD	EAX,16
   425 00000418 89 42 08                        	MOV	DWORD [8+EDX],EAX
   426 0000041B                                 L67:
   427 0000041B 8B 45 08                        	MOV	EAX,DWORD [8+EBP]
   428 0000041E 8B 55 EC                        	MOV	EDX,DWORD [-20+EBP]
   429 00000421 C7 40 04 00000008               	MOV	DWORD [4+EAX],8
   430 00000428 80 BA 000000CC 01               	CMP	BYTE [204+EDX],1
   431 0000042F 74 08                           	JE	L98
   432 00000431                                 L65:
   433 00000431 8D 65 F4                        	LEA	ESP,DWORD [-12+EBP]
   434 00000434 5B                              	POP	EBX
   435 00000435 5E                              	POP	ESI
   436 00000436 5F                              	POP	EDI
   437 00000437 5D                              	POP	EBP
   438 00000438 C3                              	RET
   439 00000439                                 L98:
   440 00000439 80 BA 000000CD 00               	CMP	BYTE [205+EDX],0
   441 00000440 74 EF                           	JE	L65
   442 00000442 C7 40 04 00000010               	MOV	DWORD [4+EAX],16
   443 00000449 EB E6                           	JMP	L65
   444 0000044B                                 L66:
   445 0000044B 83 7D F0 00                     	CMP	DWORD [-16+EBP],0
   446 0000044F 74 CA                           	JE	L67
   447 00000451 BF 0000001C                     	MOV	EDI,28
   448 00000456                                 L78:
   449 00000456 BE 00000008                     	MOV	ESI,8
   450 0000045B                                 L77:
   451 0000045B 8B 45 F0                        	MOV	EAX,DWORD [-16+EBP]
   452 0000045E 89 FA                           	MOV	EDX,EDI
   453 00000460 8B 48 04                        	MOV	ECX,DWORD [4+EAX]
   454 00000463 8B 18                           	MOV	EBX,DWORD [EAX]
   455 00000465 8D 47 10                        	LEA	EAX,DWORD [16+EDI]
   456 00000468 0F AF C1                        	IMUL	EAX,ECX
   457 0000046B 0F AF D1                        	IMUL	EDX,ECX
   458 0000046E 8D 04 30                        	LEA	EAX,DWORD [EAX+ESI*1]
   459 00000471 8D 14 32                        	LEA	EDX,DWORD [EDX+ESI*1]
   460 00000474 46                              	INC	ESI
   461 00000475 8A 04 18                        	MOV	AL,BYTE [EAX+EBX*1]
   462 00000478 81 FE 000000F7                  	CMP	ESI,247
   463 0000047E 88 04 1A                        	MOV	BYTE [EDX+EBX*1],AL
   464 00000481 7E D8                           	JLE	L77
   465 00000483 47                              	INC	EDI
   466 00000484 81 FF 0000008B                  	CMP	EDI,139
   467 0000048A 7E CA                           	JLE	L78
   468 0000048C BF 0000008C                     	MOV	EDI,140
   469 00000491                                 L88:
   470 00000491 BE 00000008                     	MOV	ESI,8
   471 00000496                                 L87:
   472 00000496 8B 55 F0                        	MOV	EDX,DWORD [-16+EBP]
   473 00000499 89 F8                           	MOV	EAX,EDI
   474 0000049B 89 D1                           	MOV	ECX,EDX
   475 0000049D 0F AF 42 04                     	IMUL	EAX,DWORD [4+EDX]
   476 000004A1 8B 12                           	MOV	EDX,DWORD [EDX]
   477 000004A3 8D 04 30                        	LEA	EAX,DWORD [EAX+ESI*1]
   478 000004A6 46                              	INC	ESI
   479 000004A7 81 FE 000000F7                  	CMP	ESI,247
   480 000004AD C6 04 10 00                     	MOV	BYTE [EAX+EDX*1],0
   481 000004B1 7E E3                           	JLE	L87
   482 000004B3 47                              	INC	EDI
   483 000004B4 81 FF 0000009B                  	CMP	EDI,155
   484 000004BA 7E D5                           	JLE	L88
   485 000004BC 68 0000009C                     	PUSH	156
   486 000004C1 68 000000F8                     	PUSH	248
   487 000004C6 6A 1C                           	PUSH	28
   488 000004C8 6A 08                           	PUSH	8
   489 000004CA 51                              	PUSH	ECX
   490 000004CB E8 [00000000]                   	CALL	_sheet_refresh
   491 000004D0 83 C4 14                        	ADD	ESP,20
   492 000004D3 E9 FFFFFF43                     	JMP	L67
   493 000004D8                                 	GLOBAL	_cons_putstr0
   494 000004D8                                 _cons_putstr0:
   495 000004D8 55                              	PUSH	EBP
   496 000004D9 89 E5                           	MOV	EBP,ESP
   497 000004DB 56                              	PUSH	ESI
   498 000004DC 53                              	PUSH	EBX
   499 000004DD 8B 5D 0C                        	MOV	EBX,DWORD [12+EBP]
   500 000004E0 8B 75 08                        	MOV	ESI,DWORD [8+EBP]
   501 000004E3 80 3B 00                        	CMP	BYTE [EBX],0
   502 000004E6 75 07                           	JNE	L104
   503 000004E8                                 L106:
   504 000004E8 8D 65 F8                        	LEA	ESP,DWORD [-8+EBP]
   505 000004EB 5B                              	POP	EBX
   506 000004EC 5E                              	POP	ESI
   507 000004ED 5D                              	POP	EBP
   508 000004EE C3                              	RET
   509 000004EF                                 L104:
   510 000004EF 6A 01                           	PUSH	1
   511 000004F1 0F BE 03                        	MOVSX	EAX,BYTE [EBX]
   512 000004F4 50                              	PUSH	EAX
   513 000004F5 43                              	INC	EBX
   514 000004F6 56                              	PUSH	ESI
   515 000004F7 E8 FFFFFE43                     	CALL	_cons_putchar
   516 000004FC 83 C4 0C                        	ADD	ESP,12
   517 000004FF 80 3B 00                        	CMP	BYTE [EBX],0
   518 00000502 75 EB                           	JNE	L104
   519 00000504 EB E2                           	JMP	L106
   520 00000506                                 	GLOBAL	_cons_putstr1
   521 00000506                                 _cons_putstr1:
   522 00000506 55                              	PUSH	EBP
   523 00000507 89 E5                           	MOV	EBP,ESP
   524 00000509 57                              	PUSH	EDI
   525 0000050A 56                              	PUSH	ESI
   526 0000050B 53                              	PUSH	EBX
   527 0000050C 8B 75 10                        	MOV	ESI,DWORD [16+EBP]
   528 0000050F 31 DB                           	XOR	EBX,EBX
   529 00000511 8B 7D 0C                        	MOV	EDI,DWORD [12+EBP]
   530 00000514 39 F3                           	CMP	EBX,ESI
   531 00000516 7C 08                           	JL	L112
   532 00000518                                 L114:
   533 00000518 8D 65 F4                        	LEA	ESP,DWORD [-12+EBP]
   534 0000051B 5B                              	POP	EBX
   535 0000051C 5E                              	POP	ESI
   536 0000051D 5F                              	POP	EDI
   537 0000051E 5D                              	POP	EBP
   538 0000051F C3                              	RET
   539 00000520                                 L112:
   540 00000520 6A 01                           	PUSH	1
   541 00000522 0F BE 04 3B                     	MOVSX	EAX,BYTE [EBX+EDI*1]
   542 00000526 50                              	PUSH	EAX
   543 00000527 43                              	INC	EBX
   544 00000528 FF 75 08                        	PUSH	DWORD [8+EBP]
   545 0000052B E8 FFFFFE0F                     	CALL	_cons_putchar
   546 00000530 83 C4 0C                        	ADD	ESP,12
   547 00000533 39 F3                           	CMP	EBX,ESI
   548 00000535 7C E9                           	JL	L112
   549 00000537 EB DF                           	JMP	L114
   550                                          [SECTION .data]
   551 00000002                                 LC1:
   552 00000002 6D 65 6D 00                     	DB	"mem",0x00
   553 00000006                                 LC2:
   554 00000006 63 6C 73 00                     	DB	"cls",0x00
   555 0000000A                                 LC3:
   556 0000000A 64 69 72 00                     	DB	"dir",0x00
   557 0000000E                                 LC4:
   558 0000000E 65 78 69 74 00                  	DB	"exit",0x00
   559 00000013                                 LC5:
   560 00000013 73 74 61 72 74 20 00            	DB	"start ",0x00
   561 0000001A                                 LC6:
   562 0000001A 6E 63 73 74 20 00               	DB	"ncst ",0x00
   563 00000020                                 LC7:
   564 00000020 6C 61 6E 67 6D 6F 64 65 20 00   	DB	"langmode ",0x00
   565 0000002A                                 LC8:
   566 0000002A 72 65 6C 6F 61 64 00            	DB	"reload",0x00
   567 00000031                                 LC9:
   568 00000031 73 68 75 74 64 6F 77 6E 00      	DB	"shutdown",0x00
   569 0000003A                                 LC10:
   570 0000003A 72 64 72 61 6E 64 00            	DB	"rdrand",0x00
   571 00000041                                 LC11:
   572 00000041 42 61 64 20 63 6F 6D 6D 61 6E   	DB	"Bad command0.",0x0A,0x0A,0x00
       0000004B 64 30 2E 0A 0A 00 
   573                                          [SECTION .text]
   574 00000539                                 	GLOBAL	_cons_runcmd
   575 00000539                                 _cons_runcmd:
   576 00000539 55                              	PUSH	EBP
   577 0000053A 89 E5                           	MOV	EBP,ESP
   578 0000053C 57                              	PUSH	EDI
   579 0000053D 56                              	PUSH	ESI
   580 0000053E BF [00000002]                   	MOV	EDI,LC1
   581 00000543 53                              	PUSH	EBX
   582 00000544 83 EC 0C                        	SUB	ESP,12
   583 00000547 8B 45 08                        	MOV	EAX,DWORD [8+EBP]
   584 0000054A 8B 4D 10                        	MOV	ECX,DWORD [16+EBP]
   585 0000054D 89 45 E8                        	MOV	DWORD [-24+EBP],EAX
   586 00000550 89 4D F0                        	MOV	DWORD [-16+EBP],ECX
   587 00000553 8B 45 14                        	MOV	EAX,DWORD [20+EBP]
   588 00000556 8B 75 E8                        	MOV	ESI,DWORD [-24+EBP]
   589 00000559 89 45 EC                        	MOV	DWORD [-20+EBP],EAX
   590 0000055C 8B 5D 0C                        	MOV	EBX,DWORD [12+EBP]
   591 0000055F B8 00000004                     	MOV	EAX,4
   592 00000564 FC                              	CLD
   593 00000565 89 C1                           	MOV	ECX,EAX
   594 00000567 F3                              	REPE
   595 00000568 A6                              	CMPSB
   596 00000569 75 09                           	JNE	L116
   597 0000056B 83 3B 00                        	CMP	DWORD [EBX],0
   598 0000056E 0F 85 000001CA                  	JNE	L138
   599 00000574                                 L116:
   600 00000574 B8 00000004                     	MOV	EAX,4
   601 00000579 8B 75 E8                        	MOV	ESI,DWORD [-24+EBP]
   602 0000057C FC                              	CLD
   603 0000057D BF [00000006]                   	MOV	EDI,LC2
   604 00000582 89 C1                           	MOV	ECX,EAX
   605 00000584 F3                              	REPE
   606 00000585 A6                              	CMPSB
   607 00000586 75 09                           	JNE	L118
   608 00000588 83 3B 00                        	CMP	DWORD [EBX],0
   609 0000058B 0F 85 0000019E                  	JNE	L139
   610 00000591                                 L118:
   611 00000591 B8 00000004                     	MOV	EAX,4
   612 00000596 8B 75 E8                        	MOV	ESI,DWORD [-24+EBP]
   613 00000599 FC                              	CLD
   614 0000059A BF [0000000A]                   	MOV	EDI,LC3
   615 0000059F 89 C1                           	MOV	ECX,EAX
   616 000005A1 F3                              	REPE
   617 000005A2 A6                              	CMPSB
   618 000005A3 75 09                           	JNE	L120
   619 000005A5 83 3B 00                        	CMP	DWORD [EBX],0
   620 000005A8 0F 85 00000172                  	JNE	L140
   621 000005AE                                 L120:
   622 000005AE B8 00000005                     	MOV	EAX,5
   623 000005B3 8B 75 E8                        	MOV	ESI,DWORD [-24+EBP]
   624 000005B6 FC                              	CLD
   625 000005B7 BF [0000000E]                   	MOV	EDI,LC4
   626 000005BC 89 C1                           	MOV	ECX,EAX
   627 000005BE F3                              	REPE
   628 000005BF A6                              	CMPSB
   629 000005C0 0F 84 00000145                  	JE	L141
   630 000005C6 B8 00000006                     	MOV	EAX,6
   631 000005CB 8B 75 E8                        	MOV	ESI,DWORD [-24+EBP]
   632 000005CE FC                              	CLD
   633 000005CF BF [00000013]                   	MOV	EDI,LC5
   634 000005D4 89 C1                           	MOV	ECX,EAX
   635 000005D6 F3                              	REPE
   636 000005D7 A6                              	CMPSB
   637 000005D8 0F 84 00000112                  	JE	L142
   638 000005DE B8 00000005                     	MOV	EAX,5
   639 000005E3 8B 75 E8                        	MOV	ESI,DWORD [-24+EBP]
   640 000005E6 FC                              	CLD
   641 000005E7 BF [0000001A]                   	MOV	EDI,LC6
   642 000005EC 89 C1                           	MOV	ECX,EAX
   643 000005EE F3                              	REPE
   644 000005EF A6                              	CMPSB
   645 000005F0 0F 84 000000DF                  	JE	L143
   646 000005F6 B8 00000009                     	MOV	EAX,9
   647 000005FB 8B 75 E8                        	MOV	ESI,DWORD [-24+EBP]
   648 000005FE FC                              	CLD
   649 000005FF BF [00000020]                   	MOV	EDI,LC7
   650 00000604 89 C1                           	MOV	ECX,EAX
   651 00000606 F3                              	REPE
   652 00000607 A6                              	CMPSB
   653 00000608 0F 84 000000B2                  	JE	L144
   654 0000060E B8 00000007                     	MOV	EAX,7
   655 00000613 8B 75 E8                        	MOV	ESI,DWORD [-24+EBP]
   656 00000616 FC                              	CLD
   657 00000617 BF [0000002A]                   	MOV	EDI,LC8
   658 0000061C 89 C1                           	MOV	ECX,EAX
   659 0000061E F3                              	REPE
   660 0000061F A6                              	CMPSB
   661 00000620 0F 84 0000008E                  	JE	L145
   662 00000626 B8 00000009                     	MOV	EAX,9
   663 0000062B 8B 75 E8                        	MOV	ESI,DWORD [-24+EBP]
   664 0000062E FC                              	CLD
   665 0000062F BF [00000031]                   	MOV	EDI,LC9
   666 00000634 89 C1                           	MOV	ECX,EAX
   667 00000636 F3                              	REPE
   668 00000637 A6                              	CMPSB
   669 00000638 74 60                           	JE	L146
   670 0000063A B8 00000007                     	MOV	EAX,7
   671 0000063F 8B 75 E8                        	MOV	ESI,DWORD [-24+EBP]
   672 00000642 FC                              	CLD
   673 00000643 BF [0000003A]                   	MOV	EDI,LC10
   674 00000648 89 C1                           	MOV	ECX,EAX
   675 0000064A F3                              	REPE
   676 0000064B A6                              	CMPSB
   677 0000064C 74 37                           	JE	L147
   678 0000064E 8B 4D E8                        	MOV	ECX,DWORD [-24+EBP]
   679 00000651 80 39 00                        	CMP	BYTE [ECX],0
   680 00000654 75 08                           	JNE	L148
   681 00000656                                 L115:
   682 00000656 8D 65 F4                        	LEA	ESP,DWORD [-12+EBP]
   683 00000659 5B                              	POP	EBX
   684 0000065A 5E                              	POP	ESI
   685 0000065B 5F                              	POP	EDI
   686 0000065C 5D                              	POP	EBP
   687 0000065D C3                              	RET
   688 0000065E                                 L148:
   689 0000065E 51                              	PUSH	ECX
   690 0000065F FF 75 F0                        	PUSH	DWORD [-16+EBP]
   691 00000662 53                              	PUSH	EBX
   692 00000663 E8 0000047C                     	CALL	_cmd_app
   693 00000668 83 C4 0C                        	ADD	ESP,12
   694 0000066B 85 C0                           	TEST	EAX,EAX
   695 0000066D 75 E7                           	JNE	L115
   696 0000066F C7 45 0C [00000041]             	MOV	DWORD [12+EBP],LC11
   697 00000676 89 5D 08                        	MOV	DWORD [8+EBP],EBX
   698 00000679 8D 65 F4                        	LEA	ESP,DWORD [-12+EBP]
   699 0000067C 5B                              	POP	EBX
   700 0000067D 5E                              	POP	ESI
   701 0000067E 5F                              	POP	EDI
   702 0000067F 5D                              	POP	EBP
   703 00000680 E9 FFFFFE53                     	JMP	_cons_putstr0
   704 00000685                                 L147:
   705 00000685 8B 45 E8                        	MOV	EAX,DWORD [-24+EBP]
   706 00000688 89 5D 08                        	MOV	DWORD [8+EBP],EBX
   707 0000068B 89 45 0C                        	MOV	DWORD [12+EBP],EAX
   708 0000068E 8D 65 F4                        	LEA	ESP,DWORD [-12+EBP]
   709 00000691 5B                              	POP	EBX
   710 00000692 5E                              	POP	ESI
   711 00000693 5F                              	POP	EDI
   712 00000694 5D                              	POP	EBP
   713 00000695 E9 000000B6                     	JMP	_cmd_rdrand
   714 0000069A                                 L146:
   715 0000069A C7 45 0C 0000003C               	MOV	DWORD [12+EBP],60
   716 000006A1 C7 45 08 00000805               	MOV	DWORD [8+EBP],2053
   717 000006A8 8D 65 F4                        	LEA	ESP,DWORD [-12+EBP]
   718 000006AB 5B                              	POP	EBX
   719 000006AC 5E                              	POP	ESI
   720 000006AD 5F                              	POP	EDI
   721 000006AE 5D                              	POP	EBP
   722 000006AF E9 [00000000]                   	JMP	_io_out8
   723 000006B4                                 L145:
   724 000006B4 8D 65 F4                        	LEA	ESP,DWORD [-12+EBP]
   725 000006B7 5B                              	POP	EBX
   726 000006B8 5E                              	POP	ESI
   727 000006B9 5F                              	POP	EDI
   728 000006BA 5D                              	POP	EBP
   729 000006BB E9 [00000000]                   	JMP	_sys_reboot
   730 000006C0                                 L144:
   731 000006C0 8B 45 E8                        	MOV	EAX,DWORD [-24+EBP]
   732 000006C3 89 5D 08                        	MOV	DWORD [8+EBP],EBX
   733 000006C6 89 45 0C                        	MOV	DWORD [12+EBP],EAX
   734 000006C9 8D 65 F4                        	LEA	ESP,DWORD [-12+EBP]
   735 000006CC 5B                              	POP	EBX
   736 000006CD 5E                              	POP	ESI
   737 000006CE 5F                              	POP	EDI
   738 000006CF 5D                              	POP	EBP
   739 000006D0 E9 000003D1                     	JMP	_cmd_langmode
   740 000006D5                                 L143:
   741 000006D5 8B 45 EC                        	MOV	EAX,DWORD [-20+EBP]
   742 000006D8 8B 4D E8                        	MOV	ECX,DWORD [-24+EBP]
   743 000006DB 89 45 10                        	MOV	DWORD [16+EBP],EAX
   744 000006DE 89 4D 0C                        	MOV	DWORD [12+EBP],ECX
   745 000006E1 89 5D 08                        	MOV	DWORD [8+EBP],EBX
   746 000006E4 8D 65 F4                        	LEA	ESP,DWORD [-12+EBP]
   747 000006E7 5B                              	POP	EBX
   748 000006E8 5E                              	POP	ESI
   749 000006E9 5F                              	POP	EDI
   750 000006EA 5D                              	POP	EBP
   751 000006EB E9 00000352                     	JMP	_cmd_ncst
   752 000006F0                                 L142:
   753 000006F0 8B 45 EC                        	MOV	EAX,DWORD [-20+EBP]
   754 000006F3 8B 4D E8                        	MOV	ECX,DWORD [-24+EBP]
   755 000006F6 89 45 10                        	MOV	DWORD [16+EBP],EAX
   756 000006F9 89 4D 0C                        	MOV	DWORD [12+EBP],ECX
   757 000006FC 89 5D 08                        	MOV	DWORD [8+EBP],EBX
   758 000006FF 8D 65 F4                        	LEA	ESP,DWORD [-12+EBP]
   759 00000702 5B                              	POP	EBX
   760 00000703 5E                              	POP	ESI
   761 00000704 5F                              	POP	EDI
   762 00000705 5D                              	POP	EBP
   763 00000706 E9 000002AD                     	JMP	_cmd_start
   764 0000070B                                 L141:
   765 0000070B 8B 45 F0                        	MOV	EAX,DWORD [-16+EBP]
   766 0000070E 89 5D 08                        	MOV	DWORD [8+EBP],EBX
   767 00000711 89 45 0C                        	MOV	DWORD [12+EBP],EAX
   768 00000714 8D 65 F4                        	LEA	ESP,DWORD [-12+EBP]
   769 00000717 5B                              	POP	EBX
   770 00000718 5E                              	POP	ESI
   771 00000719 5F                              	POP	EDI
   772 0000071A 5D                              	POP	EBP
   773 0000071B E9 000001B5                     	JMP	_cmd_exit
   774 00000720                                 L140:
   775 00000720 89 5D 08                        	MOV	DWORD [8+EBP],EBX
   776 00000723 8D 65 F4                        	LEA	ESP,DWORD [-12+EBP]
   777 00000726 5B                              	POP	EBX
   778 00000727 5E                              	POP	ESI
   779 00000728 5F                              	POP	EDI
   780 00000729 5D                              	POP	EBP
   781 0000072A E9 00000110                     	JMP	_cmd_dir
   782 0000072F                                 L139:
   783 0000072F 89 5D 08                        	MOV	DWORD [8+EBP],EBX
   784 00000732 8D 65 F4                        	LEA	ESP,DWORD [-12+EBP]
   785 00000735 5B                              	POP	EBX
   786 00000736 5E                              	POP	ESI
   787 00000737 5F                              	POP	EDI
   788 00000738 5D                              	POP	EBP
   789 00000739 E9 000000A8                     	JMP	_cmd_cls
   790 0000073E                                 L138:
   791 0000073E 8B 45 EC                        	MOV	EAX,DWORD [-20+EBP]
   792 00000741 89 5D 08                        	MOV	DWORD [8+EBP],EBX
   793 00000744 89 45 0C                        	MOV	DWORD [12+EBP],EAX
   794 00000747 8D 65 F4                        	LEA	ESP,DWORD [-12+EBP]
   795 0000074A 5B                              	POP	EBX
   796 0000074B 5E                              	POP	ESI
   797 0000074C 5F                              	POP	EDI
   798 0000074D 5D                              	POP	EBP
   799 0000074E EB 2A                           	JMP	_cmd_mem
   800                                          [SECTION .data]
   801 00000051                                 LC12:
   802 00000051 72 64 72 61 6E 64 20 69 73 20   	DB	"rdrand is %d %x",0x0A,0x00
       0000005B 25 64 20 25 78 0A 00 
   803                                          [SECTION .text]
   804 00000750                                 	GLOBAL	_cmd_rdrand
   805 00000750                                 _cmd_rdrand:
   806 00000750 55                              	PUSH	EBP
   807 00000751 89 E5                           	MOV	EBP,ESP
   808 00000753 53                              	PUSH	EBX
   809 00000754 83 EC 40                        	SUB	ESP,64
   810 00000757 8D 5D BC                        	LEA	EBX,DWORD [-68+EBP]
   811 0000075A E8 [00000000]                   	CALL	_rdrand
   812 0000075F 50                              	PUSH	EAX
   813 00000760 50                              	PUSH	EAX
   814 00000761 68 [00000051]                   	PUSH	LC12
   815 00000766 53                              	PUSH	EBX
   816 00000767 E8 [00000000]                   	CALL	_sprintf
   817 0000076C 53                              	PUSH	EBX
   818 0000076D FF 75 08                        	PUSH	DWORD [8+EBP]
   819 00000770 E8 FFFFFD63                     	CALL	_cons_putstr0
   820 00000775 8B 5D FC                        	MOV	EBX,DWORD [-4+EBP]
   821 00000778 C9                              	LEAVE
   822 00000779 C3                              	RET
   823                                          [SECTION .data]
   824 00000062                                 LC13:
   825 00000062 74 6F 74 61 6C 20 20 20 25 64   	DB	"total   %dMB",0x0A,"free %dKB",0x0A,0x0A,0x00
       0000006C 4D 42 0A 66 72 65 65 20 25 64 
       00000076 4B 42 0A 0A 00 
   826 0000007B                                 LC14:
   827 0000007B 74 5F 70 3A 20 25 64 20 6C 5F   	DB	"t_p: %d l_p: %d",0x0A,0x0A,0x00
       00000085 70 3A 20 25 64 0A 0A 00 
   828                                          [SECTION .text]
   829 0000077A                                 	GLOBAL	_cmd_mem
   830 0000077A                                 _cmd_mem:
   831 0000077A 55                              	PUSH	EBP
   832 0000077B 89 E5                           	MOV	EBP,ESP
   833 0000077D 56                              	PUSH	ESI
   834 0000077E 53                              	PUSH	EBX
   835 0000077F 83 EC 40                        	SUB	ESP,64
   836 00000782 8B 75 08                        	MOV	ESI,DWORD [8+EBP]
   837 00000785 E8 [00000000]                   	CALL	_task_now
   838 0000078A FF B0 00000104                  	PUSH	DWORD [260+EAX]
   839 00000790 E8 [00000000]                   	CALL	_memman_total
   840 00000795 BA 00100000                     	MOV	EDX,1048576
   841 0000079A C1 E8 0A                        	SHR	EAX,10
   842 0000079D 89 D3                           	MOV	EBX,EDX
   843 0000079F 89 04 24                        	MOV	DWORD [ESP],EAX
   844 000007A2 8B 45 0C                        	MOV	EAX,DWORD [12+EBP]
   845 000007A5 99                              	CDQ
   846 000007A6 F7 FB                           	IDIV	EBX
   847 000007A8 50                              	PUSH	EAX
   848 000007A9 8D 5D B8                        	LEA	EBX,DWORD [-72+EBP]
   849 000007AC 68 [00000062]                   	PUSH	LC13
   850 000007B1 53                              	PUSH	EBX
   851 000007B2 E8 [00000000]                   	CALL	_sprintf
   852 000007B7 53                              	PUSH	EBX
   853 000007B8 56                              	PUSH	ESI
   854 000007B9 E8 FFFFFD1A                     	CALL	_cons_putstr0
   855 000007BE FF 35 0026F00C                  	PUSH	DWORD [2551820]
   856 000007C4 FF 35 0026F004                  	PUSH	DWORD [2551812]
   857 000007CA 68 [0000007B]                   	PUSH	LC14
   858 000007CF 53                              	PUSH	EBX
   859 000007D0 E8 [00000000]                   	CALL	_sprintf
   860 000007D5 83 C4 28                        	ADD	ESP,40
   861 000007D8 53                              	PUSH	EBX
   862 000007D9 56                              	PUSH	ESI
   863 000007DA E8 FFFFFCF9                     	CALL	_cons_putstr0
   864 000007DF 8D 65 F8                        	LEA	ESP,DWORD [-8+EBP]
   865 000007E2 5B                              	POP	EBX
   866 000007E3 5E                              	POP	ESI
   867 000007E4 5D                              	POP	EBP
   868 000007E5 C3                              	RET
   869 000007E6                                 	GLOBAL	_cmd_cls
   870 000007E6                                 _cmd_cls:
   871 000007E6 55                              	PUSH	EBP
   872 000007E7 89 E5                           	MOV	EBP,ESP
   873 000007E9 57                              	PUSH	EDI
   874 000007EA 56                              	PUSH	ESI
   875 000007EB BE 0000001C                     	MOV	ESI,28
   876 000007F0 8B 7D 08                        	MOV	EDI,DWORD [8+EBP]
   877 000007F3 53                              	PUSH	EBX
   878 000007F4 8B 1F                           	MOV	EBX,DWORD [EDI]
   879 000007F6                                 L161:
   880 000007F6 B9 00000008                     	MOV	ECX,8
   881 000007FB                                 L160:
   882 000007FB 89 F0                           	MOV	EAX,ESI
   883 000007FD 8B 13                           	MOV	EDX,DWORD [EBX]
   884 000007FF 0F AF 43 04                     	IMUL	EAX,DWORD [4+EBX]
   885 00000803 8D 04 08                        	LEA	EAX,DWORD [EAX+ECX*1]
   886 00000806 41                              	INC	ECX
   887 00000807 81 F9 000000F7                  	CMP	ECX,247
   888 0000080D C6 04 10 00                     	MOV	BYTE [EAX+EDX*1],0
   889 00000811 7E E8                           	JLE	L160
   890 00000813 46                              	INC	ESI
   891 00000814 81 FE 0000009B                  	CMP	ESI,155
   892 0000081A 7E DA                           	JLE	L161
   893 0000081C 68 0000009C                     	PUSH	156
   894 00000821 68 000000F8                     	PUSH	248
   895 00000826 6A 1C                           	PUSH	28
   896 00000828 6A 08                           	PUSH	8
   897 0000082A 53                              	PUSH	EBX
   898 0000082B E8 [00000000]                   	CALL	_sheet_refresh
   899 00000830 C7 47 08 0000001C               	MOV	DWORD [8+EDI],28
   900 00000837 8D 65 F4                        	LEA	ESP,DWORD [-12+EBP]
   901 0000083A 5B                              	POP	EBX
   902 0000083B 5E                              	POP	ESI
   903 0000083C 5F                              	POP	EDI
   904 0000083D 5D                              	POP	EBP
   905 0000083E C3                              	RET
   906                                          [SECTION .data]
   907 0000008D                                 LC15:
   908 0000008D 66 69 6C 65 6E 61 6D 65 2E 65   	DB	"filename.ext   %7d",0x0A,0x00
       00000097 78 74 20 20 20 25 37 64 0A 00 
   909                                          [SECTION .text]
   910 0000083F                                 	GLOBAL	_cmd_dir
   911 0000083F                                 _cmd_dir:
   912 0000083F 55                              	PUSH	EBP
   913 00000840 89 E5                           	MOV	EBP,ESP
   914 00000842 57                              	PUSH	EDI
   915 00000843 56                              	PUSH	ESI
   916 00000844 31 F6                           	XOR	ESI,ESI
   917 00000846 53                              	PUSH	EBX
   918 00000847 31 DB                           	XOR	EBX,EBX
   919 00000849 83 EC 20                        	SUB	ESP,32
   920 0000084C 8B 7D 08                        	MOV	EDI,DWORD [8+EBP]
   921 0000084F                                 L179:
   922 0000084F 8A 83 00102600                  	MOV	AL,BYTE [1058304+EBX]
   923 00000855 84 C0                           	TEST	AL,AL
   924 00000857 74 19                           	JE	L168
   925 00000859 3C E5                           	CMP	AL,-27
   926 0000085B 74 09                           	JE	L169
   927 0000085D F6 83 0010260B 18               	TEST	BYTE [1058315+EBX],24
   928 00000864 74 1A                           	JE	L183
   929 00000866                                 L169:
   930 00000866 46                              	INC	ESI
   931 00000867 83 C3 20                        	ADD	EBX,32
   932 0000086A 81 FE 000000DF                  	CMP	ESI,223
   933 00000870 7E DD                           	JLE	L179
   934 00000872                                 L168:
   935 00000872 57                              	PUSH	EDI
   936 00000873 E8 FFFFFB78                     	CALL	_cons_newline
   937 00000878 8D 65 F4                        	LEA	ESP,DWORD [-12+EBP]
   938 0000087B 5B                              	POP	EBX
   939 0000087C 5E                              	POP	ESI
   940 0000087D 5F                              	POP	EDI
   941 0000087E 5D                              	POP	EBP
   942 0000087F C3                              	RET
   943 00000880                                 L183:
   944 00000880 FF B3 0010261C                  	PUSH	DWORD [1058332+EBX]
   945 00000886 68 [0000008D]                   	PUSH	LC15
   946 0000088B 8D 45 D4                        	LEA	EAX,DWORD [-44+EBP]
   947 0000088E 50                              	PUSH	EAX
   948 0000088F E8 [00000000]                   	CALL	_sprintf
   949 00000894 8D 93 00102600                  	LEA	EDX,DWORD [1058304+EBX]
   950 0000089A 31 C9                           	XOR	ECX,ECX
   951 0000089C 83 C4 0C                        	ADD	ESP,12
   952 0000089F                                 L178:
   953 0000089F 8A 02                           	MOV	AL,BYTE [EDX]
   954 000008A1 42                              	INC	EDX
   955 000008A2 88 44 0D D4                     	MOV	BYTE [-44+EBP+ECX*1],AL
   956 000008A6 41                              	INC	ECX
   957 000008A7 83 F9 07                        	CMP	ECX,7
   958 000008AA 7E F3                           	JLE	L178
   959 000008AC 8A 83 00102608                  	MOV	AL,BYTE [1058312+EBX]
   960 000008B2 88 45 DD                        	MOV	BYTE [-35+EBP],AL
   961 000008B5 8A 83 00102609                  	MOV	AL,BYTE [1058313+EBX]
   962 000008BB 88 45 DE                        	MOV	BYTE [-34+EBP],AL
   963 000008BE 8A 83 0010260A                  	MOV	AL,BYTE [1058314+EBX]
   964 000008C4 88 45 DF                        	MOV	BYTE [-33+EBP],AL
   965 000008C7 8D 45 D4                        	LEA	EAX,DWORD [-44+EBP]
   966 000008CA 50                              	PUSH	EAX
   967 000008CB 57                              	PUSH	EDI
   968 000008CC E8 FFFFFC07                     	CALL	_cons_putstr0
   969 000008D1 58                              	POP	EAX
   970 000008D2 5A                              	POP	EDX
   971 000008D3 EB 91                           	JMP	L169
   972 000008D5                                 	GLOBAL	_cmd_exit
   973 000008D5                                 _cmd_exit:
   974 000008D5 55                              	PUSH	EBP
   975 000008D6 89 E5                           	MOV	EBP,ESP
   976 000008D8 57                              	PUSH	EDI
   977 000008D9 56                              	PUSH	ESI
   978 000008DA 53                              	PUSH	EBX
   979 000008DB 83 EC 14                        	SUB	ESP,20
   980 000008DE A1 0026F000                     	MOV	EAX,DWORD [2551808]
   981 000008E3 8B 7D 0C                        	MOV	EDI,DWORD [12+EBP]
   982 000008E6 89 45 F0                        	MOV	DWORD [-16+EBP],EAX
   983 000008E9 E8 [00000000]                   	CALL	_task_now
   984 000008EE 8B 80 00000104                  	MOV	EAX,DWORD [260+EAX]
   985 000008F4 89 45 EC                        	MOV	DWORD [-20+EBP],EAX
   986 000008F7 E8 [00000000]                   	CALL	_task_now
   987 000008FC 8B 15 00000FE4                  	MOV	EDX,DWORD [4068]
   988 00000902 89 55 E4                        	MOV	DWORD [-28+EBP],EDX
   989 00000905 89 45 E8                        	MOV	DWORD [-24+EBP],EAX
   990 00000908 8B 55 08                        	MOV	EDX,DWORD [8+EBP]
   991 0000090B A1 00000FEC                     	MOV	EAX,DWORD [4076]
   992 00000910 89 45 E0                        	MOV	DWORD [-32+EBP],EAX
   993 00000913 83 3A 00                        	CMP	DWORD [EDX],0
   994 00000916 74 09                           	JE	L185
   995 00000918 FF 72 10                        	PUSH	DWORD [16+EDX]
   996 0000091B E8 [00000000]                   	CALL	_timer_cancel
   997 00000920 58                              	POP	EAX
   998 00000921                                 L185:
   999 00000921 89 FB                           	MOV	EBX,EDI
  1000 00000923 8D B7 00002000                  	LEA	ESI,DWORD [8192+EDI]
  1001 00000929                                 L190:
  1002 00000929 6A 01                           	PUSH	1
  1003 0000092B 53                              	PUSH	EBX
  1004 0000092C 81 C3 00001000                  	ADD	EBX,4096
  1005 00000932 FF 75 F0                        	PUSH	DWORD [-16+EBP]
  1006 00000935 E8 [00000000]                   	CALL	_pageman_unlink_page_32
  1007 0000093A 50                              	PUSH	EAX
  1008 0000093B FF 75 F0                        	PUSH	DWORD [-16+EBP]
  1009 0000093E E8 [00000000]                   	CALL	_memman_free_page_32
  1010 00000943 83 C4 14                        	ADD	ESP,20
  1011 00000946 39 F3                           	CMP	EBX,ESI
  1012 00000948 7E DF                           	JLE	L190
  1013 0000094A 68 00002D00                     	PUSH	11520
  1014 0000094F 57                              	PUSH	EDI
  1015 00000950 FF 75 EC                        	PUSH	DWORD [-20+EBP]
  1016 00000953 E8 [00000000]                   	CALL	_memman_free_4k
  1017 00000958 E8 [00000000]                   	CALL	_io_cli
  1018 0000095D 8B 55 08                        	MOV	EDX,DWORD [8+EBP]
  1019 00000960 83 C4 0C                        	ADD	ESP,12
  1020 00000963 8B 02                           	MOV	EAX,DWORD [EDX]
  1021 00000965 85 C0                           	TEST	EAX,EAX
  1022 00000967 74 31                           	JE	L191
  1023 00000969 2B 45 E4                        	SUB	EAX,DWORD [-28+EBP]
  1024 0000096C 2D 00000414                     	SUB	EAX,1044
  1025 00000971 C1 F8 03                        	SAR	EAX,3
  1026 00000974 69 C0 CCCCCCCD                  	IMUL	EAX,EAX,-858993459
  1027 0000097A 05 00000300                     	ADD	EAX,768
  1028 0000097F                                 L198:
  1029 0000097F 50                              	PUSH	EAX
  1030 00000980 FF 75 E0                        	PUSH	DWORD [-32+EBP]
  1031 00000983 E8 [00000000]                   	CALL	_fifo32_put
  1032 00000988 5B                              	POP	EBX
  1033 00000989 5E                              	POP	ESI
  1034 0000098A E8 [00000000]                   	CALL	_io_sti
  1035 0000098F                                 L193:
  1036 0000098F FF 75 E8                        	PUSH	DWORD [-24+EBP]
  1037 00000992 E8 [00000000]                   	CALL	_task_sleep
  1038 00000997 59                              	POP	ECX
  1039 00000998 EB F5                           	JMP	L193
  1040 0000099A                                 L191:
  1041 0000099A 8B 45 E8                        	MOV	EAX,DWORD [-24+EBP]
  1042 0000099D 2B 05 [00000000]                	SUB	EAX,DWORD [_taskctl]
  1043 000009A3 2D 00000FF8                     	SUB	EAX,4088
  1044 000009A8 C1 F8 02                        	SAR	EAX,2
  1045 000009AB 69 C0 A33F128D                  	IMUL	EAX,EAX,-1556147571
  1046 000009B1 05 00000400                     	ADD	EAX,1024
  1047 000009B6 EB C7                           	JMP	L198
  1048 000009B8                                 	GLOBAL	_cmd_start
  1049 000009B8                                 _cmd_start:
  1050 000009B8 55                              	PUSH	EBP
  1051 000009B9 89 E5                           	MOV	EBP,ESP
  1052 000009BB 57                              	PUSH	EDI
  1053 000009BC 56                              	PUSH	ESI
  1054 000009BD 53                              	PUSH	EBX
  1055 000009BE 57                              	PUSH	EDI
  1056 000009BF 57                              	PUSH	EDI
  1057 000009C0 8B 45 08                        	MOV	EAX,DWORD [8+EBP]
  1058 000009C3 8B 7D 0C                        	MOV	EDI,DWORD [12+EBP]
  1059 000009C6 8B 35 00000FE4                  	MOV	ESI,DWORD [4068]
  1060 000009CC 89 45 F0                        	MOV	DWORD [-16+EBP],EAX
  1061 000009CF FF 75 10                        	PUSH	DWORD [16+EBP]
  1062 000009D2 56                              	PUSH	ESI
  1063 000009D3 E8 [00000000]                   	CALL	_open_console
  1064 000009D8 89 C3                           	MOV	EBX,EAX
  1065 000009DA 8B 40 24                        	MOV	EAX,DWORD [36+EAX]
  1066 000009DD 83 C0 10                        	ADD	EAX,16
  1067 000009E0 89 45 EC                        	MOV	DWORD [-20+EBP],EAX
  1068 000009E3 6A 04                           	PUSH	4
  1069 000009E5 6A 20                           	PUSH	32
  1070 000009E7 53                              	PUSH	EBX
  1071 000009E8 E8 [00000000]                   	CALL	_sheet_slide
  1072 000009ED FF 76 10                        	PUSH	DWORD [16+ESI]
  1073 000009F0 53                              	PUSH	EBX
  1074 000009F1 BB 00000006                     	MOV	EBX,6
  1075 000009F6 E8 [00000000]                   	CALL	_sheet_updown
  1076 000009FB 83 C4 1C                        	ADD	ESP,28
  1077 000009FE 80 7F 06 00                     	CMP	BYTE [6+EDI],0
  1078 00000A02 75 21                           	JNE	L204
  1079 00000A04                                 L206:
  1080 00000A04 68 0000010A                     	PUSH	266
  1081 00000A09 FF 75 EC                        	PUSH	DWORD [-20+EBP]
  1082 00000A0C E8 [00000000]                   	CALL	_fifo32_put
  1083 00000A11 58                              	POP	EAX
  1084 00000A12 8B 45 F0                        	MOV	EAX,DWORD [-16+EBP]
  1085 00000A15 5A                              	POP	EDX
  1086 00000A16 89 45 08                        	MOV	DWORD [8+EBP],EAX
  1087 00000A19 8D 65 F4                        	LEA	ESP,DWORD [-12+EBP]
  1088 00000A1C 5B                              	POP	EBX
  1089 00000A1D 5E                              	POP	ESI
  1090 00000A1E 5F                              	POP	EDI
  1091 00000A1F 5D                              	POP	EBP
  1092 00000A20 E9 FFFFF9CB                     	JMP	_cons_newline
  1093 00000A25                                 L204:
  1094 00000A25 0F BE 04 3B                     	MOVSX	EAX,BYTE [EBX+EDI*1]
  1095 00000A29 05 00000100                     	ADD	EAX,256
  1096 00000A2E 43                              	INC	EBX
  1097 00000A2F 50                              	PUSH	EAX
  1098 00000A30 FF 75 EC                        	PUSH	DWORD [-20+EBP]
  1099 00000A33 E8 [00000000]                   	CALL	_fifo32_put
  1100 00000A38 80 3C 3B 00                     	CMP	BYTE [EBX+EDI*1],0
  1101 00000A3C 59                              	POP	ECX
  1102 00000A3D 5E                              	POP	ESI
  1103 00000A3E 75 E5                           	JNE	L204
  1104 00000A40 EB C2                           	JMP	L206
  1105 00000A42                                 	GLOBAL	_cmd_ncst
  1106 00000A42                                 _cmd_ncst:
  1107 00000A42 55                              	PUSH	EBP
  1108 00000A43 89 E5                           	MOV	EBP,ESP
  1109 00000A45 57                              	PUSH	EDI
  1110 00000A46 56                              	PUSH	ESI
  1111 00000A47 BE 00000005                     	MOV	ESI,5
  1112 00000A4C 53                              	PUSH	EBX
  1113 00000A4D 51                              	PUSH	ECX
  1114 00000A4E 8B 45 08                        	MOV	EAX,DWORD [8+EBP]
  1115 00000A51 8B 5D 0C                        	MOV	EBX,DWORD [12+EBP]
  1116 00000A54 89 45 F0                        	MOV	DWORD [-16+EBP],EAX
  1117 00000A57 FF 75 10                        	PUSH	DWORD [16+EBP]
  1118 00000A5A 6A 00                           	PUSH	0
  1119 00000A5C E8 [00000000]                   	CALL	_open_constask
  1120 00000A61 80 7B 05 00                     	CMP	BYTE [5+EBX],0
  1121 00000A65 8D 78 10                        	LEA	EDI,DWORD [16+EAX]
  1122 00000A68 58                              	POP	EAX
  1123 00000A69 5A                              	POP	EDX
  1124 00000A6A 75 1F                           	JNE	L212
  1125 00000A6C                                 L214:
  1126 00000A6C 68 0000010A                     	PUSH	266
  1127 00000A71 57                              	PUSH	EDI
  1128 00000A72 E8 [00000000]                   	CALL	_fifo32_put
  1129 00000A77 58                              	POP	EAX
  1130 00000A78 8B 45 F0                        	MOV	EAX,DWORD [-16+EBP]
  1131 00000A7B 5A                              	POP	EDX
  1132 00000A7C 89 45 08                        	MOV	DWORD [8+EBP],EAX
  1133 00000A7F 8D 65 F4                        	LEA	ESP,DWORD [-12+EBP]
  1134 00000A82 5B                              	POP	EBX
  1135 00000A83 5E                              	POP	ESI
  1136 00000A84 5F                              	POP	EDI
  1137 00000A85 5D                              	POP	EBP
  1138 00000A86 E9 FFFFF965                     	JMP	_cons_newline
  1139 00000A8B                                 L212:
  1140 00000A8B 0F BE 04 1E                     	MOVSX	EAX,BYTE [ESI+EBX*1]
  1141 00000A8F 05 00000100                     	ADD	EAX,256
  1142 00000A94 46                              	INC	ESI
  1143 00000A95 50                              	PUSH	EAX
  1144 00000A96 57                              	PUSH	EDI
  1145 00000A97 E8 [00000000]                   	CALL	_fifo32_put
  1146 00000A9C 80 3C 1E 00                     	CMP	BYTE [ESI+EBX*1],0
  1147 00000AA0 59                              	POP	ECX
  1148 00000AA1 58                              	POP	EAX
  1149 00000AA2 75 E7                           	JNE	L212
  1150 00000AA4 EB C6                           	JMP	L214
  1151                                          [SECTION .data]
  1152 000000A1                                 LC16:
  1153 000000A1 6D 6F 64 65 20 6E 75 6D 62 65   	DB	"mode number error.",0x0A,0x00
       000000AB 72 20 65 72 72 6F 72 2E 0A 00 
  1154                                          [SECTION .text]
  1155 00000AA6                                 	GLOBAL	_cmd_langmode
  1156 00000AA6                                 _cmd_langmode:
  1157 00000AA6 55                              	PUSH	EBP
  1158 00000AA7 89 E5                           	MOV	EBP,ESP
  1159 00000AA9 56                              	PUSH	ESI
  1160 00000AAA 53                              	PUSH	EBX
  1161 00000AAB 8B 5D 0C                        	MOV	EBX,DWORD [12+EBP]
  1162 00000AAE 8B 75 08                        	MOV	ESI,DWORD [8+EBP]
  1163 00000AB1 E8 [00000000]                   	CALL	_task_now
  1164 00000AB6 8A 53 09                        	MOV	DL,BYTE [9+EBX]
  1165 00000AB9 83 EA 30                        	SUB	EDX,48
  1166 00000ABC 80 FA 02                        	CMP	DL,2
  1167 00000ABF 77 14                           	JA	L216
  1168 00000AC1 88 90 000000CC                  	MOV	BYTE [204+EAX],DL
  1169 00000AC7                                 L217:
  1170 00000AC7 89 75 08                        	MOV	DWORD [8+EBP],ESI
  1171 00000ACA 8D 65 F8                        	LEA	ESP,DWORD [-8+EBP]
  1172 00000ACD 5B                              	POP	EBX
  1173 00000ACE 5E                              	POP	ESI
  1174 00000ACF 5D                              	POP	EBP
  1175 00000AD0 E9 FFFFF91B                     	JMP	_cons_newline
  1176 00000AD5                                 L216:
  1177 00000AD5 68 [000000A1]                   	PUSH	LC16
  1178 00000ADA 56                              	PUSH	ESI
  1179 00000ADB E8 FFFFF9F8                     	CALL	_cons_putstr0
  1180 00000AE0 5B                              	POP	EBX
  1181 00000AE1 58                              	POP	EAX
  1182 00000AE2 EB E3                           	JMP	L217
  1183                                          [SECTION .data]
  1184 000000B5                                 LC17:
  1185 000000B5 48 61 72 69 00                  	DB	"Hari",0x00
  1186 000000BA                                 LC18:
  1187 000000BA 2E 68 72 62 20 66 69 6C 65 20   	DB	".hrb file format error.",0x0A,0x00
       000000C4 66 6F 72 6D 61 74 20 65 72 72 
       000000CE 6F 72 2E 0A 00 
  1188                                          [SECTION .text]
  1189 00000AE4                                 	GLOBAL	_cmd_app
  1190 00000AE4                                 _cmd_app:
  1191 00000AE4 55                              	PUSH	EBP
  1192 00000AE5 89 E5                           	MOV	EBP,ESP
  1193 00000AE7 57                              	PUSH	EDI
  1194 00000AE8 56                              	PUSH	ESI
  1195 00000AE9 31 F6                           	XOR	ESI,ESI
  1196 00000AEB 53                              	PUSH	EBX
  1197 00000AEC 83 EC 40                        	SUB	ESP,64
  1198 00000AEF A1 0026F000                     	MOV	EAX,DWORD [2551808]
  1199 00000AF4 8B 5D 10                        	MOV	EBX,DWORD [16+EBP]
  1200 00000AF7 89 45 CC                        	MOV	DWORD [-52+EBP],EAX
  1201 00000AFA E8 [00000000]                   	CALL	_task_now
  1202 00000AFF 8B 80 00000104                  	MOV	EAX,DWORD [260+EAX]
  1203 00000B05 89 45 C8                        	MOV	DWORD [-56+EBP],EAX
  1204 00000B08 E8 [00000000]                   	CALL	_task_now
  1205 00000B0D 89 45 BC                        	MOV	DWORD [-68+EBP],EAX
  1206 00000B10                                 L224:
  1207 00000B10 8A 04 1E                        	MOV	AL,BYTE [ESI+EBX*1]
  1208 00000B13 3C 20                           	CMP	AL,32
  1209 00000B15 7E 0A                           	JLE	L220
  1210 00000B17 88 44 35 D4                     	MOV	BYTE [-44+EBP+ESI*1],AL
  1211 00000B1B 46                              	INC	ESI
  1212 00000B1C 83 FE 0C                        	CMP	ESI,12
  1213 00000B1F 7E EF                           	JLE	L224
  1214 00000B21                                 L220:
  1215 00000B21 68 000000E0                     	PUSH	224
  1216 00000B26 8D 5D D4                        	LEA	EBX,DWORD [-44+EBP]
  1217 00000B29 68 00102600                     	PUSH	1058304
  1218 00000B2E 53                              	PUSH	EBX
  1219 00000B2F C6 44 35 D4 00                  	MOV	BYTE [-44+EBP+ESI*1],0
  1220 00000B34 E8 [00000000]                   	CALL	_file_search
  1221 00000B39 83 C4 0C                        	ADD	ESP,12
  1222 00000B3C 89 C2                           	MOV	EDX,EAX
  1223 00000B3E 85 C0                           	TEST	EAX,EAX
  1224 00000B40 0F 84 000002DC                  	JE	L275
  1225 00000B46                                 L274:
  1226 00000B46 8B 42 1C                        	MOV	EAX,DWORD [28+EDX]
  1227 00000B49 89 45 D0                        	MOV	DWORD [-48+EBP],EAX
  1228 00000B4C 8D 45 D0                        	LEA	EAX,DWORD [-48+EBP]
  1229 00000B4F FF 75 0C                        	PUSH	DWORD [12+EBP]
  1230 00000B52 50                              	PUSH	EAX
  1231 00000B53 0F B7 42 1A                     	MOVZX	EAX,WORD [26+EDX]
  1232 00000B57 50                              	PUSH	EAX
  1233 00000B58 E8 [00000000]                   	CALL	_file_loadfile2
  1234 00000B5D 83 C4 0C                        	ADD	ESP,12
  1235 00000B60 83 7D D0 23                     	CMP	DWORD [-48+EBP],35
  1236 00000B64 89 45 C4                        	MOV	DWORD [-60+EBP],EAX
  1237 00000B67 7E 1C                           	JLE	L227
  1238 00000B69 89 C6                           	MOV	ESI,EAX
  1239 00000B6B BF [000000B5]                   	MOV	EDI,LC17
  1240 00000B70 FC                              	CLD
  1241 00000B71 83 C6 04                        	ADD	ESI,4
  1242 00000B74 B9 00000004                     	MOV	ECX,4
  1243 00000B79 F3                              	REPE
  1244 00000B7A A6                              	CMPSB
  1245 00000B7B 75 08                           	JNE	L227
  1246 00000B7D 8B 55 C4                        	MOV	EDX,DWORD [-60+EBP]
  1247 00000B80 80 3A 00                        	CMP	BYTE [EDX],0
  1248 00000B83 74 73                           	JE	L276
  1249 00000B85                                 L227:
  1250 00000B85 68 [000000BA]                   	PUSH	LC18
  1251 00000B8A FF 75 08                        	PUSH	DWORD [8+EBP]
  1252 00000B8D E8 FFFFF946                     	CALL	_cons_putstr0
  1253 00000B92 58                              	POP	EAX
  1254 00000B93 5A                              	POP	EDX
  1255 00000B94                                 L255:
  1256 00000B94 8B 45 D0                        	MOV	EAX,DWORD [-48+EBP]
  1257 00000B97 31 F6                           	XOR	ESI,ESI
  1258 00000B99 05 00000FFF                     	ADD	EAX,4095
  1259 00000B9E C1 F8 0C                        	SAR	EAX,12
  1260 00000BA1 39 C6                           	CMP	ESI,EAX
  1261 00000BA3 7D 30                           	JGE	L273
  1262 00000BA5 8B 5D C4                        	MOV	EBX,DWORD [-60+EBP]
  1263 00000BA8                                 L260:
  1264 00000BA8 6A 01                           	PUSH	1
  1265 00000BAA 46                              	INC	ESI
  1266 00000BAB 53                              	PUSH	EBX
  1267 00000BAC 81 C3 00001000                  	ADD	EBX,4096
  1268 00000BB2 FF 75 CC                        	PUSH	DWORD [-52+EBP]
  1269 00000BB5 E8 [00000000]                   	CALL	_pageman_unlink_page_32
  1270 00000BBA 50                              	PUSH	EAX
  1271 00000BBB FF 75 CC                        	PUSH	DWORD [-52+EBP]
  1272 00000BBE E8 [00000000]                   	CALL	_memman_free_page_32
  1273 00000BC3 8B 45 D0                        	MOV	EAX,DWORD [-48+EBP]
  1274 00000BC6 05 00000FFF                     	ADD	EAX,4095
  1275 00000BCB 83 C4 14                        	ADD	ESP,20
  1276 00000BCE C1 F8 0C                        	SAR	EAX,12
  1277 00000BD1 39 C6                           	CMP	ESI,EAX
  1278 00000BD3 7C D3                           	JL	L260
  1279 00000BD5                                 L273:
  1280 00000BD5 FF 75 D0                        	PUSH	DWORD [-48+EBP]
  1281 00000BD8 FF 75 C4                        	PUSH	DWORD [-60+EBP]
  1282 00000BDB FF 75 C8                        	PUSH	DWORD [-56+EBP]
  1283 00000BDE E8 [00000000]                   	CALL	_memman_free_4k
  1284 00000BE3 FF 75 08                        	PUSH	DWORD [8+EBP]
  1285 00000BE6 E8 FFFFF805                     	CALL	_cons_newline
  1286 00000BEB B8 00000001                     	MOV	EAX,1
  1287 00000BF0                                 L218:
  1288 00000BF0 8D 65 F4                        	LEA	ESP,DWORD [-12+EBP]
  1289 00000BF3 5B                              	POP	EBX
  1290 00000BF4 5E                              	POP	ESI
  1291 00000BF5 5F                              	POP	EDI
  1292 00000BF6 5D                              	POP	EBP
  1293 00000BF7 C3                              	RET
  1294 00000BF8                                 L276:
  1295 00000BF8 8B 02                           	MOV	EAX,DWORD [EDX]
  1296 00000BFA 8B 5A 10                        	MOV	EBX,DWORD [16+EDX]
  1297 00000BFD 8B 7A 0C                        	MOV	EDI,DWORD [12+EDX]
  1298 00000C00 8B 72 14                        	MOV	ESI,DWORD [20+EDX]
  1299 00000C03 50                              	PUSH	EAX
  1300 00000C04 89 45 B8                        	MOV	DWORD [-72+EBP],EAX
  1301 00000C07 E8 [00000000]                   	CALL	_task_now
  1302 00000C0C FF B0 00000104                  	PUSH	DWORD [260+EAX]
  1303 00000C12 E8 [00000000]                   	CALL	_memman_alloc_4k
  1304 00000C17 6A 00                           	PUSH	0
  1305 00000C19 89 45 C0                        	MOV	DWORD [-64+EBP],EAX
  1306 00000C1C 8B 45 B8                        	MOV	EAX,DWORD [-72+EBP]
  1307 00000C1F 05 00000FFF                     	ADD	EAX,4095
  1308 00000C24 C1 F8 0C                        	SAR	EAX,12
  1309 00000C27 50                              	PUSH	EAX
  1310 00000C28 6A 07                           	PUSH	7
  1311 00000C2A FF 75 C0                        	PUSH	DWORD [-64+EBP]
  1312 00000C2D FF 75 CC                        	PUSH	DWORD [-52+EBP]
  1313 00000C30 E8 [00000000]                   	CALL	_pageman_link_page_32_m
  1314 00000C35 8B 55 BC                        	MOV	EDX,DWORD [-68+EBP]
  1315 00000C38 8B 45 C0                        	MOV	EAX,DWORD [-64+EBP]
  1316 00000C3B 89 82 000000B8                  	MOV	DWORD [184+EDX],EAX
  1317 00000C41 8B 45 D0                        	MOV	EAX,DWORD [-48+EBP]
  1318 00000C44 68 000040FA                     	PUSH	16634
  1319 00000C49 48                              	DEC	EAX
  1320 00000C4A FF 75 C4                        	PUSH	DWORD [-60+EBP]
  1321 00000C4D 50                              	PUSH	EAX
  1322 00000C4E 89 D0                           	MOV	EAX,EDX
  1323 00000C50 05 000000A4                     	ADD	EAX,164
  1324 00000C55 50                              	PUSH	EAX
  1325 00000C56 E8 [00000000]                   	CALL	_set_segmdesc
  1326 00000C5B 8B 45 B8                        	MOV	EAX,DWORD [-72+EBP]
  1327 00000C5E 83 C4 2C                        	ADD	ESP,44
  1328 00000C61 48                              	DEC	EAX
  1329 00000C62 68 000040F2                     	PUSH	16626
  1330 00000C67 FF 75 C0                        	PUSH	DWORD [-64+EBP]
  1331 00000C6A 50                              	PUSH	EAX
  1332 00000C6B 8B 45 BC                        	MOV	EAX,DWORD [-68+EBP]
  1333 00000C6E 05 000000AC                     	ADD	EAX,172
  1334 00000C73 50                              	PUSH	EAX
  1335 00000C74 E8 [00000000]                   	CALL	_set_segmdesc
  1336 00000C79 83 C4 10                        	ADD	ESP,16
  1337 00000C7C 85 DB                           	TEST	EBX,EBX
  1338 00000C7E 7E 17                           	JLE	L263
  1339 00000C80 8B 55 C0                        	MOV	EDX,DWORD [-64+EBP]
  1340 00000C83 8B 45 C4                        	MOV	EAX,DWORD [-60+EBP]
  1341 00000C86 8D 0C 3A                        	LEA	ECX,DWORD [EDX+EDI*1]
  1342 00000C89 8D 14 30                        	LEA	EDX,DWORD [EAX+ESI*1]
  1343 00000C8C 89 DE                           	MOV	ESI,EBX
  1344 00000C8E                                 L232:
  1345 00000C8E 8A 02                           	MOV	AL,BYTE [EDX]
  1346 00000C90 42                              	INC	EDX
  1347 00000C91 88 01                           	MOV	BYTE [ECX],AL
  1348 00000C93 41                              	INC	ECX
  1349 00000C94 4E                              	DEC	ESI
  1350 00000C95 75 F7                           	JNE	L232
  1351 00000C97                                 L263:
  1352 00000C97 8B 45 BC                        	MOV	EAX,DWORD [-68+EBP]
  1353 00000C9A BE 000000FF                     	MOV	ESI,255
  1354 00000C9F 83 C0 30                        	ADD	EAX,48
  1355 00000CA2 50                              	PUSH	EAX
  1356 00000CA3 6A 1C                           	PUSH	28
  1357 00000CA5 57                              	PUSH	EDI
  1358 00000CA6 6A 14                           	PUSH	20
  1359 00000CA8 6A 1B                           	PUSH	27
  1360 00000CAA E8 [00000000]                   	CALL	_start_app
  1361 00000CAF 8B 1D 00000FE4                  	MOV	EBX,DWORD [4068]
  1362 00000CB5 83 C4 14                        	ADD	ESP,20
  1363 00000CB8 81 C3 00000414                  	ADD	EBX,1044
  1364 00000CBE                                 L238:
  1365 00000CBE 8B 43 1C                        	MOV	EAX,DWORD [28+EBX]
  1366 00000CC1 83 E0 11                        	AND	EAX,17
  1367 00000CC4 83 F8 11                        	CMP	EAX,17
  1368 00000CC7 0F 84 0000013D                  	JE	L277
  1369 00000CCD                                 L235:
  1370 00000CCD 83 C3 28                        	ADD	EBX,40
  1371 00000CD0 4E                              	DEC	ESI
  1372 00000CD1 79 EB                           	JNS	L238
  1373 00000CD3 31 F6                           	XOR	ESI,ESI
  1374 00000CD5                                 L249:
  1375 00000CD5 8B 45 BC                        	MOV	EAX,DWORD [-68+EBP]
  1376 00000CD8 8B 90 000000C0                  	MOV	EDX,DWORD [192+EAX]
  1377 00000CDE 6B C6 0C                        	IMUL	EAX,ESI,12
  1378 00000CE1 83 3C 02 00                     	CMP	DWORD [EDX+EAX*1],0
  1379 00000CE5 0F 84 0000009F                  	JE	L241
  1380 00000CEB 8B 42 04                        	MOV	EAX,DWORD [4+EDX]
  1381 00000CEE 31 F6                           	XOR	ESI,ESI
  1382 00000CF0 05 00000FFF                     	ADD	EAX,4095
  1383 00000CF5 C1 F8 0C                        	SAR	EAX,12
  1384 00000CF8 39 C6                           	CMP	ESI,EAX
  1385 00000CFA 7D 5A                           	JGE	L269
  1386 00000CFC C7 45 B4 00000000               	MOV	DWORD [-76+EBP],0
  1387 00000D03 31 FF                           	XOR	EDI,EDI
  1388 00000D05 31 DB                           	XOR	EBX,EBX
  1389 00000D07                                 L248:
  1390 00000D07 8B 55 BC                        	MOV	EDX,DWORD [-68+EBP]
  1391 00000D0A 6A 01                           	PUSH	1
  1392 00000D0C 46                              	INC	ESI
  1393 00000D0D 8B 82 000000C0                  	MOV	EAX,DWORD [192+EDX]
  1394 00000D13 8B 04 18                        	MOV	EAX,DWORD [EAX+EBX*1]
  1395 00000D16 83 C3 0C                        	ADD	EBX,12
  1396 00000D19 01 F8                           	ADD	EAX,EDI
  1397 00000D1B 81 C7 00001000                  	ADD	EDI,4096
  1398 00000D21 50                              	PUSH	EAX
  1399 00000D22 FF 75 CC                        	PUSH	DWORD [-52+EBP]
  1400 00000D25 E8 [00000000]                   	CALL	_pageman_unlink_page_32
  1401 00000D2A 50                              	PUSH	EAX
  1402 00000D2B FF 75 CC                        	PUSH	DWORD [-52+EBP]
  1403 00000D2E E8 [00000000]                   	CALL	_memman_free_page_32
  1404 00000D33 8B 55 BC                        	MOV	EDX,DWORD [-68+EBP]
  1405 00000D36 83 45 B4 0C                     	ADD	DWORD [-76+EBP],12
  1406 00000D3A 8B 82 000000C0                  	MOV	EAX,DWORD [192+EDX]
  1407 00000D40 83 C4 14                        	ADD	ESP,20
  1408 00000D43 8B 55 B4                        	MOV	EDX,DWORD [-76+EBP]
  1409 00000D46 8B 44 10 04                     	MOV	EAX,DWORD [4+EAX+EDX*1]
  1410 00000D4A 05 00000FFF                     	ADD	EAX,4095
  1411 00000D4F C1 F8 0C                        	SAR	EAX,12
  1412 00000D52 39 C6                           	CMP	ESI,EAX
  1413 00000D54 7C B1                           	JL	L248
  1414 00000D56                                 L269:
  1415 00000D56 6B DE 0C                        	IMUL	EBX,ESI,12
  1416 00000D59 8B 55 BC                        	MOV	EDX,DWORD [-68+EBP]
  1417 00000D5C 8B 82 000000C0                  	MOV	EAX,DWORD [192+EDX]
  1418 00000D62 FF 74 18 04                     	PUSH	DWORD [4+EAX+EBX*1]
  1419 00000D66 8B 82 000000C0                  	MOV	EAX,DWORD [192+EDX]
  1420 00000D6C FF 34 18                        	PUSH	DWORD [EAX+EBX*1]
  1421 00000D6F FF 75 C8                        	PUSH	DWORD [-56+EBP]
  1422 00000D72 E8 [00000000]                   	CALL	_memman_free_4k
  1423 00000D77 83 C4 0C                        	ADD	ESP,12
  1424 00000D7A 8B 55 BC                        	MOV	EDX,DWORD [-68+EBP]
  1425 00000D7D 8B 82 000000C0                  	MOV	EAX,DWORD [192+EDX]
  1426 00000D83 C7 04 18 00000000               	MOV	DWORD [EAX+EBX*1],0
  1427 00000D8A                                 L241:
  1428 00000D8A 46                              	INC	ESI
  1429 00000D8B 83 FE 07                        	CMP	ESI,7
  1430 00000D8E 0F 8E FFFFFF41                  	JLE	L249
  1431 00000D94 8B 45 BC                        	MOV	EAX,DWORD [-68+EBP]
  1432 00000D97 31 F6                           	XOR	ESI,ESI
  1433 00000D99 83 C0 10                        	ADD	EAX,16
  1434 00000D9C 50                              	PUSH	EAX
  1435 00000D9D E8 [00000000]                   	CALL	_timer_cancelall
  1436 00000DA2 8B 45 B8                        	MOV	EAX,DWORD [-72+EBP]
  1437 00000DA5 05 00000FFF                     	ADD	EAX,4095
  1438 00000DAA 59                              	POP	ECX
  1439 00000DAB C1 F8 0C                        	SAR	EAX,12
  1440 00000DAE 39 C6                           	CMP	ESI,EAX
  1441 00000DB0 7D 38                           	JGE	L271
  1442 00000DB2 8B 5D C0                        	MOV	EBX,DWORD [-64+EBP]
  1443 00000DB5                                 L254:
  1444 00000DB5 6A 01                           	PUSH	1
  1445 00000DB7 46                              	INC	ESI
  1446 00000DB8 53                              	PUSH	EBX
  1447 00000DB9 81 C3 00001000                  	ADD	EBX,4096
  1448 00000DBF E8 [00000000]                   	CALL	_task_now
  1449 00000DC4 FF B0 00000104                  	PUSH	DWORD [260+EAX]
  1450 00000DCA E8 [00000000]                   	CALL	_pageman_unlink_page_32
  1451 00000DCF 50                              	PUSH	EAX
  1452 00000DD0 FF 75 CC                        	PUSH	DWORD [-52+EBP]
  1453 00000DD3 E8 [00000000]                   	CALL	_memman_free_page_32
  1454 00000DD8 8B 45 B8                        	MOV	EAX,DWORD [-72+EBP]
  1455 00000DDB 05 00000FFF                     	ADD	EAX,4095
  1456 00000DE0 83 C4 14                        	ADD	ESP,20
  1457 00000DE3 C1 F8 0C                        	SAR	EAX,12
  1458 00000DE6 39 C6                           	CMP	ESI,EAX
  1459 00000DE8 7C CB                           	JL	L254
  1460 00000DEA                                 L271:
  1461 00000DEA FF 75 B8                        	PUSH	DWORD [-72+EBP]
  1462 00000DED FF 75 C0                        	PUSH	DWORD [-64+EBP]
  1463 00000DF0 FF 75 C8                        	PUSH	DWORD [-56+EBP]
  1464 00000DF3 E8 [00000000]                   	CALL	_memman_free_4k
  1465 00000DF8 83 C4 0C                        	ADD	ESP,12
  1466 00000DFB 8B 45 BC                        	MOV	EAX,DWORD [-68+EBP]
  1467 00000DFE C6 80 000000CD 00               	MOV	BYTE [205+EAX],0
  1468 00000E05 E9 FFFFFD8A                     	JMP	L255
  1469 00000E0A                                 L277:
  1470 00000E0A 8B 55 BC                        	MOV	EDX,DWORD [-68+EBP]
  1471 00000E0D 39 53 24                        	CMP	DWORD [36+EBX],EDX
  1472 00000E10 0F 85 FFFFFEB7                  	JNE	L235
  1473 00000E16 53                              	PUSH	EBX
  1474 00000E17 E8 [00000000]                   	CALL	_sheet_free
  1475 00000E1C 5F                              	POP	EDI
  1476 00000E1D E9 FFFFFEAB                     	JMP	L235
  1477 00000E22                                 L275:
  1478 00000E22 80 7C 35 D3 2E                  	CMP	BYTE [-45+EBP+ESI*1],46
  1479 00000E27 74 2E                           	JE	L225
  1480 00000E29 68 000000E0                     	PUSH	224
  1481 00000E2E 68 00102600                     	PUSH	1058304
  1482 00000E33 53                              	PUSH	EBX
  1483 00000E34 C6 44 35 D4 2E                  	MOV	BYTE [-44+EBP+ESI*1],46
  1484 00000E39 C6 44 35 D5 48                  	MOV	BYTE [-43+EBP+ESI*1],72
  1485 00000E3E C6 44 35 D6 52                  	MOV	BYTE [-42+EBP+ESI*1],82
  1486 00000E43 C6 44 35 D7 42                  	MOV	BYTE [-41+EBP+ESI*1],66
  1487 00000E48 C6 44 35 D8 00                  	MOV	BYTE [-40+EBP+ESI*1],0
  1488 00000E4D E8 [00000000]                   	CALL	_file_search
  1489 00000E52 83 C4 0C                        	ADD	ESP,12
  1490 00000E55 89 C2                           	MOV	EDX,EAX
  1491 00000E57                                 L225:
  1492 00000E57 85 D2                           	TEST	EDX,EDX
  1493 00000E59 0F 85 FFFFFCE7                  	JNE	L274
  1494 00000E5F 31 C0                           	XOR	EAX,EAX
  1495 00000E61 E9 FFFFFD8A                     	JMP	L218
  1496 00000E66                                 	GLOBAL	_hrb_api
  1497 00000E66                                 _hrb_api:
  1498 00000E66 55                              	PUSH	EBP
  1499 00000E67 89 E5                           	MOV	EBP,ESP
  1500 00000E69 57                              	PUSH	EDI
  1501 00000E6A 56                              	PUSH	ESI
  1502 00000E6B 53                              	PUSH	EBX
  1503 00000E6C 83 EC 44                        	SUB	ESP,68
  1504 00000E6F A1 0026F000                     	MOV	EAX,DWORD [2551808]
  1505 00000E74 8B 75 1C                        	MOV	ESI,DWORD [28+EBP]
  1506 00000E77 8B 5D 10                        	MOV	EBX,DWORD [16+EBP]
  1507 00000E7A 8B 7D 20                        	MOV	EDI,DWORD [32+EBP]
  1508 00000E7D 89 45 D0                        	MOV	DWORD [-48+EBP],EAX
  1509 00000E80 E8 [00000000]                   	CALL	_task_now
  1510 00000E85 8B 90 000000B8                  	MOV	EDX,DWORD [184+EAX]
  1511 00000E8B 8B 88 000000B4                  	MOV	ECX,DWORD [180+EAX]
  1512 00000E91 89 45 CC                        	MOV	DWORD [-52+EBP],EAX
  1513 00000E94 89 55 C8                        	MOV	DWORD [-56+EBP],EDX
  1514 00000E97 A1 00000FE4                     	MOV	EAX,DWORD [4068]
  1515 00000E9C 8B 15 00000FEC                  	MOV	EDX,DWORD [4076]
  1516 00000EA2 89 4D C4                        	MOV	DWORD [-60+EBP],ECX
  1517 00000EA5 89 45 C0                        	MOV	DWORD [-64+EBP],EAX
  1518 00000EA8 89 55 BC                        	MOV	DWORD [-68+EBP],EDX
  1519 00000EAB E8 [00000000]                   	CALL	_task_now
  1520 00000EB0 83 FE 01                        	CMP	ESI,1
  1521 00000EB3 8B 80 00000104                  	MOV	EAX,DWORD [260+EAX]
  1522 00000EB9 89 45 B8                        	MOV	DWORD [-72+EBP],EAX
  1523 00000EBC 0F 84 0000071B                  	JE	L406
  1524 00000EC2 83 FE 02                        	CMP	ESI,2
  1525 00000EC5 0F 84 000006FE                  	JE	L407
  1526 00000ECB 83 FE 03                        	CMP	ESI,3
  1527 00000ECE 0F 84 000006E0                  	JE	L408
  1528 00000ED4 83 FE 04                        	CMP	ESI,4
  1529 00000ED7 0F 84 000006CC                  	JE	L409
  1530 00000EDD 83 FE 05                        	CMP	ESI,5
  1531 00000EE0 0F 84 000005C9                  	JE	L410
  1532 00000EE6 83 FE 06                        	CMP	ESI,6
  1533 00000EE9 0F 84 00000577                  	JE	L411
  1534 00000EEF 83 FE 07                        	CMP	ESI,7
  1535 00000EF2 0F 84 0000053B                  	JE	L412
  1536 00000EF8 83 FE 08                        	CMP	ESI,8
  1537 00000EFB 0F 84 00000511                  	JE	L413
  1538 00000F01 83 FE 09                        	CMP	ESI,9
  1539 00000F04 0F 84 000004ED                  	JE	L414
  1540 00000F0A 83 FE 0A                        	CMP	ESI,10
  1541 00000F0D 0F 84 000004C9                  	JE	L415
  1542 00000F13 83 FE 0B                        	CMP	ESI,11
  1543 00000F16 0F 84 00000489                  	JE	L416
  1544 00000F1C 83 FE 0C                        	CMP	ESI,12
  1545 00000F1F 0F 84 00000471                  	JE	L417
  1546 00000F25 83 FE 0D                        	CMP	ESI,13
  1547 00000F28 0F 84 00000407                  	JE	L418
  1548 00000F2E 83 FE 0E                        	CMP	ESI,14
  1549 00000F31 0F 84 000003F1                  	JE	L419
  1550 00000F37 83 FE 0F                        	CMP	ESI,15
  1551 00000F3A 0F 84 000002EA                  	JE	L319
  1552 00000F40 83 FE 10                        	CMP	ESI,16
  1553 00000F43 0F 84 000002D0                  	JE	L420
  1554 00000F49 83 FE 11                        	CMP	ESI,17
  1555 00000F4C 0F 84 000002AA                  	JE	L421
  1556 00000F52 83 FE 12                        	CMP	ESI,18
  1557 00000F55 0F 84 0000028F                  	JE	L422
  1558 00000F5B 83 FE 13                        	CMP	ESI,19
  1559 00000F5E 0F 84 00000278                  	JE	L423
  1560 00000F64 83 FE 14                        	CMP	ESI,20
  1561 00000F67 0F 84 00000200                  	JE	L424
  1562 00000F6D 83 FE 15                        	CMP	ESI,21
  1563 00000F70 0F 84 00000174                  	JE	L425
  1564 00000F76 83 FE 16                        	CMP	ESI,22
  1565 00000F79 0F 84 00000109                  	JE	L426
  1566 00000F7F 83 FE 17                        	CMP	ESI,23
  1567 00000F82 0F 84 000000B6                  	JE	L427
  1568 00000F88 83 FE 18                        	CMP	ESI,24
  1569 00000F8B 0F 84 00000080                  	JE	L428
  1570 00000F91 83 FE 19                        	CMP	ESI,25
  1571 00000F94 74 52                           	JE	L429
  1572 00000F96 83 FE 1A                        	CMP	ESI,26
  1573 00000F99 74 1E                           	JE	L430
  1574 00000F9B 83 FE 1B                        	CMP	ESI,27
  1575 00000F9E 74 0A                           	JE	L431
  1576 00000FA0                                 L280:
  1577 00000FA0 31 C0                           	XOR	EAX,EAX
  1578 00000FA2                                 L278:
  1579 00000FA2 8D 65 F4                        	LEA	ESP,DWORD [-12+EBP]
  1580 00000FA5 5B                              	POP	EBX
  1581 00000FA6 5E                              	POP	ESI
  1582 00000FA7 5F                              	POP	EDI
  1583 00000FA8 5D                              	POP	EBP
  1584 00000FA9 C3                              	RET
  1585 00000FAA                                 L431:
  1586 00000FAA 8B 75 CC                        	MOV	ESI,DWORD [-52+EBP]
  1587 00000FAD 0F B6 86 000000CC               	MOVZX	EAX,BYTE [204+ESI]
  1588 00000FB4                                 L399:
  1589 00000FB4 89 45 44                        	MOV	DWORD [68+EBP],EAX
  1590 00000FB7 EB E7                           	JMP	L280
  1591 00000FB9                                 L430:
  1592 00000FB9 31 DB                           	XOR	EBX,EBX
  1593 00000FBB                                 L385:
  1594 00000FBB 8B 4D CC                        	MOV	ECX,DWORD [-52+EBP]
  1595 00000FBE 8B 55 18                        	MOV	EDX,DWORD [24+EBP]
  1596 00000FC1 03 55 C8                        	ADD	EDX,DWORD [-56+EBP]
  1597 00000FC4 8B 81 000000C8                  	MOV	EAX,DWORD [200+ECX]
  1598 00000FCA 8A 04 03                        	MOV	AL,BYTE [EBX+EAX*1]
  1599 00000FCD 88 04 13                        	MOV	BYTE [EBX+EDX*1],AL
  1600 00000FD0 8B 81 000000C8                  	MOV	EAX,DWORD [200+ECX]
  1601 00000FD6 80 3C 03 00                     	CMP	BYTE [EBX+EAX*1],0
  1602 00000FDA 74 07                           	JE	L386
  1603 00000FDC 39 FB                           	CMP	EBX,EDI
  1604 00000FDE 7D 03                           	JGE	L386
  1605 00000FE0 43                              	INC	EBX
  1606 00000FE1 EB D8                           	JMP	L385
  1607 00000FE3                                 L386:
  1608 00000FE3 89 5D 44                        	MOV	DWORD [68+EBP],EBX
  1609 00000FE6 EB B8                           	JMP	L280
  1610 00000FE8                                 L429:
  1611 00000FE8 31 DB                           	XOR	EBX,EBX
  1612 00000FEA 8B 75 24                        	MOV	ESI,DWORD [36+EBP]
  1613 00000FED 39 FB                           	CMP	EBX,EDI
  1614 00000FEF 7D F2                           	JGE	L386
  1615 00000FF1                                 L382:
  1616 00000FF1 8B 4E 08                        	MOV	ECX,DWORD [8+ESI]
  1617 00000FF4 3B 4E 04                        	CMP	ECX,DWORD [4+ESI]
  1618 00000FF7 74 EA                           	JE	L386
  1619 00000FF9 8B 45 18                        	MOV	EAX,DWORD [24+EBP]
  1620 00000FFC 8B 16                           	MOV	EDX,DWORD [ESI]
  1621 00000FFE 03 45 C8                        	ADD	EAX,DWORD [-56+EBP]
  1622 00001001 8A 14 11                        	MOV	DL,BYTE [ECX+EDX*1]
  1623 00001004 88 14 03                        	MOV	BYTE [EBX+EAX*1],DL
  1624 00001007 43                              	INC	EBX
  1625 00001008 FF 46 08                        	INC	DWORD [8+ESI]
  1626 0000100B 39 FB                           	CMP	EBX,EDI
  1627 0000100D 7C E2                           	JL	L382
  1628 0000100F EB D2                           	JMP	L386
  1629 00001011                                 L428:
  1630 00001011 8B 75 24                        	MOV	ESI,DWORD [36+EBP]
  1631 00001014 85 FF                           	TEST	EDI,EDI
  1632 00001016 75 05                           	JNE	L370
  1633 00001018 8B 46 04                        	MOV	EAX,DWORD [4+ESI]
  1634 0000101B EB 97                           	JMP	L399
  1635 0000101D                                 L370:
  1636 0000101D 83 FF 01                        	CMP	EDI,1
  1637 00001020 74 14                           	JE	L432
  1638 00001022 83 FF 02                        	CMP	EDI,2
  1639 00001025 0F 85 FFFFFF75                  	JNE	L280
  1640 0000102B 8B 46 08                        	MOV	EAX,DWORD [8+ESI]
  1641 0000102E 2B 46 04                        	SUB	EAX,DWORD [4+ESI]
  1642 00001031 E9 FFFFFF7E                     	JMP	L399
  1643 00001036                                 L432:
  1644 00001036 8B 46 08                        	MOV	EAX,DWORD [8+ESI]
  1645 00001039 E9 FFFFFF76                     	JMP	L399
  1646 0000103E                                 L427:
  1647 0000103E 8B 75 24                        	MOV	ESI,DWORD [36+EBP]
  1648 00001041 85 FF                           	TEST	EDI,EDI
  1649 00001043 74 33                           	JE	L398
  1650 00001045 83 FF 01                        	CMP	EDI,1
  1651 00001048 74 36                           	JE	L433
  1652 0000104A 83 FF 02                        	CMP	EDI,2
  1653 0000104D 74 23                           	JE	L434
  1654 0000104F                                 L362:
  1655 0000104F 83 7E 08 00                     	CMP	DWORD [8+ESI],0
  1656 00001053 78 14                           	JS	L435
  1657 00001055                                 L366:
  1658 00001055 8B 46 04                        	MOV	EAX,DWORD [4+ESI]
  1659 00001058 39 46 08                        	CMP	DWORD [8+ESI],EAX
  1660 0000105B 0F 8E FFFFFF3F                  	JLE	L280
  1661 00001061 89 46 08                        	MOV	DWORD [8+ESI],EAX
  1662 00001064 E9 FFFFFF37                     	JMP	L280
  1663 00001069                                 L435:
  1664 00001069 C7 46 08 00000000               	MOV	DWORD [8+ESI],0
  1665 00001070 EB E3                           	JMP	L366
  1666 00001072                                 L434:
  1667 00001072 8B 46 04                        	MOV	EAX,DWORD [4+ESI]
  1668 00001075 01 45 18                        	ADD	DWORD [24+EBP],EAX
  1669 00001078                                 L398:
  1670 00001078 8B 55 18                        	MOV	EDX,DWORD [24+EBP]
  1671 0000107B 89 56 08                        	MOV	DWORD [8+ESI],EDX
  1672 0000107E EB CF                           	JMP	L362
  1673 00001080                                 L433:
  1674 00001080 8B 4D 18                        	MOV	ECX,DWORD [24+EBP]
  1675 00001083 01 4E 08                        	ADD	DWORD [8+ESI],ECX
  1676 00001086 EB C7                           	JMP	L362
  1677 00001088                                 L426:
  1678 00001088 8B 75 24                        	MOV	ESI,DWORD [36+EBP]
  1679 0000108B 31 DB                           	XOR	EBX,EBX
  1680 0000108D 8B 46 04                        	MOV	EAX,DWORD [4+ESI]
  1681 00001090 05 00000FFF                     	ADD	EAX,4095
  1682 00001095 C1 F8 0C                        	SAR	EAX,12
  1683 00001098 39 C3                           	CMP	EBX,EAX
  1684 0000109A 7D 33                           	JGE	L396
  1685 0000109C 31 FF                           	XOR	EDI,EDI
  1686 0000109E                                 L358:
  1687 0000109E 6A 01                           	PUSH	1
  1688 000010A0 43                              	INC	EBX
  1689 000010A1 8B 06                           	MOV	EAX,DWORD [ESI]
  1690 000010A3 01 F8                           	ADD	EAX,EDI
  1691 000010A5 81 C7 00001000                  	ADD	EDI,4096
  1692 000010AB 50                              	PUSH	EAX
  1693 000010AC FF 75 D0                        	PUSH	DWORD [-48+EBP]
  1694 000010AF E8 [00000000]                   	CALL	_pageman_unlink_page_32
  1695 000010B4 50                              	PUSH	EAX
  1696 000010B5 FF 75 D0                        	PUSH	DWORD [-48+EBP]
  1697 000010B8 E8 [00000000]                   	CALL	_memman_free_page_32
  1698 000010BD 8B 46 04                        	MOV	EAX,DWORD [4+ESI]
  1699 000010C0 05 00000FFF                     	ADD	EAX,4095
  1700 000010C5 83 C4 14                        	ADD	ESP,20
  1701 000010C8 C1 F8 0C                        	SAR	EAX,12
  1702 000010CB 39 C3                           	CMP	EBX,EAX
  1703 000010CD 7C CF                           	JL	L358
  1704 000010CF                                 L396:
  1705 000010CF FF 76 04                        	PUSH	DWORD [4+ESI]
  1706 000010D2 FF 36                           	PUSH	DWORD [ESI]
  1707 000010D4 FF 75 B8                        	PUSH	DWORD [-72+EBP]
  1708 000010D7 E8 [00000000]                   	CALL	_memman_free_4k
  1709 000010DC C7 06 00000000                  	MOV	DWORD [ESI],0
  1710 000010E2                                 L400:
  1711 000010E2 83 C4 0C                        	ADD	ESP,12
  1712 000010E5 E9 FFFFFEB6                     	JMP	L280
  1713 000010EA                                 L425:
  1714 000010EA 31 DB                           	XOR	EBX,EBX
  1715 000010EC 31 C0                           	XOR	EAX,EAX
  1716 000010EE                                 L349:
  1717 000010EE 8B 4D CC                        	MOV	ECX,DWORD [-52+EBP]
  1718 000010F1 8B 91 000000C0                  	MOV	EDX,DWORD [192+ECX]
  1719 000010F7 83 3C 02 00                     	CMP	DWORD [EDX+EAX*1],0
  1720 000010FB 74 09                           	JE	L345
  1721 000010FD 43                              	INC	EBX
  1722 000010FE 83 C0 0C                        	ADD	EAX,12
  1723 00001101 83 FB 07                        	CMP	EBX,7
  1724 00001104 7E E8                           	JLE	L349
  1725 00001106                                 L345:
  1726 00001106 6B C3 0C                        	IMUL	EAX,EBX,12
  1727 00001109 C7 45 44 00000000               	MOV	DWORD [68+EBP],0
  1728 00001110 8D 34 10                        	LEA	ESI,DWORD [EAX+EDX*1]
  1729 00001113 83 FB 07                        	CMP	EBX,7
  1730 00001116 0F 8F FFFFFE84                  	JG	L280
  1731 0000111C 8B 45 18                        	MOV	EAX,DWORD [24+EBP]
  1732 0000111F 68 000000E0                     	PUSH	224
  1733 00001124 03 45 C8                        	ADD	EAX,DWORD [-56+EBP]
  1734 00001127 68 00102600                     	PUSH	1058304
  1735 0000112C 50                              	PUSH	EAX
  1736 0000112D E8 [00000000]                   	CALL	_file_search
  1737 00001132 83 C4 0C                        	ADD	ESP,12
  1738 00001135 89 C2                           	MOV	EDX,EAX
  1739 00001137 85 C0                           	TEST	EAX,EAX
  1740 00001139 0F 84 FFFFFE61                  	JE	L280
  1741 0000113F 89 75 44                        	MOV	DWORD [68+EBP],ESI
  1742 00001142 8B 40 1C                        	MOV	EAX,DWORD [28+EAX]
  1743 00001145 89 46 04                        	MOV	DWORD [4+ESI],EAX
  1744 00001148 8B 45 CC                        	MOV	EAX,DWORD [-52+EBP]
  1745 0000114B C7 46 08 00000000               	MOV	DWORD [8+ESI],0
  1746 00001152 FF B0 000000C4                  	PUSH	DWORD [196+EAX]
  1747 00001158 8D 46 04                        	LEA	EAX,DWORD [4+ESI]
  1748 0000115B 50                              	PUSH	EAX
  1749 0000115C 0F B7 42 1A                     	MOVZX	EAX,WORD [26+EDX]
  1750 00001160 50                              	PUSH	EAX
  1751 00001161 E8 [00000000]                   	CALL	_file_loadfile2
  1752 00001166 89 06                           	MOV	DWORD [ESI],EAX
  1753 00001168 E9 FFFFFF75                     	JMP	L400
  1754 0000116D                                 L424:
  1755 0000116D 8B 55 24                        	MOV	EDX,DWORD [36+EBP]
  1756 00001170 85 D2                           	TEST	EDX,EDX
  1757 00001172 75 19                           	JNE	L340
  1758 00001174 6A 61                           	PUSH	97
  1759 00001176 E8 [00000000]                   	CALL	_io_in8
  1760 0000117B 89 C3                           	MOV	EBX,EAX
  1761 0000117D 83 E3 0D                        	AND	EBX,13
  1762 00001180 53                              	PUSH	EBX
  1763 00001181 6A 61                           	PUSH	97
  1764 00001183 E8 [00000000]                   	CALL	_io_out8
  1765 00001188 E9 FFFFFF55                     	JMP	L400
  1766 0000118D                                 L340:
  1767 0000118D B9 471E7B60                     	MOV	ECX,1193180000
  1768 00001192 89 D6                           	MOV	ESI,EDX
  1769 00001194 89 C8                           	MOV	EAX,ECX
  1770 00001196 68 000000B6                     	PUSH	182
  1771 0000119B 99                              	CDQ
  1772 0000119C F7 FE                           	IDIV	ESI
  1773 0000119E 6A 43                           	PUSH	67
  1774 000011A0 89 C3                           	MOV	EBX,EAX
  1775 000011A2 E8 [00000000]                   	CALL	_io_out8
  1776 000011A7 0F B6 C3                        	MOVZX	EAX,BL
  1777 000011AA C1 FB 08                        	SAR	EBX,8
  1778 000011AD 50                              	PUSH	EAX
  1779 000011AE 6A 42                           	PUSH	66
  1780 000011B0 E8 [00000000]                   	CALL	_io_out8
  1781 000011B5 53                              	PUSH	EBX
  1782 000011B6 6A 42                           	PUSH	66
  1783 000011B8 E8 [00000000]                   	CALL	_io_out8
  1784 000011BD 6A 61                           	PUSH	97
  1785 000011BF E8 [00000000]                   	CALL	_io_in8
  1786 000011C4 89 C3                           	MOV	EBX,EAX
  1787 000011C6 83 CB 03                        	OR	EBX,3
  1788 000011C9 83 E3 0F                        	AND	EBX,15
  1789 000011CC 53                              	PUSH	EBX
  1790 000011CD 6A 61                           	PUSH	97
  1791 000011CF E8 [00000000]                   	CALL	_io_out8
  1792 000011D4 83 C4 24                        	ADD	ESP,36
  1793 000011D7 E9 FFFFFDC4                     	JMP	L280
  1794 000011DC                                 L423:
  1795 000011DC FF 75 18                        	PUSH	DWORD [24+EBP]
  1796 000011DF E8 [00000000]                   	CALL	_timer_free
  1797 000011E4                                 L401:
  1798 000011E4 58                              	POP	EAX
  1799 000011E5 E9 FFFFFDB6                     	JMP	L280
  1800 000011EA                                 L422:
  1801 000011EA FF 75 24                        	PUSH	DWORD [36+EBP]
  1802 000011ED FF 75 18                        	PUSH	DWORD [24+EBP]
  1803 000011F0 E8 [00000000]                   	CALL	_timer_settime
  1804 000011F5                                 L403:
  1805 000011F5 58                              	POP	EAX
  1806 000011F6 5A                              	POP	EDX
  1807 000011F7 E9 FFFFFDA4                     	JMP	L280
  1808 000011FC                                 L421:
  1809 000011FC 8B 45 24                        	MOV	EAX,DWORD [36+EBP]
  1810 000011FF 05 00000100                     	ADD	EAX,256
  1811 00001204 50                              	PUSH	EAX
  1812 00001205 8B 45 CC                        	MOV	EAX,DWORD [-52+EBP]
  1813 00001208 83 C0 10                        	ADD	EAX,16
  1814 0000120B 50                              	PUSH	EAX
  1815 0000120C FF 75 18                        	PUSH	DWORD [24+EBP]
  1816 0000120F E8 [00000000]                   	CALL	_timer_init
  1817 00001214 E9 FFFFFEC9                     	JMP	L400
  1818 00001219                                 L420:
  1819 00001219 E8 [00000000]                   	CALL	_timer_alloc
  1820 0000121E 89 45 44                        	MOV	DWORD [68+EBP],EAX
  1821 00001221 C6 40 09 01                     	MOV	BYTE [9+EAX],1
  1822 00001225 E9 FFFFFD76                     	JMP	L280
  1823 0000122A                                 L319:
  1824 0000122A E8 [00000000]                   	CALL	_io_cli
  1825 0000122F 8B 45 CC                        	MOV	EAX,DWORD [-52+EBP]
  1826 00001232 83 C0 10                        	ADD	EAX,16
  1827 00001235 50                              	PUSH	EAX
  1828 00001236 E8 [00000000]                   	CALL	_fifo32_status
  1829 0000123B 5E                              	POP	ESI
  1830 0000123C 85 C0                           	TEST	EAX,EAX
  1831 0000123E 75 13                           	JNE	L322
  1832 00001240 83 7D 24 00                     	CMP	DWORD [36+EBP],0
  1833 00001244 0F 84 000000CD                  	JE	L323
  1834 0000124A FF 75 CC                        	PUSH	DWORD [-52+EBP]
  1835 0000124D E8 [00000000]                   	CALL	_task_sleep
  1836 00001252 5B                              	POP	EBX
  1837 00001253                                 L322:
  1838 00001253 8B 75 CC                        	MOV	ESI,DWORD [-52+EBP]
  1839 00001256 83 C6 10                        	ADD	ESI,16
  1840 00001259 56                              	PUSH	ESI
  1841 0000125A E8 [00000000]                   	CALL	_fifo32_get
  1842 0000125F 89 C3                           	MOV	EBX,EAX
  1843 00001261 E8 [00000000]                   	CALL	_io_sti
  1844 00001266 59                              	POP	ECX
  1845 00001267 83 FB 01                        	CMP	EBX,1
  1846 0000126A 7E 7F                           	JLE	L436
  1847 0000126C                                 L325:
  1848 0000126C 83 FB 02                        	CMP	EBX,2
  1849 0000126F 74 6E                           	JE	L437
  1850 00001271                                 L326:
  1851 00001271 83 FB 03                        	CMP	EBX,3
  1852 00001274 74 5D                           	JE	L438
  1853 00001276                                 L327:
  1854 00001276 83 FB 04                        	CMP	EBX,4
  1855 00001279 74 14                           	JE	L439
  1856 0000127B                                 L328:
  1857 0000127B 8D 83 FFFFFF00                  	LEA	EAX,DWORD [-256+EBX]
  1858 00001281 81 FB 000000FF                  	CMP	EBX,255
  1859 00001287 0F 8F FFFFFD27                  	JG	L399
  1860 0000128D EB 9B                           	JMP	L319
  1861 0000128F                                 L439:
  1862 0000128F 8B 4D C4                        	MOV	ECX,DWORD [-60+EBP]
  1863 00001292 FF 71 10                        	PUSH	DWORD [16+ECX]
  1864 00001295 E8 [00000000]                   	CALL	_timer_cancel
  1865 0000129A E8 [00000000]                   	CALL	_io_cli
  1866 0000129F 8B 75 C4                        	MOV	ESI,DWORD [-60+EBP]
  1867 000012A2 8B 06                           	MOV	EAX,DWORD [ESI]
  1868 000012A4 2B 45 C0                        	SUB	EAX,DWORD [-64+EBP]
  1869 000012A7 2D 00000414                     	SUB	EAX,1044
  1870 000012AC C1 F8 03                        	SAR	EAX,3
  1871 000012AF 69 C0 CCCCCCCD                  	IMUL	EAX,EAX,-858993459
  1872 000012B5 05 000007E8                     	ADD	EAX,2024
  1873 000012BA 50                              	PUSH	EAX
  1874 000012BB FF 75 BC                        	PUSH	DWORD [-68+EBP]
  1875 000012BE E8 [00000000]                   	CALL	_fifo32_put
  1876 000012C3 C7 06 00000000                  	MOV	DWORD [ESI],0
  1877 000012C9 E8 [00000000]                   	CALL	_io_sti
  1878 000012CE 83 C4 0C                        	ADD	ESP,12
  1879 000012D1 EB A8                           	JMP	L328
  1880 000012D3                                 L438:
  1881 000012D3 8B 55 C4                        	MOV	EDX,DWORD [-60+EBP]
  1882 000012D6 C7 42 0C FFFFFFFF               	MOV	DWORD [12+EDX],-1
  1883 000012DD EB 97                           	JMP	L327
  1884 000012DF                                 L437:
  1885 000012DF 8B 45 C4                        	MOV	EAX,DWORD [-60+EBP]
  1886 000012E2 C7 40 0C 00000007               	MOV	DWORD [12+EAX],7
  1887 000012E9 EB 86                           	JMP	L326
  1888 000012EB                                 L436:
  1889 000012EB 8B 4D C4                        	MOV	ECX,DWORD [-60+EBP]
  1890 000012EE 83 39 00                        	CMP	DWORD [ECX],0
  1891 000012F1 0F 84 FFFFFF75                  	JE	L325
  1892 000012F7 6A 01                           	PUSH	1
  1893 000012F9 56                              	PUSH	ESI
  1894 000012FA FF 71 10                        	PUSH	DWORD [16+ECX]
  1895 000012FD E8 [00000000]                   	CALL	_timer_init
  1896 00001302 8B 75 C4                        	MOV	ESI,DWORD [-60+EBP]
  1897 00001305 6A 32                           	PUSH	50
  1898 00001307 FF 76 10                        	PUSH	DWORD [16+ESI]
  1899 0000130A E8 [00000000]                   	CALL	_timer_settime
  1900 0000130F 83 C4 14                        	ADD	ESP,20
  1901 00001312 E9 FFFFFF55                     	JMP	L325
  1902 00001317                                 L323:
  1903 00001317 E8 [00000000]                   	CALL	_io_sti
  1904 0000131C C7 45 44 FFFFFFFF               	MOV	DWORD [68+EBP],-1
  1905 00001323 E9 FFFFFC78                     	JMP	L280
  1906 00001328                                 L419:
  1907 00001328 FF 75 18                        	PUSH	DWORD [24+EBP]
  1908 0000132B E8 [00000000]                   	CALL	_sheet_free
  1909 00001330 E9 FFFFFEAF                     	JMP	L401
  1910 00001335                                 L418:
  1911 00001335 53                              	PUSH	EBX
  1912 00001336 8B 75 18                        	MOV	ESI,DWORD [24+EBP]
  1913 00001339 FF 75 08                        	PUSH	DWORD [8+EBP]
  1914 0000133C FF 75 0C                        	PUSH	DWORD [12+EBP]
  1915 0000133F 57                              	PUSH	EDI
  1916 00001340 83 E6 FE                        	AND	ESI,-2
  1917 00001343 FF 75 24                        	PUSH	DWORD [36+EBP]
  1918 00001346 56                              	PUSH	ESI
  1919 00001347 E8 00000352                     	CALL	_hrb_api_linewin
  1920 0000134C 83 C4 18                        	ADD	ESP,24
  1921 0000134F F7 45 18 00000001               	TEST	DWORD [24+EBP],1
  1922 00001356 0F 85 FFFFFC44                  	JNE	L280
  1923 0000135C 8B 45 24                        	MOV	EAX,DWORD [36+EBP]
  1924 0000135F 3B 45 0C                        	CMP	EAX,DWORD [12+EBP]
  1925 00001362 7E 09                           	JLE	L313
  1926 00001364 8B 55 0C                        	MOV	EDX,DWORD [12+EBP]
  1927 00001367 89 45 0C                        	MOV	DWORD [12+EBP],EAX
  1928 0000136A 89 55 24                        	MOV	DWORD [36+EBP],EDX
  1929 0000136D                                 L313:
  1930 0000136D 3B 7D 08                        	CMP	EDI,DWORD [8+EBP]
  1931 00001370 7E 08                           	JLE	L314
  1932 00001372 89 FB                           	MOV	EBX,EDI
  1933 00001374 8B 7D 08                        	MOV	EDI,DWORD [8+EBP]
  1934 00001377 89 5D 08                        	MOV	DWORD [8+EBP],EBX
  1935 0000137A                                 L314:
  1936 0000137A 8B 45 08                        	MOV	EAX,DWORD [8+EBP]
  1937 0000137D 40                              	INC	EAX
  1938 0000137E 50                              	PUSH	EAX
  1939 0000137F 8B 45 0C                        	MOV	EAX,DWORD [12+EBP]
  1940 00001382 40                              	INC	EAX
  1941 00001383 50                              	PUSH	EAX
  1942 00001384 57                              	PUSH	EDI
  1943 00001385 FF 75 24                        	PUSH	DWORD [36+EBP]
  1944 00001388                                 L405:
  1945 00001388 56                              	PUSH	ESI
  1946 00001389                                 L402:
  1947 00001389 E8 [00000000]                   	CALL	_sheet_refresh
  1948 0000138E                                 L404:
  1949 0000138E 83 C4 14                        	ADD	ESP,20
  1950 00001391 E9 FFFFFC0A                     	JMP	L280
  1951 00001396                                 L417:
  1952 00001396 FF 75 08                        	PUSH	DWORD [8+EBP]
  1953 00001399 FF 75 0C                        	PUSH	DWORD [12+EBP]
  1954 0000139C 57                              	PUSH	EDI
  1955 0000139D FF 75 24                        	PUSH	DWORD [36+EBP]
  1956 000013A0 FF 75 18                        	PUSH	DWORD [24+EBP]
  1957 000013A3 EB E4                           	JMP	L402
  1958 000013A5                                 L416:
  1959 000013A5 8B 75 18                        	MOV	ESI,DWORD [24+EBP]
  1960 000013A8 8B 45 08                        	MOV	EAX,DWORD [8+EBP]
  1961 000013AB 83 E6 FE                        	AND	ESI,-2
  1962 000013AE 8A 55 24                        	MOV	DL,BYTE [36+EBP]
  1963 000013B1 0F AF 46 04                     	IMUL	EAX,DWORD [4+ESI]
  1964 000013B5 03 45 0C                        	ADD	EAX,DWORD [12+EBP]
  1965 000013B8 8B 0E                           	MOV	ECX,DWORD [ESI]
  1966 000013BA 88 14 08                        	MOV	BYTE [EAX+ECX*1],DL
  1967 000013BD F7 45 18 00000001               	TEST	DWORD [24+EBP],1
  1968 000013C4 0F 85 FFFFFBD6                  	JNE	L280
  1969 000013CA 8B 45 08                        	MOV	EAX,DWORD [8+EBP]
  1970 000013CD 40                              	INC	EAX
  1971 000013CE 50                              	PUSH	EAX
  1972 000013CF 8B 45 0C                        	MOV	EAX,DWORD [12+EBP]
  1973 000013D2 40                              	INC	EAX
  1974 000013D3 50                              	PUSH	EAX
  1975 000013D4 FF 75 08                        	PUSH	DWORD [8+EBP]
  1976 000013D7 FF 75 0C                        	PUSH	DWORD [12+EBP]
  1977 000013DA EB AC                           	JMP	L405
  1978 000013DC                                 L415:
  1979 000013DC 8D 47 0F                        	LEA	EAX,DWORD [15+EDI]
  1980 000013DF 83 E0 F0                        	AND	EAX,-16
  1981 000013E2 50                              	PUSH	EAX
  1982 000013E3 8B 45 18                        	MOV	EAX,DWORD [24+EBP]
  1983 000013E6 03 45 C8                        	ADD	EAX,DWORD [-56+EBP]
  1984 000013E9 FF 75 24                        	PUSH	DWORD [36+EBP]
  1985 000013EC 50                              	PUSH	EAX
  1986 000013ED E8 [00000000]                   	CALL	_memman_free
  1987 000013F2 E9 FFFFFCEB                     	JMP	L400
  1988 000013F7                                 L414:
  1989 000013F7 8D 47 0F                        	LEA	EAX,DWORD [15+EDI]
  1990 000013FA 83 E0 F0                        	AND	EAX,-16
  1991 000013FD 50                              	PUSH	EAX
  1992 000013FE 8B 45 18                        	MOV	EAX,DWORD [24+EBP]
  1993 00001401 03 45 C8                        	ADD	EAX,DWORD [-56+EBP]
  1994 00001404 50                              	PUSH	EAX
  1995 00001405 E8 [00000000]                   	CALL	_memman_alloc
  1996 0000140A 89 45 44                        	MOV	DWORD [68+EBP],EAX
  1997 0000140D E9 FFFFFDE3                     	JMP	L403
  1998 00001412                                 L413:
  1999 00001412 8B 5D 18                        	MOV	EBX,DWORD [24+EBP]
  2000 00001415 83 E7 F0                        	AND	EDI,-16
  2001 00001418 03 5D C8                        	ADD	EBX,DWORD [-56+EBP]
  2002 0000141B 53                              	PUSH	EBX
  2003 0000141C E8 [00000000]                   	CALL	_memman_init
  2004 00001421 57                              	PUSH	EDI
  2005 00001422 FF 75 24                        	PUSH	DWORD [36+EBP]
  2006 00001425 53                              	PUSH	EBX
  2007 00001426 E8 [00000000]                   	CALL	_memman_free
  2008 0000142B 83 C4 10                        	ADD	ESP,16
  2009 0000142E E9 FFFFFB6D                     	JMP	L280
  2010 00001433                                 L412:
  2011 00001433 FF 75 08                        	PUSH	DWORD [8+EBP]
  2012 00001436 FF 75 0C                        	PUSH	DWORD [12+EBP]
  2013 00001439 57                              	PUSH	EDI
  2014 0000143A 8B 75 18                        	MOV	ESI,DWORD [24+EBP]
  2015 0000143D FF 75 24                        	PUSH	DWORD [36+EBP]
  2016 00001440 83 E6 FE                        	AND	ESI,-2
  2017 00001443 0F B6 C3                        	MOVZX	EAX,BL
  2018 00001446 50                              	PUSH	EAX
  2019 00001447 FF 76 04                        	PUSH	DWORD [4+ESI]
  2020 0000144A FF 36                           	PUSH	DWORD [ESI]
  2021 0000144C E8 [00000000]                   	CALL	_boxfill8
  2022 00001451 83 C4 1C                        	ADD	ESP,28
  2023 00001454 F7 45 18 00000001               	TEST	DWORD [24+EBP],1
  2024 0000145B 0F 85 FFFFFB3F                  	JNE	L280
  2025 00001461 E9 FFFFFF14                     	JMP	L314
  2026 00001466                                 L411:
  2027 00001466 8B 55 C8                        	MOV	EDX,DWORD [-56+EBP]
  2028 00001469 8B 75 18                        	MOV	ESI,DWORD [24+EBP]
  2029 0000146C 83 E6 FE                        	AND	ESI,-2
  2030 0000146F 8D 04 1A                        	LEA	EAX,DWORD [EDX+EBX*1]
  2031 00001472 50                              	PUSH	EAX
  2032 00001473 0F BE 45 24                     	MOVSX	EAX,BYTE [36+EBP]
  2033 00001477 50                              	PUSH	EAX
  2034 00001478 FF 75 08                        	PUSH	DWORD [8+EBP]
  2035 0000147B FF 75 0C                        	PUSH	DWORD [12+EBP]
  2036 0000147E FF 76 04                        	PUSH	DWORD [4+ESI]
  2037 00001481 FF 36                           	PUSH	DWORD [ESI]
  2038 00001483 E8 [00000000]                   	CALL	_putfonts8_asc
  2039 00001488 83 C4 18                        	ADD	ESP,24
  2040 0000148B F7 45 18 00000001               	TEST	DWORD [24+EBP],1
  2041 00001492 0F 85 FFFFFB08                  	JNE	L280
  2042 00001498 8B 4D 0C                        	MOV	ECX,DWORD [12+EBP]
  2043 0000149B 8B 45 08                        	MOV	EAX,DWORD [8+EBP]
  2044 0000149E 83 C0 10                        	ADD	EAX,16
  2045 000014A1 50                              	PUSH	EAX
  2046 000014A2 8D 04 F9                        	LEA	EAX,DWORD [ECX+EDI*8]
  2047 000014A5 50                              	PUSH	EAX
  2048 000014A6 FF 75 08                        	PUSH	DWORD [8+EBP]
  2049 000014A9 51                              	PUSH	ECX
  2050 000014AA E9 FFFFFED9                     	JMP	L405
  2051 000014AF                                 L410:
  2052 000014AF 8B 5D 18                        	MOV	EBX,DWORD [24+EBP]
  2053 000014B2 31 F6                           	XOR	ESI,ESI
  2054 000014B4 03 5D C8                        	ADD	EBX,DWORD [-56+EBP]
  2055 000014B7 C7 05 0026F01C D0000000         	MOV	DWORD [2551836],-805306368
  2056 000014C1 89 1D 0026F018                  	MOV	DWORD [2551832],EBX
  2057 000014C7 89 D8                           	MOV	EAX,EBX
  2058 000014C9 8B 55 0C                        	MOV	EDX,DWORD [12+EBP]
  2059 000014CC 25 00000FFF                     	AND	EAX,4095
  2060 000014D1 0F AF 55 08                     	IMUL	EDX,DWORD [8+EBP]
  2061 000014D5 8D 04 10                        	LEA	EAX,DWORD [EAX+EDX*1]
  2062 000014D8 89 45 B4                        	MOV	DWORD [-76+EBP],EAX
  2063 000014DB 05 00000FFF                     	ADD	EAX,4095
  2064 000014E0 C1 F8 0C                        	SAR	EAX,12
  2065 000014E3 39 C6                           	CMP	ESI,EAX
  2066 000014E5 7D 3C                           	JGE	L393
  2067 000014E7 31 C9                           	XOR	ECX,ECX
  2068 000014E9                                 L292:
  2069 000014E9 8D 14 19                        	LEA	EDX,DWORD [ECX+EBX*1]
  2070 000014EC 8D 81 D0000000                  	LEA	EAX,DWORD [-805306368+ECX]
  2071 000014F2 C1 FA 0A                        	SAR	EDX,10
  2072 000014F5 46                              	INC	ESI
  2073 000014F6 C1 F8 0A                        	SAR	EAX,10
  2074 000014F9 83 E2 FC                        	AND	EDX,-4
  2075 000014FC 81 CA FFC00000                  	OR	EDX,-4194304
  2076 00001502 83 E0 FC                        	AND	EAX,-4
  2077 00001505 0D FFC00000                     	OR	EAX,-4194304
  2078 0000150A 81 C1 00001000                  	ADD	ECX,4096
  2079 00001510 8B 12                           	MOV	EDX,DWORD [EDX]
  2080 00001512 89 10                           	MOV	DWORD [EAX],EDX
  2081 00001514 8B 45 B4                        	MOV	EAX,DWORD [-76+EBP]
  2082 00001517 05 00000FFF                     	ADD	EAX,4095
  2083 0000151C C1 F8 0C                        	SAR	EAX,12
  2084 0000151F 39 C6                           	CMP	ESI,EAX
  2085 00001521 7C C6                           	JL	L292
  2086 00001523                                 L393:
  2087 00001523 FF 75 C0                        	PUSH	DWORD [-64+EBP]
  2088 00001526 81 E3 00000FFF                  	AND	EBX,4095
  2089 0000152C E8 [00000000]                   	CALL	_sheet_alloc
  2090 00001531 8B 4D CC                        	MOV	ECX,DWORD [-52+EBP]
  2091 00001534 89 C6                           	MOV	ESI,EAX
  2092 00001536 89 48 24                        	MOV	DWORD [36+EAX],ECX
  2093 00001539 83 48 1C 10                     	OR	DWORD [28+EAX],16
  2094 0000153D FF 75 24                        	PUSH	DWORD [36+EBP]
  2095 00001540 FF 75 08                        	PUSH	DWORD [8+EBP]
  2096 00001543 FF 75 0C                        	PUSH	DWORD [12+EBP]
  2097 00001546 8D 83 D0000000                  	LEA	EAX,DWORD [-805306368+EBX]
  2098 0000154C BB 00000002                     	MOV	EBX,2
  2099 00001551 50                              	PUSH	EAX
  2100 00001552 56                              	PUSH	ESI
  2101 00001553 E8 [00000000]                   	CALL	_sheet_setbuf
  2102 00001558 8B 55 C8                        	MOV	EDX,DWORD [-56+EBP]
  2103 0000155B 6A 00                           	PUSH	0
  2104 0000155D 8D 04 3A                        	LEA	EAX,DWORD [EDX+EDI*1]
  2105 00001560 50                              	PUSH	EAX
  2106 00001561 8B 45 18                        	MOV	EAX,DWORD [24+EBP]
  2107 00001564 FF 75 08                        	PUSH	DWORD [8+EBP]
  2108 00001567 01 D0                           	ADD	EAX,EDX
  2109 00001569 FF 75 0C                        	PUSH	DWORD [12+EBP]
  2110 0000156C 50                              	PUSH	EAX
  2111 0000156D E8 [00000000]                   	CALL	_make_window8
  2112 00001572 8B 4D C0                        	MOV	ECX,DWORD [-64+EBP]
  2113 00001575 83 C4 2C                        	ADD	ESP,44
  2114 00001578 8B 41 0C                        	MOV	EAX,DWORD [12+ECX]
  2115 0000157B 2B 45 08                        	SUB	EAX,DWORD [8+EBP]
  2116 0000157E 99                              	CDQ
  2117 0000157F F7 FB                           	IDIV	EBX
  2118 00001581 50                              	PUSH	EAX
  2119 00001582 8B 41 08                        	MOV	EAX,DWORD [8+ECX]
  2120 00001585 2B 45 0C                        	SUB	EAX,DWORD [12+EBP]
  2121 00001588 99                              	CDQ
  2122 00001589 F7 FB                           	IDIV	EBX
  2123 0000158B 83 E0 FC                        	AND	EAX,-4
  2124 0000158E 50                              	PUSH	EAX
  2125 0000158F 56                              	PUSH	ESI
  2126 00001590 E8 [00000000]                   	CALL	_sheet_slide
  2127 00001595 8B 4D C0                        	MOV	ECX,DWORD [-64+EBP]
  2128 00001598 FF 71 10                        	PUSH	DWORD [16+ECX]
  2129 0000159B 56                              	PUSH	ESI
  2130 0000159C E8 [00000000]                   	CALL	_sheet_updown
  2131 000015A1 89 75 44                        	MOV	DWORD [68+EBP],ESI
  2132 000015A4 E9 FFFFFDE5                     	JMP	L404
  2133 000015A9                                 L409:
  2134 000015A9 8B 45 CC                        	MOV	EAX,DWORD [-52+EBP]
  2135 000015AC 83 C0 30                        	ADD	EAX,48
  2136 000015AF E9 FFFFF9EE                     	JMP	L278
  2137 000015B4                                 L408:
  2138 000015B4 8B 45 18                        	MOV	EAX,DWORD [24+EBP]
  2139 000015B7 57                              	PUSH	EDI
  2140 000015B8 03 45 C8                        	ADD	EAX,DWORD [-56+EBP]
  2141 000015BB 50                              	PUSH	EAX
  2142 000015BC FF 75 C4                        	PUSH	DWORD [-60+EBP]
  2143 000015BF E8 FFFFEF42                     	CALL	_cons_putstr1
  2144 000015C4 E9 FFFFFB19                     	JMP	L400
  2145 000015C9                                 L407:
  2146 000015C9 8B 45 18                        	MOV	EAX,DWORD [24+EBP]
  2147 000015CC 03 45 C8                        	ADD	EAX,DWORD [-56+EBP]
  2148 000015CF 50                              	PUSH	EAX
  2149 000015D0 FF 75 C4                        	PUSH	DWORD [-60+EBP]
  2150 000015D3 E8 FFFFEF00                     	CALL	_cons_putstr0
  2151 000015D8 E9 FFFFFC18                     	JMP	L403
  2152 000015DD                                 L406:
  2153 000015DD 6A 01                           	PUSH	1
  2154 000015DF 0F B6 45 24                     	MOVZX	EAX,BYTE [36+EBP]
  2155 000015E3 50                              	PUSH	EAX
  2156 000015E4 FF 75 C4                        	PUSH	DWORD [-60+EBP]
  2157 000015E7 E8 FFFFED53                     	CALL	_cons_putchar
  2158 000015EC E9 FFFFFAF1                     	JMP	L400
  2159                                          [SECTION .data]
  2160 000000D3                                 LC19:
  2161 000000D3 0A 49 4E 54 20 30 43 20 3A 0A   	DB	0x0A,"INT 0C :",0x0A," Stack Exception.",0x0A,0x00
       000000DD 20 53 74 61 63 6B 20 45 78 63 
       000000E7 65 70 74 69 6F 6E 2E 0A 00 
  2162 000000F0                                 LC20:
  2163 000000F0 45 49 50 20 3D 20 25 30 38 58   	DB	"EIP = %08X",0x0A,0x00
       000000FA 0A 00 
  2164                                          [SECTION .text]
  2165 000015F1                                 	GLOBAL	_inthandler0c
  2166 000015F1                                 _inthandler0c:
  2167 000015F1 55                              	PUSH	EBP
  2168 000015F2 89 E5                           	MOV	EBP,ESP
  2169 000015F4 57                              	PUSH	EDI
  2170 000015F5 56                              	PUSH	ESI
  2171 000015F6 53                              	PUSH	EBX
  2172 000015F7 8D 5D D4                        	LEA	EBX,DWORD [-44+EBP]
  2173 000015FA 83 EC 20                        	SUB	ESP,32
  2174 000015FD E8 [00000000]                   	CALL	_task_now
  2175 00001602 89 C6                           	MOV	ESI,EAX
  2176 00001604 8B B8 000000B4                  	MOV	EDI,DWORD [180+EAX]
  2177 0000160A 83 C6 30                        	ADD	ESI,48
  2178 0000160D 68 [000000D3]                   	PUSH	LC19
  2179 00001612 57                              	PUSH	EDI
  2180 00001613 E8 FFFFEEC0                     	CALL	_cons_putstr0
  2181 00001618 8B 45 08                        	MOV	EAX,DWORD [8+EBP]
  2182 0000161B FF 70 2C                        	PUSH	DWORD [44+EAX]
  2183 0000161E 68 [000000F0]                   	PUSH	LC20
  2184 00001623 53                              	PUSH	EBX
  2185 00001624 E8 [00000000]                   	CALL	_sprintf
  2186 00001629 53                              	PUSH	EBX
  2187 0000162A 57                              	PUSH	EDI
  2188 0000162B E8 FFFFEEA8                     	CALL	_cons_putstr0
  2189 00001630 8D 65 F4                        	LEA	ESP,DWORD [-12+EBP]
  2190 00001633 5B                              	POP	EBX
  2191 00001634 89 F0                           	MOV	EAX,ESI
  2192 00001636 5E                              	POP	ESI
  2193 00001637 5F                              	POP	EDI
  2194 00001638 5D                              	POP	EBP
  2195 00001639 C3                              	RET
  2196                                          [SECTION .data]
  2197 000000FC                                 LC21:
  2198 000000FC 0A 49 4E 54 20 30 44 20 3A 0A   	DB	0x0A,"INT 0D :",0x0A," General Protected Exception.",0x0A,0x00
       00000106 20 47 65 6E 65 72 61 6C 20 50 
       00000110 72 6F 74 65 63 74 65 64 20 45 
       0000011A 78 63 65 70 74 69 6F 6E 2E 0A 
       00000124 00 
  2199 00000125                                 LC22:
  2200 00000125 45 52 52 4F 52 20 43 4F 44 45   	DB	"ERROR CODE =%08X",0x0A,0x00
       0000012F 20 3D 25 30 38 58 0A 00 
  2201                                          [SECTION .text]
  2202 0000163A                                 	GLOBAL	_inthandler0d
  2203 0000163A                                 _inthandler0d:
  2204 0000163A 55                              	PUSH	EBP
  2205 0000163B 89 E5                           	MOV	EBP,ESP
  2206 0000163D 57                              	PUSH	EDI
  2207 0000163E 56                              	PUSH	ESI
  2208 0000163F 53                              	PUSH	EBX
  2209 00001640 8D 5D D4                        	LEA	EBX,DWORD [-44+EBP]
  2210 00001643 83 EC 20                        	SUB	ESP,32
  2211 00001646 E8 [00000000]                   	CALL	_task_now
  2212 0000164B 89 C6                           	MOV	ESI,EAX
  2213 0000164D 8B B8 000000B4                  	MOV	EDI,DWORD [180+EAX]
  2214 00001653 83 C6 30                        	ADD	ESI,48
  2215 00001656 68 [000000FC]                   	PUSH	LC21
  2216 0000165B 57                              	PUSH	EDI
  2217 0000165C E8 FFFFEE77                     	CALL	_cons_putstr0
  2218 00001661 8B 45 08                        	MOV	EAX,DWORD [8+EBP]
  2219 00001664 FF 70 2C                        	PUSH	DWORD [44+EAX]
  2220 00001667 68 [000000F0]                   	PUSH	LC20
  2221 0000166C 53                              	PUSH	EBX
  2222 0000166D E8 [00000000]                   	CALL	_sprintf
  2223 00001672 53                              	PUSH	EBX
  2224 00001673 57                              	PUSH	EDI
  2225 00001674 E8 FFFFEE5F                     	CALL	_cons_putstr0
  2226 00001679 8B 45 08                        	MOV	EAX,DWORD [8+EBP]
  2227 0000167C FF 70 28                        	PUSH	DWORD [40+EAX]
  2228 0000167F 68 [00000125]                   	PUSH	LC22
  2229 00001684 53                              	PUSH	EBX
  2230 00001685 E8 [00000000]                   	CALL	_sprintf
  2231 0000168A 83 C4 28                        	ADD	ESP,40
  2232 0000168D 53                              	PUSH	EBX
  2233 0000168E 57                              	PUSH	EDI
  2234 0000168F E8 FFFFEE44                     	CALL	_cons_putstr0
  2235 00001694 8D 65 F4                        	LEA	ESP,DWORD [-12+EBP]
  2236 00001697 5B                              	POP	EBX
  2237 00001698 89 F0                           	MOV	EAX,ESI
  2238 0000169A 5E                              	POP	ESI
  2239 0000169B 5F                              	POP	EDI
  2240 0000169C 5D                              	POP	EBP
  2241 0000169D C3                              	RET
  2242 0000169E                                 	GLOBAL	_hrb_api_linewin
  2243 0000169E                                 _hrb_api_linewin:
  2244 0000169E 55                              	PUSH	EBP
  2245 0000169F 89 E5                           	MOV	EBP,ESP
  2246 000016A1 57                              	PUSH	EDI
  2247 000016A2 56                              	PUSH	ESI
  2248 000016A3 53                              	PUSH	EBX
  2249 000016A4 83 EC 0C                        	SUB	ESP,12
  2250 000016A7 8B 5D 0C                        	MOV	EBX,DWORD [12+EBP]
  2251 000016AA 8B 45 14                        	MOV	EAX,DWORD [20+EBP]
  2252 000016AD 89 D9                           	MOV	ECX,EBX
  2253 000016AF 8B 55 18                        	MOV	EDX,DWORD [24+EBP]
  2254 000016B2 C1 E1 0A                        	SAL	ECX,10
  2255 000016B5 89 D7                           	MOV	EDI,EDX
  2256 000016B7 89 4D F0                        	MOV	DWORD [-16+EBP],ECX
  2257 000016BA 89 C6                           	MOV	ESI,EAX
  2258 000016BC 8B 4D 10                        	MOV	ECX,DWORD [16+EBP]
  2259 000016BF 2B 7D 10                        	SUB	EDI,DWORD [16+EBP]
  2260 000016C2 C1 E1 0A                        	SAL	ECX,10
  2261 000016C5 29 DE                           	SUB	ESI,EBX
  2262 000016C7 89 4D EC                        	MOV	DWORD [-20+EBP],ECX
  2263 000016CA 0F 88 000000A3                  	JS	L464
  2264 000016D0                                 L443:
  2265 000016D0 85 FF                           	TEST	EDI,EDI
  2266 000016D2 0F 88 00000094                  	JS	L465
  2267 000016D8                                 L444:
  2268 000016D8 39 FE                           	CMP	ESI,EDI
  2269 000016DA 7C 62                           	JL	L445
  2270 000016DC 8D 4E 01                        	LEA	ECX,DWORD [1+ESI]
  2271 000016DF 39 C3                           	CMP	EBX,EAX
  2272 000016E1 BE FFFFFC00                     	MOV	ESI,-1024
  2273 000016E6 7F 05                           	JG	L447
  2274 000016E8 BE 00000400                     	MOV	ESI,1024
  2275 000016ED                                 L447:
  2276 000016ED 39 55 10                        	CMP	DWORD [16+EBP],EDX
  2277 000016F0 7F 46                           	JG	L448
  2278 000016F2 2B 55 10                        	SUB	EDX,DWORD [16+EBP]
  2279 000016F5 42                              	INC	EDX
  2280 000016F6                                 L463:
  2281 000016F6 C1 E2 0A                        	SAL	EDX,10
  2282 000016F9 89 D0                           	MOV	EAX,EDX
  2283 000016FB 99                              	CDQ
  2284 000016FC F7 F9                           	IDIV	ECX
  2285 000016FE 89 C7                           	MOV	EDI,EAX
  2286 00001700                                 L450:
  2287 00001700 85 C9                           	TEST	ECX,ECX
  2288 00001702 7E 2C                           	JLE	L461
  2289 00001704 89 CB                           	MOV	EBX,ECX
  2290 00001706                                 L459:
  2291 00001706 8B 55 08                        	MOV	EDX,DWORD [8+EBP]
  2292 00001709 8B 45 EC                        	MOV	EAX,DWORD [-20+EBP]
  2293 0000170C C1 F8 0A                        	SAR	EAX,10
  2294 0000170F 8B 4D F0                        	MOV	ECX,DWORD [-16+EBP]
  2295 00001712 0F AF 42 04                     	IMUL	EAX,DWORD [4+EDX]
  2296 00001716 C1 F9 0A                        	SAR	ECX,10
  2297 00001719 89 4D E8                        	MOV	DWORD [-24+EBP],ECX
  2298 0000171C 8B 0A                           	MOV	ECX,DWORD [EDX]
  2299 0000171E 03 45 E8                        	ADD	EAX,DWORD [-24+EBP]
  2300 00001721 8A 55 1C                        	MOV	DL,BYTE [28+EBP]
  2301 00001724 88 14 08                        	MOV	BYTE [EAX+ECX*1],DL
  2302 00001727 01 75 F0                        	ADD	DWORD [-16+EBP],ESI
  2303 0000172A 01 7D EC                        	ADD	DWORD [-20+EBP],EDI
  2304 0000172D 4B                              	DEC	EBX
  2305 0000172E 75 D6                           	JNE	L459
  2306 00001730                                 L461:
  2307 00001730 83 C4 0C                        	ADD	ESP,12
  2308 00001733 5B                              	POP	EBX
  2309 00001734 5E                              	POP	ESI
  2310 00001735 5F                              	POP	EDI
  2311 00001736 5D                              	POP	EBP
  2312 00001737 C3                              	RET
  2313 00001738                                 L448:
  2314 00001738 2B 55 10                        	SUB	EDX,DWORD [16+EBP]
  2315 0000173B 4A                              	DEC	EDX
  2316 0000173C EB B8                           	JMP	L463
  2317 0000173E                                 L445:
  2318 0000173E 8D 4F 01                        	LEA	ECX,DWORD [1+EDI]
  2319 00001741 39 55 10                        	CMP	DWORD [16+EBP],EDX
  2320 00001744 BF FFFFFC00                     	MOV	EDI,-1024
  2321 00001749 7F 05                           	JG	L452
  2322 0000174B BF 00000400                     	MOV	EDI,1024
  2323 00001750                                 L452:
  2324 00001750 39 C3                           	CMP	EBX,EAX
  2325 00001752 7F 11                           	JG	L453
  2326 00001754 29 D8                           	SUB	EAX,EBX
  2327 00001756 8D 50 01                        	LEA	EDX,DWORD [1+EAX]
  2328 00001759                                 L462:
  2329 00001759 C1 E2 0A                        	SAL	EDX,10
  2330 0000175C 89 D0                           	MOV	EAX,EDX
  2331 0000175E 99                              	CDQ
  2332 0000175F F7 F9                           	IDIV	ECX
  2333 00001761 89 C6                           	MOV	ESI,EAX
  2334 00001763 EB 9B                           	JMP	L450
  2335 00001765                                 L453:
  2336 00001765 29 D8                           	SUB	EAX,EBX
  2337 00001767 8D 50 FF                        	LEA	EDX,DWORD [-1+EAX]
  2338 0000176A EB ED                           	JMP	L462
  2339 0000176C                                 L465:
  2340 0000176C F7 DF                           	NEG	EDI
  2341 0000176E E9 FFFFFF65                     	JMP	L444
  2342 00001773                                 L464:
  2343 00001773 F7 DE                           	NEG	ESI
  2344 00001775 E9 FFFFFF56                     	JMP	L443
