     1 00000000                                 [FORMAT "WCOFF"]
     2 00000000                                 [INSTRSET "i486p"]
     3 00000000                                 [OPTIMIZE 1]
     4 00000000                                 [OPTION 1]
     5 00000000                                 [BITS 32]
     6 00000000                                 	EXTERN	_task_now
     7 00000000                                 	EXTERN	_memman_alloc_4k
     8 00000000                                 	EXTERN	_pageman_link_page_32_m
     9 00000000                                 	EXTERN	_timer_alloc
    10 00000000                                 	EXTERN	_timer_init
    11 00000000                                 	EXTERN	_timer_settime
    12 00000000                                 	EXTERN	_file_readfat
    13 00000000                                 	EXTERN	_io_cli
    14 00000000                                 	EXTERN	_fifo32_status
    15 00000000                                 	EXTERN	_fifo32_get
    16 00000000                                 	EXTERN	_io_sti
    17 00000000                                 	EXTERN	_boxfill32
    18 00000000                                 	EXTERN	_sheet_refresh
    19 00000000                                 	EXTERN	_task_sleep
    20 00000000                                 	EXTERN	_putfonts8_asc_sht32
    21 00000000                                 	EXTERN	_desktop_start
    22 00000000                                 	EXTERN	_io_out8
    23 00000000                                 	EXTERN	_sys_reboot
    24 00000000                                 	EXTERN	_rdrand
    25 00000000                                 	EXTERN	_sprintf
    26 00000000                                 	EXTERN	_memman_total
    27 00000000                                 	EXTERN	_system_task
    28 00000000                                 	EXTERN	_timer_cancel
    29 00000000                                 	EXTERN	_pageman_unlink_page_32
    30 00000000                                 	EXTERN	_memman_free_4k
    31 00000000                                 	EXTERN	_sheet_free
    32 00000000                                 	EXTERN	_system_task_abort
    33 00000000                                 	EXTERN	_fifo32_put
    34 00000000                                 	EXTERN	_open_console
    35 00000000                                 	EXTERN	_sheet_slide
    36 00000000                                 	EXTERN	_sheet_updown
    37 00000000                                 	EXTERN	_open_constask
    38 00000000                                 	EXTERN	_file_search
    39 00000000                                 	EXTERN	_file_loadfile2
    40 00000000                                 	EXTERN	_set_segmdesc
    41 00000000                                 	EXTERN	_start_app
    42 00000000                                 	EXTERN	_timer_cancelall
    43 00000000                                 	EXTERN	_io_in8
    44 00000000                                 	EXTERN	_timer_free
    45 00000000                                 	EXTERN	_memman_free
    46 00000000                                 	EXTERN	_memman_alloc
    47 00000000                                 	EXTERN	_memman_init
    48 00000000                                 	EXTERN	_putfonts32_asc
    49 00000000                                 	EXTERN	_sheet_alloc
    50 00000000                                 	EXTERN	_sheet_setbuf
    51 00000000                                 	EXTERN	_make_window8
    52 00000000                                 [FILE "console.c"]
    53                                          [SECTION .text]
    54 00000000                                 	GLOBAL	_console_task
    55 00000000                                 _console_task:
    56 00000000 55                              	PUSH	EBP
    57 00000001 89 E5                           	MOV	EBP,ESP
    58 00000003 57                              	PUSH	EDI
    59 00000004 56                              	PUSH	ESI
    60 00000005 53                              	PUSH	EBX
    61 00000006 81 EC 000000B8                  	SUB	ESP,184
    62 0000000C 8B 75 08                        	MOV	ESI,DWORD [8+EBP]
    63 0000000F 8B 1D 0026F000                  	MOV	EBX,DWORD [2551808]
    64 00000015 E8 [00000000]                   	CALL	_task_now
    65 0000001A 89 C7                           	MOV	EDI,EAX
    66 0000001C E8 [00000000]                   	CALL	_task_now
    67 00000021 68 00002D00                     	PUSH	11520
    68 00000026 FF B0 00000104                  	PUSH	DWORD [260+EAX]
    69 0000002C E8 [00000000]                   	CALL	_memman_alloc_4k
    70 00000031 6A 00                           	PUSH	0
    71 00000033 6A 03                           	PUSH	3
    72 00000035 6A 07                           	PUSH	7
    73 00000037 89 85 FFFFFF40                  	MOV	DWORD [-192+EBP],EAX
    74 0000003D 50                              	PUSH	EAX
    75 0000003E 53                              	PUSH	EBX
    76 0000003F E8 [00000000]                   	CALL	_pageman_link_page_32_m
    77 00000044 83 C4 1C                        	ADD	ESP,28
    78 00000047 8D 45 C4                        	LEA	EAX,DWORD [-60+EBP]
    79 0000004A 8B 1D 00000FE8                  	MOV	EBX,DWORD [4072]
    80 00000050 89 87 000000B4                  	MOV	DWORD [180+EDI],EAX
    81 00000056 89 75 C4                        	MOV	DWORD [-60+EBP],ESI
    82 00000059 8D 85 FFFFFF44                  	LEA	EAX,DWORD [-188+EBP]
    83 0000005F 85 F6                           	TEST	ESI,ESI
    84 00000061 C7 45 C8 00000008               	MOV	DWORD [-56+EBP],8
    85 00000068 C7 45 CC 0000001C               	MOV	DWORD [-52+EBP],28
    86 0000006F C7 45 D0 FFFFFFFF               	MOV	DWORD [-48+EBP],-1
    87 00000076 89 87 000000C8                  	MOV	DWORD [200+EDI],EAX
    88 0000007C 74 21                           	JE	L2
    89 0000007E E8 [00000000]                   	CALL	_timer_alloc
    90 00000083 8D 57 10                        	LEA	EDX,DWORD [16+EDI]
    91 00000086 6A 01                           	PUSH	1
    92 00000088 52                              	PUSH	EDX
    93 00000089 89 45 D4                        	MOV	DWORD [-44+EBP],EAX
    94 0000008C 50                              	PUSH	EAX
    95 0000008D E8 [00000000]                   	CALL	_timer_init
    96 00000092 6A 32                           	PUSH	50
    97 00000094 FF 75 D4                        	PUSH	DWORD [-44+EBP]
    98 00000097 E8 [00000000]                   	CALL	_timer_settime
    99 0000009C 83 C4 14                        	ADD	ESP,20
   100 0000009F                                 L2:
   101 0000009F 68 00100200                     	PUSH	1049088
   102 000000A4 BE 00000007                     	MOV	ESI,7
   103 000000A9 FF B5 FFFFFF40                  	PUSH	DWORD [-192+EBP]
   104 000000AF E8 [00000000]                   	CALL	_file_readfat
   105 000000B4 58                              	POP	EAX
   106 000000B5 5A                              	POP	EDX
   107 000000B6 31 C0                           	XOR	EAX,EAX
   108 000000B8                                 L7:
   109 000000B8 C7 84 05 FFFFFF64 00000000      	MOV	DWORD [-156+EBP+EAX*1],0
   110 000000C3 83 C0 0C                        	ADD	EAX,12
   111 000000C6 4E                              	DEC	ESI
   112 000000C7 79 EF                           	JNS	L7
   113 000000C9 8D 85 FFFFFF64                  	LEA	EAX,DWORD [-156+EBP]
   114 000000CF 89 87 000000C0                  	MOV	DWORD [192+EDI],EAX
   115 000000D5 8B 85 FFFFFF40                  	MOV	EAX,DWORD [-192+EBP]
   116 000000DB 89 87 000000C4                  	MOV	DWORD [196+EDI],EAX
   117 000000E1 8D 45 C4                        	LEA	EAX,DWORD [-60+EBP]
   118 000000E4 80 BB 00001000 FF               	CMP	BYTE [4096+EBX],-1
   119 000000EB C6 87 000000CD 00               	MOV	BYTE [205+EDI],0
   120 000000F2 0F 95 87 000000CC               	SETNE	BYTE [204+EDI]
   121 000000F9 6A 01                           	PUSH	1
   122 000000FB 6A 3E                           	PUSH	62
   123 000000FD 50                              	PUSH	EAX
   124 000000FE E8 00000248                     	CALL	_cons_putchar
   125 00000103 83 C4 0C                        	ADD	ESP,12
   126 00000106                                 L10:
   127 00000106 8D 5F 10                        	LEA	EBX,DWORD [16+EDI]
   128 00000109 E8 [00000000]                   	CALL	_io_cli
   129 0000010E 53                              	PUSH	EBX
   130 0000010F E8 [00000000]                   	CALL	_fifo32_status
   131 00000114 5E                              	POP	ESI
   132 00000115 85 C0                           	TEST	EAX,EAX
   133 00000117 0F 84 0000021D                  	JE	L39
   134 0000011D 53                              	PUSH	EBX
   135 0000011E E8 [00000000]                   	CALL	_fifo32_get
   136 00000123 89 C6                           	MOV	ESI,EAX
   137 00000125 E8 [00000000]                   	CALL	_io_sti
   138 0000012A 59                              	POP	ECX
   139 0000012B 83 FE 01                        	CMP	ESI,1
   140 0000012E 0F 8E 000001AF                  	JLE	L40
   141 00000134                                 L15:
   142 00000134 83 FE 02                        	CMP	ESI,2
   143 00000137 0F 84 0000019A                  	JE	L41
   144 0000013D                                 L20:
   145 0000013D 83 FE 03                        	CMP	ESI,3
   146 00000140 0F 84 0000015F                  	JE	L42
   147 00000146                                 L21:
   148 00000146 83 FE 04                        	CMP	ESI,4
   149 00000149 0F 84 00000140                  	JE	L43
   150 0000014F                                 L23:
   151 0000014F 8D 8E FFFFFF00                  	LEA	ECX,DWORD [-256+ESI]
   152 00000155 89 8D FFFFFF3C                  	MOV	DWORD [-196+EBP],ECX
   153 0000015B 81 F9 000000FF                  	CMP	ECX,255
   154 00000161 77 4E                           	JA	L24
   155 00000163 81 FE 00000108                  	CMP	ESI,264
   156 00000169 0F 84 00000100                  	JE	L44
   157 0000016F 81 FE 0000010A                  	CMP	ESI,266
   158 00000175 0F 84 00000095                  	JE	L45
   159 0000017B 8B 4D C8                        	MOV	ECX,DWORD [-56+EBP]
   160 0000017E 81 F9 000000EF                  	CMP	ECX,239
   161 00000184 7F 2B                           	JG	L24
   162 00000186 89 C8                           	MOV	EAX,ECX
   163 00000188 BA 00000008                     	MOV	EDX,8
   164 0000018D 89 D3                           	MOV	EBX,EDX
   165 0000018F 6A 01                           	PUSH	1
   166 00000191 99                              	CDQ
   167 00000192 F7 FB                           	IDIV	EBX
   168 00000194 89 C1                           	MOV	ECX,EAX
   169 00000196 89 F0                           	MOV	EAX,ESI
   170 00000198 88 84 0D FFFFFF42               	MOV	BYTE [-190+EBP+ECX*1],AL
   171 0000019F 8D 45 C4                        	LEA	EAX,DWORD [-60+EBP]
   172 000001A2 FF B5 FFFFFF3C                  	PUSH	DWORD [-196+EBP]
   173 000001A8 50                              	PUSH	EAX
   174 000001A9                                 L37:
   175 000001A9 E8 0000019D                     	CALL	_cons_putchar
   176 000001AE                                 L38:
   177 000001AE 83 C4 0C                        	ADD	ESP,12
   178 000001B1                                 L24:
   179 000001B1 8B 5D C4                        	MOV	EBX,DWORD [-60+EBP]
   180 000001B4 85 DB                           	TEST	EBX,EBX
   181 000001B6 0F 84 FFFFFF4A                  	JE	L10
   182 000001BC 8B 75 D0                        	MOV	ESI,DWORD [-48+EBP]
   183 000001BF 85 F6                           	TEST	ESI,ESI
   184 000001C1 78 1E                           	JS	L33
   185 000001C3 8B 4D CC                        	MOV	ECX,DWORD [-52+EBP]
   186 000001C6 8B 55 C8                        	MOV	EDX,DWORD [-56+EBP]
   187 000001C9 8D 41 0F                        	LEA	EAX,DWORD [15+ECX]
   188 000001CC 50                              	PUSH	EAX
   189 000001CD 8D 42 07                        	LEA	EAX,DWORD [7+EDX]
   190 000001D0 50                              	PUSH	EAX
   191 000001D1 51                              	PUSH	ECX
   192 000001D2 52                              	PUSH	EDX
   193 000001D3 56                              	PUSH	ESI
   194 000001D4 FF 73 08                        	PUSH	DWORD [8+EBX]
   195 000001D7 FF 33                           	PUSH	DWORD [EBX]
   196 000001D9 E8 [00000000]                   	CALL	_boxfill32
   197 000001DE 83 C4 1C                        	ADD	ESP,28
   198 000001E1                                 L33:
   199 000001E1 8B 5D C4                        	MOV	EBX,DWORD [-60+EBP]
   200 000001E4 A1 00000FE4                     	MOV	EAX,DWORD [4068]
   201 000001E9 39 43 28                        	CMP	DWORD [40+EBX],EAX
   202 000001EC 0F 85 FFFFFF14                  	JNE	L10
   203 000001F2 8B 4D CC                        	MOV	ECX,DWORD [-52+EBP]
   204 000001F5 8B 55 C8                        	MOV	EDX,DWORD [-56+EBP]
   205 000001F8 8D 41 10                        	LEA	EAX,DWORD [16+ECX]
   206 000001FB 50                              	PUSH	EAX
   207 000001FC 8D 42 08                        	LEA	EAX,DWORD [8+EDX]
   208 000001FF 50                              	PUSH	EAX
   209 00000200 51                              	PUSH	ECX
   210 00000201 52                              	PUSH	EDX
   211 00000202 53                              	PUSH	EBX
   212 00000203 E8 [00000000]                   	CALL	_sheet_refresh
   213 00000208 83 C4 14                        	ADD	ESP,20
   214 0000020B E9 FFFFFEF6                     	JMP	L10
   215 00000210                                 L45:
   216 00000210 6A 00                           	PUSH	0
   217 00000212 8D 5D C4                        	LEA	EBX,DWORD [-60+EBP]
   218 00000215 6A 20                           	PUSH	32
   219 00000217 53                              	PUSH	EBX
   220 00000218 E8 0000012E                     	CALL	_cons_putchar
   221 0000021D 53                              	PUSH	EBX
   222 0000021E 8B 45 C8                        	MOV	EAX,DWORD [-56+EBP]
   223 00000221 BA 00000008                     	MOV	EDX,8
   224 00000226 89 D1                           	MOV	ECX,EDX
   225 00000228 99                              	CDQ
   226 00000229 F7 F9                           	IDIV	ECX
   227 0000022B C6 84 05 FFFFFF42 00            	MOV	BYTE [-190+EBP+EAX*1],0
   228 00000233 E8 000001CA                     	CALL	_cons_newline
   229 00000238 8D 85 FFFFFF44                  	LEA	EAX,DWORD [-188+EBP]
   230 0000023E FF 75 0C                        	PUSH	DWORD [12+EBP]
   231 00000241 FF B5 FFFFFF40                  	PUSH	DWORD [-192+EBP]
   232 00000247 53                              	PUSH	EBX
   233 00000248 50                              	PUSH	EAX
   234 00000249 E8 00000310                     	CALL	_cons_runcmd
   235 0000024E 83 C4 20                        	ADD	ESP,32
   236 00000251 83 7D C4 00                     	CMP	DWORD [-60+EBP],0
   237 00000255 75 0E                           	JNE	L29
   238 00000257 FF B5 FFFFFF40                  	PUSH	DWORD [-192+EBP]
   239 0000025D 53                              	PUSH	EBX
   240 0000025E E8 000006CD                     	CALL	_cmd_exit
   241 00000263 58                              	POP	EAX
   242 00000264 5A                              	POP	EDX
   243 00000265                                 L29:
   244 00000265 6A 01                           	PUSH	1
   245 00000267 6A 3E                           	PUSH	62
   246 00000269 53                              	PUSH	EBX
   247 0000026A E9 FFFFFF3A                     	JMP	L37
   248 0000026F                                 L44:
   249 0000026F 83 7D C8 10                     	CMP	DWORD [-56+EBP],16
   250 00000273 0F 8E FFFFFF38                  	JLE	L24
   251 00000279 6A 00                           	PUSH	0
   252 0000027B 8D 45 C4                        	LEA	EAX,DWORD [-60+EBP]
   253 0000027E 6A 20                           	PUSH	32
   254 00000280 50                              	PUSH	EAX
   255 00000281 E8 000000C5                     	CALL	_cons_putchar
   256 00000286 83 6D C8 08                     	SUB	DWORD [-56+EBP],8
   257 0000028A E9 FFFFFF1F                     	JMP	L38
   258 0000028F                                 L43:
   259 0000028F FF B5 FFFFFF40                  	PUSH	DWORD [-192+EBP]
   260 00000295 8D 45 C4                        	LEA	EAX,DWORD [-60+EBP]
   261 00000298 50                              	PUSH	EAX
   262 00000299 E8 00000692                     	CALL	_cmd_exit
   263 0000029E 59                              	POP	ECX
   264 0000029F 5B                              	POP	EBX
   265 000002A0 E9 FFFFFEAA                     	JMP	L23
   266 000002A5                                 L42:
   267 000002A5 8B 5D C4                        	MOV	EBX,DWORD [-60+EBP]
   268 000002A8 85 DB                           	TEST	EBX,EBX
   269 000002AA 74 1F                           	JE	L22
   270 000002AC 8B 4D CC                        	MOV	ECX,DWORD [-52+EBP]
   271 000002AF 8B 55 C8                        	MOV	EDX,DWORD [-56+EBP]
   272 000002B2 8D 41 0F                        	LEA	EAX,DWORD [15+ECX]
   273 000002B5 50                              	PUSH	EAX
   274 000002B6 8D 42 07                        	LEA	EAX,DWORD [7+EDX]
   275 000002B9 50                              	PUSH	EAX
   276 000002BA 51                              	PUSH	ECX
   277 000002BB 52                              	PUSH	EDX
   278 000002BC 6A 00                           	PUSH	0
   279 000002BE FF 73 08                        	PUSH	DWORD [8+EBX]
   280 000002C1 FF 33                           	PUSH	DWORD [EBX]
   281 000002C3 E8 [00000000]                   	CALL	_boxfill32
   282 000002C8 83 C4 1C                        	ADD	ESP,28
   283 000002CB                                 L22:
   284 000002CB C7 45 D0 FFFFFFFF               	MOV	DWORD [-48+EBP],-1
   285 000002D2 E9 FFFFFE6F                     	JMP	L21
   286 000002D7                                 L41:
   287 000002D7 C7 45 D0 00FFFFFF               	MOV	DWORD [-48+EBP],16777215
   288 000002DE E9 FFFFFE5A                     	JMP	L20
   289 000002E3                                 L40:
   290 000002E3 83 7D C4 00                     	CMP	DWORD [-60+EBP],0
   291 000002E7 0F 84 FFFFFE47                  	JE	L15
   292 000002ED 85 F6                           	TEST	ESI,ESI
   293 000002EF 74 2C                           	JE	L16
   294 000002F1 6A 00                           	PUSH	0
   295 000002F3 53                              	PUSH	EBX
   296 000002F4 FF 75 D4                        	PUSH	DWORD [-44+EBP]
   297 000002F7 E8 [00000000]                   	CALL	_timer_init
   298 000002FC 83 C4 0C                        	ADD	ESP,12
   299 000002FF 83 7D D0 00                     	CMP	DWORD [-48+EBP],0
   300 00000303 78 07                           	JS	L18
   301 00000305 C7 45 D0 00FFFFFF               	MOV	DWORD [-48+EBP],16777215
   302 0000030C                                 L18:
   303 0000030C 6A 32                           	PUSH	50
   304 0000030E FF 75 D4                        	PUSH	DWORD [-44+EBP]
   305 00000311 E8 [00000000]                   	CALL	_timer_settime
   306 00000316 58                              	POP	EAX
   307 00000317 5A                              	POP	EDX
   308 00000318 E9 FFFFFE17                     	JMP	L15
   309 0000031D                                 L16:
   310 0000031D 6A 01                           	PUSH	1
   311 0000031F 53                              	PUSH	EBX
   312 00000320 FF 75 D4                        	PUSH	DWORD [-44+EBP]
   313 00000323 E8 [00000000]                   	CALL	_timer_init
   314 00000328 83 C4 0C                        	ADD	ESP,12
   315 0000032B 83 7D D0 00                     	CMP	DWORD [-48+EBP],0
   316 0000032F 78 DB                           	JS	L18
   317 00000331 C7 45 D0 00000000               	MOV	DWORD [-48+EBP],0
   318 00000338 EB D2                           	JMP	L18
   319 0000033A                                 L39:
   320 0000033A 57                              	PUSH	EDI
   321 0000033B E8 [00000000]                   	CALL	_task_sleep
   322 00000340 E8 [00000000]                   	CALL	_io_sti
   323 00000345 5B                              	POP	EBX
   324 00000346 E9 FFFFFDBB                     	JMP	L10
   325                                          [SECTION .data]
   326 00000000                                 LC0:
   327 00000000 20 00                           	DB	" ",0x00
   328                                          [SECTION .text]
   329 0000034B                                 	GLOBAL	_cons_putchar
   330 0000034B                                 _cons_putchar:
   331 0000034B 55                              	PUSH	EBP
   332 0000034C 89 E5                           	MOV	EBP,ESP
   333 0000034E 53                              	PUSH	EBX
   334 0000034F 50                              	PUSH	EAX
   335 00000350 8B 45 0C                        	MOV	EAX,DWORD [12+EBP]
   336 00000353 8A 55 10                        	MOV	DL,BYTE [16+EBP]
   337 00000356 8B 5D 08                        	MOV	EBX,DWORD [8+EBP]
   338 00000359 88 55 F9                        	MOV	BYTE [-7+EBP],DL
   339 0000035C 88 45 FA                        	MOV	BYTE [-6+EBP],AL
   340 0000035F 3C 09                           	CMP	AL,9
   341 00000361 C6 45 FB 00                     	MOV	BYTE [-5+EBP],0
   342 00000365 74 50                           	JE	L48
   343 00000367 3C 0A                           	CMP	AL,10
   344 00000369 74 25                           	JE	L62
   345 0000036B 3C 0D                           	CMP	AL,13
   346 0000036D 74 1C                           	JE	L46
   347 0000036F 8B 13                           	MOV	EDX,DWORD [EBX]
   348 00000371 85 D2                           	TEST	EDX,EDX
   349 00000373 75 24                           	JNE	L63
   350 00000375                                 L59:
   351 00000375 80 7D F9 00                     	CMP	BYTE [-7+EBP],0
   352 00000379 74 10                           	JE	L46
   353 0000037B 8B 43 04                        	MOV	EAX,DWORD [4+EBX]
   354 0000037E 83 C0 08                        	ADD	EAX,8
   355 00000381 89 43 04                        	MOV	DWORD [4+EBX],EAX
   356 00000384 3D 000000F8                     	CMP	EAX,248
   357 00000389 74 05                           	JE	L62
   358 0000038B                                 L46:
   359 0000038B 8B 5D FC                        	MOV	EBX,DWORD [-4+EBP]
   360 0000038E C9                              	LEAVE
   361 0000038F C3                              	RET
   362 00000390                                 L62:
   363 00000390 53                              	PUSH	EBX
   364 00000391 E8 0000006C                     	CALL	_cons_newline
   365 00000396 59                              	POP	ECX
   366 00000397 EB F2                           	JMP	L46
   367 00000399                                 L63:
   368 00000399 6A 01                           	PUSH	1
   369 0000039B 8D 45 FA                        	LEA	EAX,DWORD [-6+EBP]
   370 0000039E 50                              	PUSH	EAX
   371 0000039F 6A 00                           	PUSH	0
   372 000003A1 68 00FFFFFF                     	PUSH	16777215
   373 000003A6 FF 73 08                        	PUSH	DWORD [8+EBX]
   374 000003A9 FF 73 04                        	PUSH	DWORD [4+EBX]
   375 000003AC 52                              	PUSH	EDX
   376 000003AD E8 [00000000]                   	CALL	_putfonts8_asc_sht32
   377 000003B2 83 C4 1C                        	ADD	ESP,28
   378 000003B5 EB BE                           	JMP	L59
   379 000003B7                                 L48:
   380 000003B7 8B 03                           	MOV	EAX,DWORD [EBX]
   381 000003B9 85 C0                           	TEST	EAX,EAX
   382 000003BB 75 26                           	JNE	L64
   383 000003BD                                 L51:
   384 000003BD 8B 43 04                        	MOV	EAX,DWORD [4+EBX]
   385 000003C0 83 C0 08                        	ADD	EAX,8
   386 000003C3 89 43 04                        	MOV	DWORD [4+EBX],EAX
   387 000003C6 3D 000000F8                     	CMP	EAX,248
   388 000003CB 74 0D                           	JE	L65
   389 000003CD                                 L52:
   390 000003CD 8B 43 04                        	MOV	EAX,DWORD [4+EBX]
   391 000003D0 83 E8 08                        	SUB	EAX,8
   392 000003D3 83 E0 1F                        	AND	EAX,31
   393 000003D6 75 DF                           	JNE	L48
   394 000003D8 EB B1                           	JMP	L46
   395 000003DA                                 L65:
   396 000003DA 53                              	PUSH	EBX
   397 000003DB E8 00000022                     	CALL	_cons_newline
   398 000003E0 58                              	POP	EAX
   399 000003E1 EB EA                           	JMP	L52
   400 000003E3                                 L64:
   401 000003E3 6A 01                           	PUSH	1
   402 000003E5 68 [00000000]                   	PUSH	LC0
   403 000003EA 6A 00                           	PUSH	0
   404 000003EC 68 00FFFFFF                     	PUSH	16777215
   405 000003F1 FF 73 08                        	PUSH	DWORD [8+EBX]
   406 000003F4 FF 73 04                        	PUSH	DWORD [4+EBX]
   407 000003F7 50                              	PUSH	EAX
   408 000003F8 E8 [00000000]                   	CALL	_putfonts8_asc_sht32
   409 000003FD 83 C4 1C                        	ADD	ESP,28
   410 00000400 EB BB                           	JMP	L51
   411 00000402                                 	GLOBAL	_cons_newline
   412 00000402                                 _cons_newline:
   413 00000402 55                              	PUSH	EBP
   414 00000403 89 E5                           	MOV	EBP,ESP
   415 00000405 57                              	PUSH	EDI
   416 00000406 56                              	PUSH	ESI
   417 00000407 53                              	PUSH	EBX
   418 00000408 50                              	PUSH	EAX
   419 00000409 50                              	PUSH	EAX
   420 0000040A 8B 45 08                        	MOV	EAX,DWORD [8+EBP]
   421 0000040D 8B 38                           	MOV	EDI,DWORD [EAX]
   422 0000040F E8 [00000000]                   	CALL	_task_now
   423 00000414 8B 55 08                        	MOV	EDX,DWORD [8+EBP]
   424 00000417 89 45 EC                        	MOV	DWORD [-20+EBP],EAX
   425 0000041A 8B 42 08                        	MOV	EAX,DWORD [8+EDX]
   426 0000041D 3D 0000008B                     	CMP	EAX,139
   427 00000422 7F 36                           	JG	L67
   428 00000424 83 C0 10                        	ADD	EAX,16
   429 00000427 89 42 08                        	MOV	DWORD [8+EDX],EAX
   430 0000042A                                 L68:
   431 0000042A 8B 45 08                        	MOV	EAX,DWORD [8+EBP]
   432 0000042D 8B 55 EC                        	MOV	EDX,DWORD [-20+EBP]
   433 00000430 C7 40 04 00000008               	MOV	DWORD [4+EAX],8
   434 00000437 80 BA 000000CC 01               	CMP	BYTE [204+EDX],1
   435 0000043E 74 08                           	JE	L100
   436 00000440                                 L66:
   437 00000440 8D 65 F4                        	LEA	ESP,DWORD [-12+EBP]
   438 00000443 5B                              	POP	EBX
   439 00000444 5E                              	POP	ESI
   440 00000445 5F                              	POP	EDI
   441 00000446 5D                              	POP	EBP
   442 00000447 C3                              	RET
   443 00000448                                 L100:
   444 00000448 80 BA 000000CD 00               	CMP	BYTE [205+EDX],0
   445 0000044F 74 EF                           	JE	L66
   446 00000451 C7 40 04 00000010               	MOV	DWORD [4+EAX],16
   447 00000458 EB E6                           	JMP	L66
   448 0000045A                                 L67:
   449 0000045A 85 FF                           	TEST	EDI,EDI
   450 0000045C 74 CC                           	JE	L68
   451 0000045E C7 45 F0 0000001C               	MOV	DWORD [-16+EBP],28
   452 00000465                                 L79:
   453 00000465 BE 00000008                     	MOV	ESI,8
   454 0000046A                                 L78:
   455 0000046A 8B 45 F0                        	MOV	EAX,DWORD [-16+EBP]
   456 0000046D 8B 4F 08                        	MOV	ECX,DWORD [8+EDI]
   457 00000470 83 C0 10                        	ADD	EAX,16
   458 00000473 8B 55 F0                        	MOV	EDX,DWORD [-16+EBP]
   459 00000476 0F AF C1                        	IMUL	EAX,ECX
   460 00000479 0F AF D1                        	IMUL	EDX,ECX
   461 0000047C 8B 1F                           	MOV	EBX,DWORD [EDI]
   462 0000047E 8D 04 30                        	LEA	EAX,DWORD [EAX+ESI*1]
   463 00000481 8D 14 32                        	LEA	EDX,DWORD [EDX+ESI*1]
   464 00000484 46                              	INC	ESI
   465 00000485 8B 04 83                        	MOV	EAX,DWORD [EBX+EAX*4]
   466 00000488 81 FE 000000F7                  	CMP	ESI,247
   467 0000048E 89 04 93                        	MOV	DWORD [EBX+EDX*4],EAX
   468 00000491 7E D7                           	JLE	L78
   469 00000493 FF 45 F0                        	INC	DWORD [-16+EBP]
   470 00000496 81 7D F0 0000008B               	CMP	DWORD [-16+EBP],139
   471 0000049D 7E C6                           	JLE	L79
   472 0000049F C7 45 F0 0000008C               	MOV	DWORD [-16+EBP],140
   473 000004A6                                 L89:
   474 000004A6 BE 00000008                     	MOV	ESI,8
   475 000004AB                                 L88:
   476 000004AB 8B 45 F0                        	MOV	EAX,DWORD [-16+EBP]
   477 000004AE 8B 17                           	MOV	EDX,DWORD [EDI]
   478 000004B0 0F AF 47 08                     	IMUL	EAX,DWORD [8+EDI]
   479 000004B4 8D 04 30                        	LEA	EAX,DWORD [EAX+ESI*1]
   480 000004B7 46                              	INC	ESI
   481 000004B8 81 FE 000000F7                  	CMP	ESI,247
   482 000004BE C7 04 82 00000000               	MOV	DWORD [EDX+EAX*4],0
   483 000004C5 7E E4                           	JLE	L88
   484 000004C7 FF 45 F0                        	INC	DWORD [-16+EBP]
   485 000004CA 81 7D F0 0000009B               	CMP	DWORD [-16+EBP],155
   486 000004D1 7E D3                           	JLE	L89
   487 000004D3 A1 00000FE4                     	MOV	EAX,DWORD [4068]
   488 000004D8 39 47 28                        	CMP	DWORD [40+EDI],EAX
   489 000004DB 0F 85 FFFFFF49                  	JNE	L68
   490 000004E1 68 0000009C                     	PUSH	156
   491 000004E6 68 000000F8                     	PUSH	248
   492 000004EB 6A 1C                           	PUSH	28
   493 000004ED 6A 08                           	PUSH	8
   494 000004EF 57                              	PUSH	EDI
   495 000004F0 E8 [00000000]                   	CALL	_sheet_refresh
   496 000004F5 83 C4 14                        	ADD	ESP,20
   497 000004F8 E9 FFFFFF2D                     	JMP	L68
   498 000004FD                                 	GLOBAL	_cons_putstr0
   499 000004FD                                 _cons_putstr0:
   500 000004FD 55                              	PUSH	EBP
   501 000004FE 89 E5                           	MOV	EBP,ESP
   502 00000500 56                              	PUSH	ESI
   503 00000501 53                              	PUSH	EBX
   504 00000502 8B 5D 0C                        	MOV	EBX,DWORD [12+EBP]
   505 00000505 8B 75 08                        	MOV	ESI,DWORD [8+EBP]
   506 00000508 80 3B 00                        	CMP	BYTE [EBX],0
   507 0000050B 75 07                           	JNE	L106
   508 0000050D                                 L108:
   509 0000050D 8D 65 F8                        	LEA	ESP,DWORD [-8+EBP]
   510 00000510 5B                              	POP	EBX
   511 00000511 5E                              	POP	ESI
   512 00000512 5D                              	POP	EBP
   513 00000513 C3                              	RET
   514 00000514                                 L106:
   515 00000514 6A 01                           	PUSH	1
   516 00000516 0F BE 03                        	MOVSX	EAX,BYTE [EBX]
   517 00000519 50                              	PUSH	EAX
   518 0000051A 43                              	INC	EBX
   519 0000051B 56                              	PUSH	ESI
   520 0000051C E8 FFFFFE2A                     	CALL	_cons_putchar
   521 00000521 83 C4 0C                        	ADD	ESP,12
   522 00000524 80 3B 00                        	CMP	BYTE [EBX],0
   523 00000527 75 EB                           	JNE	L106
   524 00000529 EB E2                           	JMP	L108
   525 0000052B                                 	GLOBAL	_cons_putstr1
   526 0000052B                                 _cons_putstr1:
   527 0000052B 55                              	PUSH	EBP
   528 0000052C 89 E5                           	MOV	EBP,ESP
   529 0000052E 57                              	PUSH	EDI
   530 0000052F 56                              	PUSH	ESI
   531 00000530 53                              	PUSH	EBX
   532 00000531 8B 75 10                        	MOV	ESI,DWORD [16+EBP]
   533 00000534 31 DB                           	XOR	EBX,EBX
   534 00000536 8B 7D 0C                        	MOV	EDI,DWORD [12+EBP]
   535 00000539 39 F3                           	CMP	EBX,ESI
   536 0000053B 7C 08                           	JL	L114
   537 0000053D                                 L116:
   538 0000053D 8D 65 F4                        	LEA	ESP,DWORD [-12+EBP]
   539 00000540 5B                              	POP	EBX
   540 00000541 5E                              	POP	ESI
   541 00000542 5F                              	POP	EDI
   542 00000543 5D                              	POP	EBP
   543 00000544 C3                              	RET
   544 00000545                                 L114:
   545 00000545 6A 01                           	PUSH	1
   546 00000547 0F BE 04 3B                     	MOVSX	EAX,BYTE [EBX+EDI*1]
   547 0000054B 50                              	PUSH	EAX
   548 0000054C 43                              	INC	EBX
   549 0000054D FF 75 08                        	PUSH	DWORD [8+EBP]
   550 00000550 E8 FFFFFDF6                     	CALL	_cons_putchar
   551 00000555 83 C4 0C                        	ADD	ESP,12
   552 00000558 39 F3                           	CMP	EBX,ESI
   553 0000055A 7C E9                           	JL	L114
   554 0000055C EB DF                           	JMP	L116
   555                                          [SECTION .data]
   556 00000002                                 LC1:
   557 00000002 6D 65 6D 00                     	DB	"mem",0x00
   558 00000006                                 LC2:
   559 00000006 63 6C 73 00                     	DB	"cls",0x00
   560 0000000A                                 LC3:
   561 0000000A 64 69 72 00                     	DB	"dir",0x00
   562 0000000E                                 LC4:
   563 0000000E 65 78 69 74 00                  	DB	"exit",0x00
   564 00000013                                 LC5:
   565 00000013 73 74 61 72 74 20 00            	DB	"start ",0x00
   566 0000001A                                 LC6:
   567 0000001A 6E 63 73 74 20 00               	DB	"ncst ",0x00
   568 00000020                                 LC7:
   569 00000020 6C 61 6E 67 6D 6F 64 65 20 00   	DB	"langmode ",0x00
   570 0000002A                                 LC8:
   571 0000002A 72 65 6C 6F 61 64 00            	DB	"reload",0x00
   572 00000031                                 LC9:
   573 00000031 73 68 75 74 64 6F 77 6E 00      	DB	"shutdown",0x00
   574 0000003A                                 LC10:
   575 0000003A 72 64 72 61 6E 64 00            	DB	"rdrand",0x00
   576 00000041                                 LC11:
   577 00000041 64 65 73 6B 74 6F 70 00         	DB	"desktop",0x00
   578 00000049                                 LC12:
   579 00000049 42 61 64 20 63 6F 6D 6D 61 6E   	DB	"Bad command0.",0x0A,0x0A,0x00
       00000053 64 30 2E 0A 0A 00 
   580                                          [SECTION .text]
   581 0000055E                                 	GLOBAL	_cons_runcmd
   582 0000055E                                 _cons_runcmd:
   583 0000055E 55                              	PUSH	EBP
   584 0000055F 89 E5                           	MOV	EBP,ESP
   585 00000561 57                              	PUSH	EDI
   586 00000562 56                              	PUSH	ESI
   587 00000563 BF [00000002]                   	MOV	EDI,LC1
   588 00000568 53                              	PUSH	EBX
   589 00000569 83 EC 0C                        	SUB	ESP,12
   590 0000056C 8B 45 08                        	MOV	EAX,DWORD [8+EBP]
   591 0000056F 8B 4D 10                        	MOV	ECX,DWORD [16+EBP]
   592 00000572 89 45 E8                        	MOV	DWORD [-24+EBP],EAX
   593 00000575 89 4D F0                        	MOV	DWORD [-16+EBP],ECX
   594 00000578 8B 45 14                        	MOV	EAX,DWORD [20+EBP]
   595 0000057B 8B 75 E8                        	MOV	ESI,DWORD [-24+EBP]
   596 0000057E 89 45 EC                        	MOV	DWORD [-20+EBP],EAX
   597 00000581 8B 5D 0C                        	MOV	EBX,DWORD [12+EBP]
   598 00000584 B8 00000004                     	MOV	EAX,4
   599 00000589 FC                              	CLD
   600 0000058A 89 C1                           	MOV	ECX,EAX
   601 0000058C F3                              	REPE
   602 0000058D A6                              	CMPSB
   603 0000058E 75 09                           	JNE	L118
   604 00000590 83 3B 00                        	CMP	DWORD [EBX],0
   605 00000593 0F 85 000001EE                  	JNE	L142
   606 00000599                                 L118:
   607 00000599 B8 00000004                     	MOV	EAX,4
   608 0000059E 8B 75 E8                        	MOV	ESI,DWORD [-24+EBP]
   609 000005A1 FC                              	CLD
   610 000005A2 BF [00000006]                   	MOV	EDI,LC2
   611 000005A7 89 C1                           	MOV	ECX,EAX
   612 000005A9 F3                              	REPE
   613 000005AA A6                              	CMPSB
   614 000005AB 75 09                           	JNE	L120
   615 000005AD 83 3B 00                        	CMP	DWORD [EBX],0
   616 000005B0 0F 85 000001C2                  	JNE	L143
   617 000005B6                                 L120:
   618 000005B6 B8 00000004                     	MOV	EAX,4
   619 000005BB 8B 75 E8                        	MOV	ESI,DWORD [-24+EBP]
   620 000005BE FC                              	CLD
   621 000005BF BF [0000000A]                   	MOV	EDI,LC3
   622 000005C4 89 C1                           	MOV	ECX,EAX
   623 000005C6 F3                              	REPE
   624 000005C7 A6                              	CMPSB
   625 000005C8 75 09                           	JNE	L122
   626 000005CA 83 3B 00                        	CMP	DWORD [EBX],0
   627 000005CD 0F 85 00000196                  	JNE	L144
   628 000005D3                                 L122:
   629 000005D3 B8 00000005                     	MOV	EAX,5
   630 000005D8 8B 75 E8                        	MOV	ESI,DWORD [-24+EBP]
   631 000005DB FC                              	CLD
   632 000005DC BF [0000000E]                   	MOV	EDI,LC4
   633 000005E1 89 C1                           	MOV	ECX,EAX
   634 000005E3 F3                              	REPE
   635 000005E4 A6                              	CMPSB
   636 000005E5 0F 84 00000169                  	JE	L145
   637 000005EB B8 00000006                     	MOV	EAX,6
   638 000005F0 8B 75 E8                        	MOV	ESI,DWORD [-24+EBP]
   639 000005F3 FC                              	CLD
   640 000005F4 BF [00000013]                   	MOV	EDI,LC5
   641 000005F9 89 C1                           	MOV	ECX,EAX
   642 000005FB F3                              	REPE
   643 000005FC A6                              	CMPSB
   644 000005FD 0F 84 00000136                  	JE	L146
   645 00000603 B8 00000005                     	MOV	EAX,5
   646 00000608 8B 75 E8                        	MOV	ESI,DWORD [-24+EBP]
   647 0000060B FC                              	CLD
   648 0000060C BF [0000001A]                   	MOV	EDI,LC6
   649 00000611 89 C1                           	MOV	ECX,EAX
   650 00000613 F3                              	REPE
   651 00000614 A6                              	CMPSB
   652 00000615 0F 84 00000103                  	JE	L147
   653 0000061B B8 00000009                     	MOV	EAX,9
   654 00000620 8B 75 E8                        	MOV	ESI,DWORD [-24+EBP]
   655 00000623 FC                              	CLD
   656 00000624 BF [00000020]                   	MOV	EDI,LC7
   657 00000629 89 C1                           	MOV	ECX,EAX
   658 0000062B F3                              	REPE
   659 0000062C A6                              	CMPSB
   660 0000062D 0F 84 000000D6                  	JE	L148
   661 00000633 B8 00000007                     	MOV	EAX,7
   662 00000638 8B 75 E8                        	MOV	ESI,DWORD [-24+EBP]
   663 0000063B FC                              	CLD
   664 0000063C BF [0000002A]                   	MOV	EDI,LC8
   665 00000641 89 C1                           	MOV	ECX,EAX
   666 00000643 F3                              	REPE
   667 00000644 A6                              	CMPSB
   668 00000645 0F 84 000000B2                  	JE	L149
   669 0000064B B8 00000009                     	MOV	EAX,9
   670 00000650 8B 75 E8                        	MOV	ESI,DWORD [-24+EBP]
   671 00000653 FC                              	CLD
   672 00000654 BF [00000031]                   	MOV	EDI,LC9
   673 00000659 89 C1                           	MOV	ECX,EAX
   674 0000065B F3                              	REPE
   675 0000065C A6                              	CMPSB
   676 0000065D 0F 84 00000080                  	JE	L150
   677 00000663 B8 00000007                     	MOV	EAX,7
   678 00000668 8B 75 E8                        	MOV	ESI,DWORD [-24+EBP]
   679 0000066B FC                              	CLD
   680 0000066C BF [0000003A]                   	MOV	EDI,LC10
   681 00000671 89 C1                           	MOV	ECX,EAX
   682 00000673 F3                              	REPE
   683 00000674 A6                              	CMPSB
   684 00000675 74 57                           	JE	L151
   685 00000677 B8 00000008                     	MOV	EAX,8
   686 0000067C 8B 75 E8                        	MOV	ESI,DWORD [-24+EBP]
   687 0000067F FC                              	CLD
   688 00000680 BF [00000041]                   	MOV	EDI,LC11
   689 00000685 89 C1                           	MOV	ECX,EAX
   690 00000687 F3                              	REPE
   691 00000688 A6                              	CMPSB
   692 00000689 74 37                           	JE	L152
   693 0000068B 8B 45 E8                        	MOV	EAX,DWORD [-24+EBP]
   694 0000068E 80 38 00                        	CMP	BYTE [EAX],0
   695 00000691 75 08                           	JNE	L153
   696 00000693                                 L117:
   697 00000693 8D 65 F4                        	LEA	ESP,DWORD [-12+EBP]
   698 00000696 5B                              	POP	EBX
   699 00000697 5E                              	POP	ESI
   700 00000698 5F                              	POP	EDI
   701 00000699 5D                              	POP	EBP
   702 0000069A C3                              	RET
   703 0000069B                                 L153:
   704 0000069B 50                              	PUSH	EAX
   705 0000069C FF 75 F0                        	PUSH	DWORD [-16+EBP]
   706 0000069F 53                              	PUSH	EBX
   707 000006A0 E8 000004B8                     	CALL	_cmd_app
   708 000006A5 83 C4 0C                        	ADD	ESP,12
   709 000006A8 85 C0                           	TEST	EAX,EAX
   710 000006AA 75 E7                           	JNE	L117
   711 000006AC C7 45 0C [00000049]             	MOV	DWORD [12+EBP],LC12
   712 000006B3 89 5D 08                        	MOV	DWORD [8+EBP],EBX
   713 000006B6 8D 65 F4                        	LEA	ESP,DWORD [-12+EBP]
   714 000006B9 5B                              	POP	EBX
   715 000006BA 5E                              	POP	ESI
   716 000006BB 5F                              	POP	EDI
   717 000006BC 5D                              	POP	EBP
   718 000006BD E9 FFFFFE3B                     	JMP	_cons_putstr0
   719 000006C2                                 L152:
   720 000006C2 8D 65 F4                        	LEA	ESP,DWORD [-12+EBP]
   721 000006C5 5B                              	POP	EBX
   722 000006C6 5E                              	POP	ESI
   723 000006C7 5F                              	POP	EDI
   724 000006C8 5D                              	POP	EBP
   725 000006C9 E9 [00000000]                   	JMP	_desktop_start
   726 000006CE                                 L151:
   727 000006CE 8B 45 E8                        	MOV	EAX,DWORD [-24+EBP]
   728 000006D1 89 5D 08                        	MOV	DWORD [8+EBP],EBX
   729 000006D4 89 45 0C                        	MOV	DWORD [12+EBP],EAX
   730 000006D7 8D 65 F4                        	LEA	ESP,DWORD [-12+EBP]
   731 000006DA 5B                              	POP	EBX
   732 000006DB 5E                              	POP	ESI
   733 000006DC 5F                              	POP	EDI
   734 000006DD 5D                              	POP	EBP
   735 000006DE E9 000000B6                     	JMP	_cmd_rdrand
   736 000006E3                                 L150:
   737 000006E3 C7 45 0C 0000003C               	MOV	DWORD [12+EBP],60
   738 000006EA C7 45 08 00000805               	MOV	DWORD [8+EBP],2053
   739 000006F1 8D 65 F4                        	LEA	ESP,DWORD [-12+EBP]
   740 000006F4 5B                              	POP	EBX
   741 000006F5 5E                              	POP	ESI
   742 000006F6 5F                              	POP	EDI
   743 000006F7 5D                              	POP	EBP
   744 000006F8 E9 [00000000]                   	JMP	_io_out8
   745 000006FD                                 L149:
   746 000006FD 8D 65 F4                        	LEA	ESP,DWORD [-12+EBP]
   747 00000700 5B                              	POP	EBX
   748 00000701 5E                              	POP	ESI
   749 00000702 5F                              	POP	EDI
   750 00000703 5D                              	POP	EBP
   751 00000704 E9 [00000000]                   	JMP	_sys_reboot
   752 00000709                                 L148:
   753 00000709 8B 45 E8                        	MOV	EAX,DWORD [-24+EBP]
   754 0000070C 89 5D 08                        	MOV	DWORD [8+EBP],EBX
   755 0000070F 89 45 0C                        	MOV	DWORD [12+EBP],EAX
   756 00000712 8D 65 F4                        	LEA	ESP,DWORD [-12+EBP]
   757 00000715 5B                              	POP	EBX
   758 00000716 5E                              	POP	ESI
   759 00000717 5F                              	POP	EDI
   760 00000718 5D                              	POP	EBP
   761 00000719 E9 00000401                     	JMP	_cmd_langmode
   762 0000071E                                 L147:
   763 0000071E 8B 45 EC                        	MOV	EAX,DWORD [-20+EBP]
   764 00000721 8B 4D E8                        	MOV	ECX,DWORD [-24+EBP]
   765 00000724 89 45 10                        	MOV	DWORD [16+EBP],EAX
   766 00000727 89 4D 0C                        	MOV	DWORD [12+EBP],ECX
   767 0000072A 89 5D 08                        	MOV	DWORD [8+EBP],EBX
   768 0000072D 8D 65 F4                        	LEA	ESP,DWORD [-12+EBP]
   769 00000730 5B                              	POP	EBX
   770 00000731 5E                              	POP	ESI
   771 00000732 5F                              	POP	EDI
   772 00000733 5D                              	POP	EBP
   773 00000734 E9 00000382                     	JMP	_cmd_ncst
   774 00000739                                 L146:
   775 00000739 8B 45 EC                        	MOV	EAX,DWORD [-20+EBP]
   776 0000073C 8B 4D E8                        	MOV	ECX,DWORD [-24+EBP]
   777 0000073F 89 45 10                        	MOV	DWORD [16+EBP],EAX
   778 00000742 89 4D 0C                        	MOV	DWORD [12+EBP],ECX
   779 00000745 89 5D 08                        	MOV	DWORD [8+EBP],EBX
   780 00000748 8D 65 F4                        	LEA	ESP,DWORD [-12+EBP]
   781 0000074B 5B                              	POP	EBX
   782 0000074C 5E                              	POP	ESI
   783 0000074D 5F                              	POP	EDI
   784 0000074E 5D                              	POP	EBP
   785 0000074F E9 000002DA                     	JMP	_cmd_start
   786 00000754                                 L145:
   787 00000754 8B 45 F0                        	MOV	EAX,DWORD [-16+EBP]
   788 00000757 89 5D 08                        	MOV	DWORD [8+EBP],EBX
   789 0000075A 89 45 0C                        	MOV	DWORD [12+EBP],EAX
   790 0000075D 8D 65 F4                        	LEA	ESP,DWORD [-12+EBP]
   791 00000760 5B                              	POP	EBX
   792 00000761 5E                              	POP	ESI
   793 00000762 5F                              	POP	EDI
   794 00000763 5D                              	POP	EBP
   795 00000764 E9 000001C7                     	JMP	_cmd_exit
   796 00000769                                 L144:
   797 00000769 89 5D 08                        	MOV	DWORD [8+EBP],EBX
   798 0000076C 8D 65 F4                        	LEA	ESP,DWORD [-12+EBP]
   799 0000076F 5B                              	POP	EBX
   800 00000770 5E                              	POP	ESI
   801 00000771 5F                              	POP	EDI
   802 00000772 5D                              	POP	EBP
   803 00000773 E9 00000122                     	JMP	_cmd_dir
   804 00000778                                 L143:
   805 00000778 89 5D 08                        	MOV	DWORD [8+EBP],EBX
   806 0000077B 8D 65 F4                        	LEA	ESP,DWORD [-12+EBP]
   807 0000077E 5B                              	POP	EBX
   808 0000077F 5E                              	POP	ESI
   809 00000780 5F                              	POP	EDI
   810 00000781 5D                              	POP	EBP
   811 00000782 E9 000000A8                     	JMP	_cmd_cls
   812 00000787                                 L142:
   813 00000787 8B 45 EC                        	MOV	EAX,DWORD [-20+EBP]
   814 0000078A 89 5D 08                        	MOV	DWORD [8+EBP],EBX
   815 0000078D 89 45 0C                        	MOV	DWORD [12+EBP],EAX
   816 00000790 8D 65 F4                        	LEA	ESP,DWORD [-12+EBP]
   817 00000793 5B                              	POP	EBX
   818 00000794 5E                              	POP	ESI
   819 00000795 5F                              	POP	EDI
   820 00000796 5D                              	POP	EBP
   821 00000797 EB 2A                           	JMP	_cmd_mem
   822                                          [SECTION .data]
   823 00000059                                 LC13:
   824 00000059 72 64 72 61 6E 64 20 69 73 20   	DB	"rdrand is %d %x",0x0A,0x00
       00000063 25 64 20 25 78 0A 00 
   825                                          [SECTION .text]
   826 00000799                                 	GLOBAL	_cmd_rdrand
   827 00000799                                 _cmd_rdrand:
   828 00000799 55                              	PUSH	EBP
   829 0000079A 89 E5                           	MOV	EBP,ESP
   830 0000079C 53                              	PUSH	EBX
   831 0000079D 83 EC 40                        	SUB	ESP,64
   832 000007A0 8D 5D BC                        	LEA	EBX,DWORD [-68+EBP]
   833 000007A3 E8 [00000000]                   	CALL	_rdrand
   834 000007A8 50                              	PUSH	EAX
   835 000007A9 50                              	PUSH	EAX
   836 000007AA 68 [00000059]                   	PUSH	LC13
   837 000007AF 53                              	PUSH	EBX
   838 000007B0 E8 [00000000]                   	CALL	_sprintf
   839 000007B5 53                              	PUSH	EBX
   840 000007B6 FF 75 08                        	PUSH	DWORD [8+EBP]
   841 000007B9 E8 FFFFFD3F                     	CALL	_cons_putstr0
   842 000007BE 8B 5D FC                        	MOV	EBX,DWORD [-4+EBP]
   843 000007C1 C9                              	LEAVE
   844 000007C2 C3                              	RET
   845                                          [SECTION .data]
   846 0000006A                                 LC14:
   847 0000006A 74 6F 74 61 6C 20 20 20 25 64   	DB	"total   %dMB",0x0A,"free %dKB",0x0A,0x0A,0x00
       00000074 4D 42 0A 66 72 65 65 20 25 64 
       0000007E 4B 42 0A 0A 00 
   848 00000083                                 LC15:
   849 00000083 74 5F 70 3A 20 25 64 20 6C 5F   	DB	"t_p: %d l_p: %d",0x0A,0x0A,0x00
       0000008D 70 3A 20 25 64 0A 0A 00 
   850                                          [SECTION .text]
   851 000007C3                                 	GLOBAL	_cmd_mem
   852 000007C3                                 _cmd_mem:
   853 000007C3 55                              	PUSH	EBP
   854 000007C4 89 E5                           	MOV	EBP,ESP
   855 000007C6 56                              	PUSH	ESI
   856 000007C7 53                              	PUSH	EBX
   857 000007C8 83 EC 40                        	SUB	ESP,64
   858 000007CB 8B 75 08                        	MOV	ESI,DWORD [8+EBP]
   859 000007CE E8 [00000000]                   	CALL	_task_now
   860 000007D3 FF B0 00000104                  	PUSH	DWORD [260+EAX]
   861 000007D9 E8 [00000000]                   	CALL	_memman_total
   862 000007DE BA 00100000                     	MOV	EDX,1048576
   863 000007E3 C1 E8 0A                        	SHR	EAX,10
   864 000007E6 89 D3                           	MOV	EBX,EDX
   865 000007E8 89 04 24                        	MOV	DWORD [ESP],EAX
   866 000007EB 8B 45 0C                        	MOV	EAX,DWORD [12+EBP]
   867 000007EE 99                              	CDQ
   868 000007EF F7 FB                           	IDIV	EBX
   869 000007F1 50                              	PUSH	EAX
   870 000007F2 8D 5D B8                        	LEA	EBX,DWORD [-72+EBP]
   871 000007F5 68 [0000006A]                   	PUSH	LC14
   872 000007FA 53                              	PUSH	EBX
   873 000007FB E8 [00000000]                   	CALL	_sprintf
   874 00000800 53                              	PUSH	EBX
   875 00000801 56                              	PUSH	ESI
   876 00000802 E8 FFFFFCF6                     	CALL	_cons_putstr0
   877 00000807 FF 35 0026F00C                  	PUSH	DWORD [2551820]
   878 0000080D FF 35 0026F004                  	PUSH	DWORD [2551812]
   879 00000813 68 [00000083]                   	PUSH	LC15
   880 00000818 53                              	PUSH	EBX
   881 00000819 E8 [00000000]                   	CALL	_sprintf
   882 0000081E 83 C4 28                        	ADD	ESP,40
   883 00000821 53                              	PUSH	EBX
   884 00000822 56                              	PUSH	ESI
   885 00000823 E8 FFFFFCD5                     	CALL	_cons_putstr0
   886 00000828 8D 65 F8                        	LEA	ESP,DWORD [-8+EBP]
   887 0000082B 5B                              	POP	EBX
   888 0000082C 5E                              	POP	ESI
   889 0000082D 5D                              	POP	EBP
   890 0000082E C3                              	RET
   891 0000082F                                 	GLOBAL	_cmd_cls
   892 0000082F                                 _cmd_cls:
   893 0000082F 55                              	PUSH	EBP
   894 00000830 89 E5                           	MOV	EBP,ESP
   895 00000832 57                              	PUSH	EDI
   896 00000833 56                              	PUSH	ESI
   897 00000834 BE 0000001C                     	MOV	ESI,28
   898 00000839 8B 7D 08                        	MOV	EDI,DWORD [8+EBP]
   899 0000083C 53                              	PUSH	EBX
   900 0000083D 8B 1F                           	MOV	EBX,DWORD [EDI]
   901 0000083F                                 L166:
   902 0000083F B9 00000008                     	MOV	ECX,8
   903 00000844                                 L165:
   904 00000844 89 F0                           	MOV	EAX,ESI
   905 00000846 8B 13                           	MOV	EDX,DWORD [EBX]
   906 00000848 0F AF 43 08                     	IMUL	EAX,DWORD [8+EBX]
   907 0000084C 8D 04 08                        	LEA	EAX,DWORD [EAX+ECX*1]
   908 0000084F 41                              	INC	ECX
   909 00000850 81 F9 000000F7                  	CMP	ECX,247
   910 00000856 C7 04 82 00000000               	MOV	DWORD [EDX+EAX*4],0
   911 0000085D 7E E5                           	JLE	L165
   912 0000085F 46                              	INC	ESI
   913 00000860 81 FE 0000009B                  	CMP	ESI,155
   914 00000866 7E D7                           	JLE	L166
   915 00000868 A1 00000FE4                     	MOV	EAX,DWORD [4068]
   916 0000086D 39 43 28                        	CMP	DWORD [40+EBX],EAX
   917 00000870 74 0F                           	JE	L172
   918 00000872                                 L167:
   919 00000872 C7 47 08 0000001C               	MOV	DWORD [8+EDI],28
   920 00000879 8D 65 F4                        	LEA	ESP,DWORD [-12+EBP]
   921 0000087C 5B                              	POP	EBX
   922 0000087D 5E                              	POP	ESI
   923 0000087E 5F                              	POP	EDI
   924 0000087F 5D                              	POP	EBP
   925 00000880 C3                              	RET
   926 00000881                                 L172:
   927 00000881 68 0000009C                     	PUSH	156
   928 00000886 68 000000F8                     	PUSH	248
   929 0000088B 6A 1C                           	PUSH	28
   930 0000088D 6A 08                           	PUSH	8
   931 0000088F 53                              	PUSH	EBX
   932 00000890 E8 [00000000]                   	CALL	_sheet_refresh
   933 00000895 83 C4 14                        	ADD	ESP,20
   934 00000898 EB D8                           	JMP	L167
   935                                          [SECTION .data]
   936 00000095                                 LC16:
   937 00000095 66 69 6C 65 6E 61 6D 65 2E 65   	DB	"filename.ext   %7d",0x0A,0x00
       0000009F 78 74 20 20 20 25 37 64 0A 00 
   938                                          [SECTION .text]
   939 0000089A                                 	GLOBAL	_cmd_dir
   940 0000089A                                 _cmd_dir:
   941 0000089A 55                              	PUSH	EBP
   942 0000089B 89 E5                           	MOV	EBP,ESP
   943 0000089D 57                              	PUSH	EDI
   944 0000089E 56                              	PUSH	ESI
   945 0000089F 31 F6                           	XOR	ESI,ESI
   946 000008A1 53                              	PUSH	EBX
   947 000008A2 31 DB                           	XOR	EBX,EBX
   948 000008A4 83 EC 20                        	SUB	ESP,32
   949 000008A7 8B 7D 08                        	MOV	EDI,DWORD [8+EBP]
   950 000008AA                                 L186:
   951 000008AA 8A 83 00102600                  	MOV	AL,BYTE [1058304+EBX]
   952 000008B0 84 C0                           	TEST	AL,AL
   953 000008B2 74 19                           	JE	L175
   954 000008B4 3C E5                           	CMP	AL,-27
   955 000008B6 74 09                           	JE	L176
   956 000008B8 F6 83 0010260B 18               	TEST	BYTE [1058315+EBX],24
   957 000008BF 74 1A                           	JE	L190
   958 000008C1                                 L176:
   959 000008C1 46                              	INC	ESI
   960 000008C2 83 C3 20                        	ADD	EBX,32
   961 000008C5 81 FE 000000DF                  	CMP	ESI,223
   962 000008CB 7E DD                           	JLE	L186
   963 000008CD                                 L175:
   964 000008CD 57                              	PUSH	EDI
   965 000008CE E8 FFFFFB2F                     	CALL	_cons_newline
   966 000008D3 8D 65 F4                        	LEA	ESP,DWORD [-12+EBP]
   967 000008D6 5B                              	POP	EBX
   968 000008D7 5E                              	POP	ESI
   969 000008D8 5F                              	POP	EDI
   970 000008D9 5D                              	POP	EBP
   971 000008DA C3                              	RET
   972 000008DB                                 L190:
   973 000008DB FF B3 0010261C                  	PUSH	DWORD [1058332+EBX]
   974 000008E1 68 [00000095]                   	PUSH	LC16
   975 000008E6 8D 45 D4                        	LEA	EAX,DWORD [-44+EBP]
   976 000008E9 50                              	PUSH	EAX
   977 000008EA E8 [00000000]                   	CALL	_sprintf
   978 000008EF 8D 93 00102600                  	LEA	EDX,DWORD [1058304+EBX]
   979 000008F5 31 C9                           	XOR	ECX,ECX
   980 000008F7 83 C4 0C                        	ADD	ESP,12
   981 000008FA                                 L185:
   982 000008FA 8A 02                           	MOV	AL,BYTE [EDX]
   983 000008FC 42                              	INC	EDX
   984 000008FD 88 44 0D D4                     	MOV	BYTE [-44+EBP+ECX*1],AL
   985 00000901 41                              	INC	ECX
   986 00000902 83 F9 07                        	CMP	ECX,7
   987 00000905 7E F3                           	JLE	L185
   988 00000907 8A 83 00102608                  	MOV	AL,BYTE [1058312+EBX]
   989 0000090D 88 45 DD                        	MOV	BYTE [-35+EBP],AL
   990 00000910 8A 83 00102609                  	MOV	AL,BYTE [1058313+EBX]
   991 00000916 88 45 DE                        	MOV	BYTE [-34+EBP],AL
   992 00000919 8A 83 0010260A                  	MOV	AL,BYTE [1058314+EBX]
   993 0000091F 88 45 DF                        	MOV	BYTE [-33+EBP],AL
   994 00000922 8D 45 D4                        	LEA	EAX,DWORD [-44+EBP]
   995 00000925 50                              	PUSH	EAX
   996 00000926 57                              	PUSH	EDI
   997 00000927 E8 FFFFFBD1                     	CALL	_cons_putstr0
   998 0000092C 58                              	POP	EAX
   999 0000092D 5A                              	POP	EDX
  1000 0000092E EB 91                           	JMP	L176
  1001                                          [SECTION .data]
  1002 000000A9                                 LC17:
  1003 000000A9 73 68 74 20 69 73 20 25 78 0A   	DB	"sht is %x",0x0A,0x00
       000000B3 00 
  1004                                          [SECTION .text]
  1005 00000930                                 	GLOBAL	_cmd_exit
  1006 00000930                                 _cmd_exit:
  1007 00000930 55                              	PUSH	EBP
  1008 00000931 89 E5                           	MOV	EBP,ESP
  1009 00000933 57                              	PUSH	EDI
  1010 00000934 56                              	PUSH	ESI
  1011 00000935 53                              	PUSH	EBX
  1012 00000936 8D 5D D4                        	LEA	EBX,DWORD [-44+EBP]
  1013 00000939 83 EC 38                        	SUB	ESP,56
  1014 0000093C A1 0026F000                     	MOV	EAX,DWORD [2551808]
  1015 00000941 8B 7D 08                        	MOV	EDI,DWORD [8+EBP]
  1016 00000944 89 45 C8                        	MOV	DWORD [-56+EBP],EAX
  1017 00000947 E8 [00000000]                   	CALL	_task_now
  1018 0000094C 8B 80 00000104                  	MOV	EAX,DWORD [260+EAX]
  1019 00000952 89 45 C4                        	MOV	DWORD [-60+EBP],EAX
  1020 00000955 E8 [00000000]                   	CALL	_task_now
  1021 0000095A FF 37                           	PUSH	DWORD [EDI]
  1022 0000095C 68 [000000A9]                   	PUSH	LC17
  1023 00000961 89 45 C0                        	MOV	DWORD [-64+EBP],EAX
  1024 00000964 A1 [00000000]                   	MOV	EAX,DWORD [_system_task]
  1025 00000969 53                              	PUSH	EBX
  1026 0000096A 83 C0 10                        	ADD	EAX,16
  1027 0000096D 89 45 BC                        	MOV	DWORD [-68+EBP],EAX
  1028 00000970 E8 [00000000]                   	CALL	_sprintf
  1029 00000975 53                              	PUSH	EBX
  1030 00000976 57                              	PUSH	EDI
  1031 00000977 E8 FFFFFB81                     	CALL	_cons_putstr0
  1032 0000097C 83 C4 14                        	ADD	ESP,20
  1033 0000097F 83 3F 00                        	CMP	DWORD [EDI],0
  1034 00000982 74 09                           	JE	L192
  1035 00000984 FF 77 10                        	PUSH	DWORD [16+EDI]
  1036 00000987 E8 [00000000]                   	CALL	_timer_cancel
  1037 0000098C 5B                              	POP	EBX
  1038 0000098D                                 L192:
  1039 0000098D 8B 5D 0C                        	MOV	EBX,DWORD [12+EBP]
  1040 00000990 89 DE                           	MOV	ESI,EBX
  1041 00000992 81 C6 00002000                  	ADD	ESI,8192
  1042 00000998                                 L197:
  1043 00000998 6A 01                           	PUSH	1
  1044 0000099A 53                              	PUSH	EBX
  1045 0000099B 81 C3 00001000                  	ADD	EBX,4096
  1046 000009A1 FF 75 C8                        	PUSH	DWORD [-56+EBP]
  1047 000009A4 E8 [00000000]                   	CALL	_pageman_unlink_page_32
  1048 000009A9 83 C4 0C                        	ADD	ESP,12
  1049 000009AC 39 F3                           	CMP	EBX,ESI
  1050 000009AE 7E E8                           	JLE	L197
  1051 000009B0 68 00002D00                     	PUSH	11520
  1052 000009B5 FF 75 0C                        	PUSH	DWORD [12+EBP]
  1053 000009B8 FF 75 C4                        	PUSH	DWORD [-60+EBP]
  1054 000009BB E8 [00000000]                   	CALL	_memman_free_4k
  1055 000009C0 83 C4 0C                        	ADD	ESP,12
  1056 000009C3 83 3F 00                        	CMP	DWORD [EDI],0
  1057 000009C6 74 3F                           	JE	L198
  1058 000009C8 31 F6                           	XOR	ESI,ESI
  1059 000009CA BB 0000000A                     	MOV	EBX,10
  1060 000009CF                                 L203:
  1061 000009CF 6A 01                           	PUSH	1
  1062 000009D1 8B 07                           	MOV	EAX,DWORD [EDI]
  1063 000009D3 8B 00                           	MOV	EAX,DWORD [EAX]
  1064 000009D5 01 F0                           	ADD	EAX,ESI
  1065 000009D7 81 C6 00001000                  	ADD	ESI,4096
  1066 000009DD 50                              	PUSH	EAX
  1067 000009DE FF 75 C8                        	PUSH	DWORD [-56+EBP]
  1068 000009E1 E8 [00000000]                   	CALL	_pageman_unlink_page_32
  1069 000009E6 83 C4 0C                        	ADD	ESP,12
  1070 000009E9 4B                              	DEC	EBX
  1071 000009EA 79 E3                           	JNS	L203
  1072 000009EC 68 0000A500                     	PUSH	42240
  1073 000009F1 8B 07                           	MOV	EAX,DWORD [EDI]
  1074 000009F3 FF 30                           	PUSH	DWORD [EAX]
  1075 000009F5 FF 75 C4                        	PUSH	DWORD [-60+EBP]
  1076 000009F8 E8 [00000000]                   	CALL	_memman_free_4k
  1077 000009FD FF 37                           	PUSH	DWORD [EDI]
  1078 000009FF E8 [00000000]                   	CALL	_sheet_free
  1079 00000A04 83 C4 10                        	ADD	ESP,16
  1080 00000A07                                 L198:
  1081 00000A07 8B 45 C0                        	MOV	EAX,DWORD [-64+EBP]
  1082 00000A0A 89 45 D0                        	MOV	DWORD [-48+EBP],EAX
  1083 00000A0D 8D 45 CC                        	LEA	EAX,DWORD [-52+EBP]
  1084 00000A10 50                              	PUSH	EAX
  1085 00000A11 E8 [00000000]                   	CALL	_system_task_abort
  1086 00000A16 6A 05                           	PUSH	5
  1087 00000A18 FF 75 BC                        	PUSH	DWORD [-68+EBP]
  1088 00000A1B E8 [00000000]                   	CALL	_fifo32_put
  1089 00000A20 83 C4 0C                        	ADD	ESP,12
  1090 00000A23                                 L204:
  1091 00000A23 FF 75 C0                        	PUSH	DWORD [-64+EBP]
  1092 00000A26 E8 [00000000]                   	CALL	_task_sleep
  1093 00000A2B 59                              	POP	ECX
  1094 00000A2C EB F5                           	JMP	L204
  1095 00000A2E                                 	GLOBAL	_cmd_start
  1096 00000A2E                                 _cmd_start:
  1097 00000A2E 55                              	PUSH	EBP
  1098 00000A2F 89 E5                           	MOV	EBP,ESP
  1099 00000A31 57                              	PUSH	EDI
  1100 00000A32 56                              	PUSH	ESI
  1101 00000A33 53                              	PUSH	EBX
  1102 00000A34 51                              	PUSH	ECX
  1103 00000A35 51                              	PUSH	ECX
  1104 00000A36 8B 45 08                        	MOV	EAX,DWORD [8+EBP]
  1105 00000A39 8B 7D 0C                        	MOV	EDI,DWORD [12+EBP]
  1106 00000A3C 8B 35 00000FE4                  	MOV	ESI,DWORD [4068]
  1107 00000A42 89 45 F0                        	MOV	DWORD [-16+EBP],EAX
  1108 00000A45 FF 75 10                        	PUSH	DWORD [16+EBP]
  1109 00000A48 56                              	PUSH	ESI
  1110 00000A49 E8 [00000000]                   	CALL	_open_console
  1111 00000A4E 89 C3                           	MOV	EBX,EAX
  1112 00000A50 8B 40 30                        	MOV	EAX,DWORD [48+EAX]
  1113 00000A53 83 C0 10                        	ADD	EAX,16
  1114 00000A56 89 45 EC                        	MOV	DWORD [-20+EBP],EAX
  1115 00000A59 6A 04                           	PUSH	4
  1116 00000A5B 6A 20                           	PUSH	32
  1117 00000A5D 53                              	PUSH	EBX
  1118 00000A5E E8 [00000000]                   	CALL	_sheet_slide
  1119 00000A63 FF B6 00000414                  	PUSH	DWORD [1044+ESI]
  1120 00000A69 53                              	PUSH	EBX
  1121 00000A6A BB 00000006                     	MOV	EBX,6
  1122 00000A6F E8 [00000000]                   	CALL	_sheet_updown
  1123 00000A74 83 C4 1C                        	ADD	ESP,28
  1124 00000A77 80 7F 06 00                     	CMP	BYTE [6+EDI],0
  1125 00000A7B 75 21                           	JNE	L216
  1126 00000A7D                                 L218:
  1127 00000A7D 68 0000010A                     	PUSH	266
  1128 00000A82 FF 75 EC                        	PUSH	DWORD [-20+EBP]
  1129 00000A85 E8 [00000000]                   	CALL	_fifo32_put
  1130 00000A8A 8B 45 F0                        	MOV	EAX,DWORD [-16+EBP]
  1131 00000A8D 5E                              	POP	ESI
  1132 00000A8E 5F                              	POP	EDI
  1133 00000A8F 89 45 08                        	MOV	DWORD [8+EBP],EAX
  1134 00000A92 8D 65 F4                        	LEA	ESP,DWORD [-12+EBP]
  1135 00000A95 5B                              	POP	EBX
  1136 00000A96 5E                              	POP	ESI
  1137 00000A97 5F                              	POP	EDI
  1138 00000A98 5D                              	POP	EBP
  1139 00000A99 E9 FFFFF964                     	JMP	_cons_newline
  1140 00000A9E                                 L216:
  1141 00000A9E 0F BE 04 3B                     	MOVSX	EAX,BYTE [EBX+EDI*1]
  1142 00000AA2 05 00000100                     	ADD	EAX,256
  1143 00000AA7 43                              	INC	EBX
  1144 00000AA8 50                              	PUSH	EAX
  1145 00000AA9 FF 75 EC                        	PUSH	DWORD [-20+EBP]
  1146 00000AAC E8 [00000000]                   	CALL	_fifo32_put
  1147 00000AB1 80 3C 3B 00                     	CMP	BYTE [EBX+EDI*1],0
  1148 00000AB5 58                              	POP	EAX
  1149 00000AB6 5A                              	POP	EDX
  1150 00000AB7 75 E5                           	JNE	L216
  1151 00000AB9 EB C2                           	JMP	L218
  1152 00000ABB                                 	GLOBAL	_cmd_ncst
  1153 00000ABB                                 _cmd_ncst:
  1154 00000ABB 55                              	PUSH	EBP
  1155 00000ABC 89 E5                           	MOV	EBP,ESP
  1156 00000ABE 57                              	PUSH	EDI
  1157 00000ABF 56                              	PUSH	ESI
  1158 00000AC0 BE 00000005                     	MOV	ESI,5
  1159 00000AC5 53                              	PUSH	EBX
  1160 00000AC6 50                              	PUSH	EAX
  1161 00000AC7 8B 45 08                        	MOV	EAX,DWORD [8+EBP]
  1162 00000ACA 8B 5D 0C                        	MOV	EBX,DWORD [12+EBP]
  1163 00000ACD 89 45 F0                        	MOV	DWORD [-16+EBP],EAX
  1164 00000AD0 FF 75 10                        	PUSH	DWORD [16+EBP]
  1165 00000AD3 6A 00                           	PUSH	0
  1166 00000AD5 E8 [00000000]                   	CALL	_open_constask
  1167 00000ADA 59                              	POP	ECX
  1168 00000ADB 80 7B 05 00                     	CMP	BYTE [5+EBX],0
  1169 00000ADF 8D 78 10                        	LEA	EDI,DWORD [16+EAX]
  1170 00000AE2 58                              	POP	EAX
  1171 00000AE3 75 1F                           	JNE	L224
  1172 00000AE5                                 L226:
  1173 00000AE5 68 0000010A                     	PUSH	266
  1174 00000AEA 57                              	PUSH	EDI
  1175 00000AEB E8 [00000000]                   	CALL	_fifo32_put
  1176 00000AF0 8B 45 F0                        	MOV	EAX,DWORD [-16+EBP]
  1177 00000AF3 5B                              	POP	EBX
  1178 00000AF4 5E                              	POP	ESI
  1179 00000AF5 89 45 08                        	MOV	DWORD [8+EBP],EAX
  1180 00000AF8 8D 65 F4                        	LEA	ESP,DWORD [-12+EBP]
  1181 00000AFB 5B                              	POP	EBX
  1182 00000AFC 5E                              	POP	ESI
  1183 00000AFD 5F                              	POP	EDI
  1184 00000AFE 5D                              	POP	EBP
  1185 00000AFF E9 FFFFF8FE                     	JMP	_cons_newline
  1186 00000B04                                 L224:
  1187 00000B04 0F BE 04 1E                     	MOVSX	EAX,BYTE [ESI+EBX*1]
  1188 00000B08 05 00000100                     	ADD	EAX,256
  1189 00000B0D 46                              	INC	ESI
  1190 00000B0E 50                              	PUSH	EAX
  1191 00000B0F 57                              	PUSH	EDI
  1192 00000B10 E8 [00000000]                   	CALL	_fifo32_put
  1193 00000B15 80 3C 1E 00                     	CMP	BYTE [ESI+EBX*1],0
  1194 00000B19 58                              	POP	EAX
  1195 00000B1A 5A                              	POP	EDX
  1196 00000B1B 75 E7                           	JNE	L224
  1197 00000B1D EB C6                           	JMP	L226
  1198                                          [SECTION .data]
  1199 000000B4                                 LC18:
  1200 000000B4 6D 6F 64 65 20 6E 75 6D 62 65   	DB	"mode number error.",0x0A,0x00
       000000BE 72 20 65 72 72 6F 72 2E 0A 00 
  1201                                          [SECTION .text]
  1202 00000B1F                                 	GLOBAL	_cmd_langmode
  1203 00000B1F                                 _cmd_langmode:
  1204 00000B1F 55                              	PUSH	EBP
  1205 00000B20 89 E5                           	MOV	EBP,ESP
  1206 00000B22 56                              	PUSH	ESI
  1207 00000B23 53                              	PUSH	EBX
  1208 00000B24 8B 5D 0C                        	MOV	EBX,DWORD [12+EBP]
  1209 00000B27 8B 75 08                        	MOV	ESI,DWORD [8+EBP]
  1210 00000B2A E8 [00000000]                   	CALL	_task_now
  1211 00000B2F 8A 53 09                        	MOV	DL,BYTE [9+EBX]
  1212 00000B32 83 EA 30                        	SUB	EDX,48
  1213 00000B35 80 FA 02                        	CMP	DL,2
  1214 00000B38 77 14                           	JA	L228
  1215 00000B3A 88 90 000000CC                  	MOV	BYTE [204+EAX],DL
  1216 00000B40                                 L229:
  1217 00000B40 89 75 08                        	MOV	DWORD [8+EBP],ESI
  1218 00000B43 8D 65 F8                        	LEA	ESP,DWORD [-8+EBP]
  1219 00000B46 5B                              	POP	EBX
  1220 00000B47 5E                              	POP	ESI
  1221 00000B48 5D                              	POP	EBP
  1222 00000B49 E9 FFFFF8B4                     	JMP	_cons_newline
  1223 00000B4E                                 L228:
  1224 00000B4E 68 [000000B4]                   	PUSH	LC18
  1225 00000B53 56                              	PUSH	ESI
  1226 00000B54 E8 FFFFF9A4                     	CALL	_cons_putstr0
  1227 00000B59 58                              	POP	EAX
  1228 00000B5A 5A                              	POP	EDX
  1229 00000B5B EB E3                           	JMP	L229
  1230                                          [SECTION .data]
  1231 000000C8                                 LC19:
  1232 000000C8 48 61 72 69 00                  	DB	"Hari",0x00
  1233 000000CD                                 LC20:
  1234 000000CD 2E 68 72 62 20 66 69 6C 65 20   	DB	".hrb file format error.",0x0A,0x00
       000000D7 66 6F 72 6D 61 74 20 65 72 72 
       000000E1 6F 72 2E 0A 00 
  1235                                          [SECTION .text]
  1236 00000B5D                                 	GLOBAL	_cmd_app
  1237 00000B5D                                 _cmd_app:
  1238 00000B5D 55                              	PUSH	EBP
  1239 00000B5E 89 E5                           	MOV	EBP,ESP
  1240 00000B60 57                              	PUSH	EDI
  1241 00000B61 56                              	PUSH	ESI
  1242 00000B62 31 F6                           	XOR	ESI,ESI
  1243 00000B64 53                              	PUSH	EBX
  1244 00000B65 83 EC 48                        	SUB	ESP,72
  1245 00000B68 A1 0026F000                     	MOV	EAX,DWORD [2551808]
  1246 00000B6D 8B 5D 10                        	MOV	EBX,DWORD [16+EBP]
  1247 00000B70 89 45 CC                        	MOV	DWORD [-52+EBP],EAX
  1248 00000B73 E8 [00000000]                   	CALL	_task_now
  1249 00000B78 8B 80 00000104                  	MOV	EAX,DWORD [260+EAX]
  1250 00000B7E 89 45 C8                        	MOV	DWORD [-56+EBP],EAX
  1251 00000B81 E8 [00000000]                   	CALL	_task_now
  1252 00000B86 89 45 BC                        	MOV	DWORD [-68+EBP],EAX
  1253 00000B89                                 L236:
  1254 00000B89 8A 04 1E                        	MOV	AL,BYTE [ESI+EBX*1]
  1255 00000B8C 3C 20                           	CMP	AL,32
  1256 00000B8E 7E 0A                           	JLE	L232
  1257 00000B90 88 44 35 D4                     	MOV	BYTE [-44+EBP+ESI*1],AL
  1258 00000B94 46                              	INC	ESI
  1259 00000B95 83 FE 0C                        	CMP	ESI,12
  1260 00000B98 7E EF                           	JLE	L236
  1261 00000B9A                                 L232:
  1262 00000B9A 68 000000E0                     	PUSH	224
  1263 00000B9F 8D 5D D4                        	LEA	EBX,DWORD [-44+EBP]
  1264 00000BA2 68 00102600                     	PUSH	1058304
  1265 00000BA7 53                              	PUSH	EBX
  1266 00000BA8 C6 44 35 D4 00                  	MOV	BYTE [-44+EBP+ESI*1],0
  1267 00000BAD E8 [00000000]                   	CALL	_file_search
  1268 00000BB2 83 C4 0C                        	ADD	ESP,12
  1269 00000BB5 89 C2                           	MOV	EDX,EAX
  1270 00000BB7 85 C0                           	TEST	EAX,EAX
  1271 00000BB9 0F 84 000002E7                  	JE	L294
  1272 00000BBF                                 L293:
  1273 00000BBF 8B 42 1C                        	MOV	EAX,DWORD [28+EDX]
  1274 00000BC2 89 45 D0                        	MOV	DWORD [-48+EBP],EAX
  1275 00000BC5 8D 45 D0                        	LEA	EAX,DWORD [-48+EBP]
  1276 00000BC8 FF 75 0C                        	PUSH	DWORD [12+EBP]
  1277 00000BCB 50                              	PUSH	EAX
  1278 00000BCC 0F B7 42 1A                     	MOVZX	EAX,WORD [26+EDX]
  1279 00000BD0 50                              	PUSH	EAX
  1280 00000BD1 E8 [00000000]                   	CALL	_file_loadfile2
  1281 00000BD6 83 C4 0C                        	ADD	ESP,12
  1282 00000BD9 83 7D D0 23                     	CMP	DWORD [-48+EBP],35
  1283 00000BDD 89 45 C4                        	MOV	DWORD [-60+EBP],EAX
  1284 00000BE0 7E 1C                           	JLE	L239
  1285 00000BE2 89 C6                           	MOV	ESI,EAX
  1286 00000BE4 BF [000000C8]                   	MOV	EDI,LC19
  1287 00000BE9 FC                              	CLD
  1288 00000BEA 83 C6 04                        	ADD	ESI,4
  1289 00000BED B9 00000004                     	MOV	ECX,4
  1290 00000BF2 F3                              	REPE
  1291 00000BF3 A6                              	CMPSB
  1292 00000BF4 75 08                           	JNE	L239
  1293 00000BF6 8B 55 C4                        	MOV	EDX,DWORD [-60+EBP]
  1294 00000BF9 80 3A 00                        	CMP	BYTE [EDX],0
  1295 00000BFC 74 6A                           	JE	L295
  1296 00000BFE                                 L239:
  1297 00000BFE 68 [000000CD]                   	PUSH	LC20
  1298 00000C03 FF 75 08                        	PUSH	DWORD [8+EBP]
  1299 00000C06 E8 FFFFF8F2                     	CALL	_cons_putstr0
  1300 00000C0B 59                              	POP	ECX
  1301 00000C0C 5B                              	POP	EBX
  1302 00000C0D                                 L272:
  1303 00000C0D 8B 45 D0                        	MOV	EAX,DWORD [-48+EBP]
  1304 00000C10 31 F6                           	XOR	ESI,ESI
  1305 00000C12 05 00000FFF                     	ADD	EAX,4095
  1306 00000C17 C1 F8 0C                        	SAR	EAX,12
  1307 00000C1A 39 C6                           	CMP	ESI,EAX
  1308 00000C1C 7D 27                           	JGE	L292
  1309 00000C1E 8B 5D C4                        	MOV	EBX,DWORD [-60+EBP]
  1310 00000C21                                 L277:
  1311 00000C21 6A 01                           	PUSH	1
  1312 00000C23 46                              	INC	ESI
  1313 00000C24 53                              	PUSH	EBX
  1314 00000C25 81 C3 00001000                  	ADD	EBX,4096
  1315 00000C2B FF 75 CC                        	PUSH	DWORD [-52+EBP]
  1316 00000C2E E8 [00000000]                   	CALL	_pageman_unlink_page_32
  1317 00000C33 8B 45 D0                        	MOV	EAX,DWORD [-48+EBP]
  1318 00000C36 05 00000FFF                     	ADD	EAX,4095
  1319 00000C3B 83 C4 0C                        	ADD	ESP,12
  1320 00000C3E C1 F8 0C                        	SAR	EAX,12
  1321 00000C41 39 C6                           	CMP	ESI,EAX
  1322 00000C43 7C DC                           	JL	L277
  1323 00000C45                                 L292:
  1324 00000C45 FF 75 D0                        	PUSH	DWORD [-48+EBP]
  1325 00000C48 FF 75 C4                        	PUSH	DWORD [-60+EBP]
  1326 00000C4B FF 75 C8                        	PUSH	DWORD [-56+EBP]
  1327 00000C4E E8 [00000000]                   	CALL	_memman_free_4k
  1328 00000C53 FF 75 08                        	PUSH	DWORD [8+EBP]
  1329 00000C56 E8 FFFFF7A7                     	CALL	_cons_newline
  1330 00000C5B B8 00000001                     	MOV	EAX,1
  1331 00000C60                                 L230:
  1332 00000C60 8D 65 F4                        	LEA	ESP,DWORD [-12+EBP]
  1333 00000C63 5B                              	POP	EBX
  1334 00000C64 5E                              	POP	ESI
  1335 00000C65 5F                              	POP	EDI
  1336 00000C66 5D                              	POP	EBP
  1337 00000C67 C3                              	RET
  1338 00000C68                                 L295:
  1339 00000C68 8B 02                           	MOV	EAX,DWORD [EDX]
  1340 00000C6A 8B 5A 10                        	MOV	EBX,DWORD [16+EDX]
  1341 00000C6D 8B 7A 0C                        	MOV	EDI,DWORD [12+EDX]
  1342 00000C70 8B 72 14                        	MOV	ESI,DWORD [20+EDX]
  1343 00000C73 50                              	PUSH	EAX
  1344 00000C74 89 45 B8                        	MOV	DWORD [-72+EBP],EAX
  1345 00000C77 E8 [00000000]                   	CALL	_task_now
  1346 00000C7C FF B0 00000104                  	PUSH	DWORD [260+EAX]
  1347 00000C82 E8 [00000000]                   	CALL	_memman_alloc_4k
  1348 00000C87 6A 00                           	PUSH	0
  1349 00000C89 89 45 C0                        	MOV	DWORD [-64+EBP],EAX
  1350 00000C8C 8B 45 B8                        	MOV	EAX,DWORD [-72+EBP]
  1351 00000C8F 05 00000FFF                     	ADD	EAX,4095
  1352 00000C94 C1 F8 0C                        	SAR	EAX,12
  1353 00000C97 50                              	PUSH	EAX
  1354 00000C98 6A 07                           	PUSH	7
  1355 00000C9A FF 75 C0                        	PUSH	DWORD [-64+EBP]
  1356 00000C9D FF 75 CC                        	PUSH	DWORD [-52+EBP]
  1357 00000CA0 E8 [00000000]                   	CALL	_pageman_link_page_32_m
  1358 00000CA5 8B 55 BC                        	MOV	EDX,DWORD [-68+EBP]
  1359 00000CA8 8B 45 C0                        	MOV	EAX,DWORD [-64+EBP]
  1360 00000CAB 89 82 000000B8                  	MOV	DWORD [184+EDX],EAX
  1361 00000CB1 8B 45 D0                        	MOV	EAX,DWORD [-48+EBP]
  1362 00000CB4 68 000040FA                     	PUSH	16634
  1363 00000CB9 48                              	DEC	EAX
  1364 00000CBA FF 75 C4                        	PUSH	DWORD [-60+EBP]
  1365 00000CBD 50                              	PUSH	EAX
  1366 00000CBE 89 D0                           	MOV	EAX,EDX
  1367 00000CC0 05 000000A4                     	ADD	EAX,164
  1368 00000CC5 50                              	PUSH	EAX
  1369 00000CC6 E8 [00000000]                   	CALL	_set_segmdesc
  1370 00000CCB 8B 45 B8                        	MOV	EAX,DWORD [-72+EBP]
  1371 00000CCE 83 C4 2C                        	ADD	ESP,44
  1372 00000CD1 48                              	DEC	EAX
  1373 00000CD2 68 000040F2                     	PUSH	16626
  1374 00000CD7 FF 75 C0                        	PUSH	DWORD [-64+EBP]
  1375 00000CDA 50                              	PUSH	EAX
  1376 00000CDB 8B 45 BC                        	MOV	EAX,DWORD [-68+EBP]
  1377 00000CDE 05 000000AC                     	ADD	EAX,172
  1378 00000CE3 50                              	PUSH	EAX
  1379 00000CE4 E8 [00000000]                   	CALL	_set_segmdesc
  1380 00000CE9 83 C4 10                        	ADD	ESP,16
  1381 00000CEC 85 DB                           	TEST	EBX,EBX
  1382 00000CEE 7E 17                           	JLE	L280
  1383 00000CF0 8B 55 C0                        	MOV	EDX,DWORD [-64+EBP]
  1384 00000CF3 8B 45 C4                        	MOV	EAX,DWORD [-60+EBP]
  1385 00000CF6 8D 0C 3A                        	LEA	ECX,DWORD [EDX+EDI*1]
  1386 00000CF9 8D 14 30                        	LEA	EDX,DWORD [EAX+ESI*1]
  1387 00000CFC 89 DE                           	MOV	ESI,EBX
  1388 00000CFE                                 L244:
  1389 00000CFE 8A 02                           	MOV	AL,BYTE [EDX]
  1390 00000D00 42                              	INC	EDX
  1391 00000D01 88 01                           	MOV	BYTE [ECX],AL
  1392 00000D03 41                              	INC	ECX
  1393 00000D04 4E                              	DEC	ESI
  1394 00000D05 75 F7                           	JNE	L244
  1395 00000D07                                 L280:
  1396 00000D07 8B 45 BC                        	MOV	EAX,DWORD [-68+EBP]
  1397 00000D0A 83 C0 30                        	ADD	EAX,48
  1398 00000D0D 50                              	PUSH	EAX
  1399 00000D0E 6A 1C                           	PUSH	28
  1400 00000D10 57                              	PUSH	EDI
  1401 00000D11 31 FF                           	XOR	EDI,EDI
  1402 00000D13 6A 14                           	PUSH	20
  1403 00000D15 6A 1B                           	PUSH	27
  1404 00000D17 E8 [00000000]                   	CALL	_start_app
  1405 00000D1C 83 C4 14                        	ADD	ESP,20
  1406 00000D1F 8B 15 0026F018                  	MOV	EDX,DWORD [2551832]
  1407 00000D25 3B 3D 0026F01C                  	CMP	EDI,DWORD [2551836]
  1408 00000D2B 89 55 B0                        	MOV	DWORD [-80+EBP],EDX
  1409 00000D2E 7D 39                           	JGE	L282
  1410 00000D30                                 L255:
  1411 00000D30 8B 45 B0                        	MOV	EAX,DWORD [-80+EBP]
  1412 00000D33 31 DB                           	XOR	EBX,EBX
  1413 00000D35 BE 000000FF                     	MOV	ESI,255
  1414 00000D3A 8B 04 B8                        	MOV	EAX,DWORD [EAX+EDI*4]
  1415 00000D3D 89 45 B4                        	MOV	DWORD [-76+EBP],EAX
  1416 00000D40                                 L254:
  1417 00000D40 8B 45 B4                        	MOV	EAX,DWORD [-76+EBP]
  1418 00000D43 8B 90 0000081C                  	MOV	EDX,DWORD [2076+EAX]
  1419 00000D49 01 DA                           	ADD	EDX,EBX
  1420 00000D4B 8B 42 20                        	MOV	EAX,DWORD [32+EDX]
  1421 00000D4E 83 E0 11                        	AND	EAX,17
  1422 00000D51 83 F8 11                        	CMP	EAX,17
  1423 00000D54 0F 84 00000134                  	JE	L296
  1424 00000D5A                                 L251:
  1425 00000D5A 83 C3 48                        	ADD	EBX,72
  1426 00000D5D 4E                              	DEC	ESI
  1427 00000D5E 79 E0                           	JNS	L254
  1428 00000D60 47                              	INC	EDI
  1429 00000D61 3B 3D 0026F01C                  	CMP	EDI,DWORD [2551836]
  1430 00000D67 7C C7                           	JL	L255
  1431 00000D69                                 L282:
  1432 00000D69 31 F6                           	XOR	ESI,ESI
  1433 00000D6B                                 L266:
  1434 00000D6B 8B 45 BC                        	MOV	EAX,DWORD [-68+EBP]
  1435 00000D6E 8B 90 000000C0                  	MOV	EDX,DWORD [192+EAX]
  1436 00000D74 6B C6 0C                        	IMUL	EAX,ESI,12
  1437 00000D77 83 3C 02 00                     	CMP	DWORD [EDX+EAX*1],0
  1438 00000D7B 0F 84 00000096                  	JE	L258
  1439 00000D81 8B 42 04                        	MOV	EAX,DWORD [4+EDX]
  1440 00000D84 31 F6                           	XOR	ESI,ESI
  1441 00000D86 05 00000FFF                     	ADD	EAX,4095
  1442 00000D8B C1 F8 0C                        	SAR	EAX,12
  1443 00000D8E 39 C6                           	CMP	ESI,EAX
  1444 00000D90 7D 51                           	JGE	L288
  1445 00000D92 C7 45 AC 00000000               	MOV	DWORD [-84+EBP],0
  1446 00000D99 31 FF                           	XOR	EDI,EDI
  1447 00000D9B 31 DB                           	XOR	EBX,EBX
  1448 00000D9D                                 L265:
  1449 00000D9D 8B 55 BC                        	MOV	EDX,DWORD [-68+EBP]
  1450 00000DA0 6A 01                           	PUSH	1
  1451 00000DA2 46                              	INC	ESI
  1452 00000DA3 8B 82 000000C0                  	MOV	EAX,DWORD [192+EDX]
  1453 00000DA9 8B 04 18                        	MOV	EAX,DWORD [EAX+EBX*1]
  1454 00000DAC 83 C3 0C                        	ADD	EBX,12
  1455 00000DAF 01 F8                           	ADD	EAX,EDI
  1456 00000DB1 81 C7 00001000                  	ADD	EDI,4096
  1457 00000DB7 50                              	PUSH	EAX
  1458 00000DB8 FF 75 CC                        	PUSH	DWORD [-52+EBP]
  1459 00000DBB E8 [00000000]                   	CALL	_pageman_unlink_page_32
  1460 00000DC0 8B 55 BC                        	MOV	EDX,DWORD [-68+EBP]
  1461 00000DC3 83 45 AC 0C                     	ADD	DWORD [-84+EBP],12
  1462 00000DC7 8B 82 000000C0                  	MOV	EAX,DWORD [192+EDX]
  1463 00000DCD 83 C4 0C                        	ADD	ESP,12
  1464 00000DD0 8B 55 AC                        	MOV	EDX,DWORD [-84+EBP]
  1465 00000DD3 8B 44 10 04                     	MOV	EAX,DWORD [4+EAX+EDX*1]
  1466 00000DD7 05 00000FFF                     	ADD	EAX,4095
  1467 00000DDC C1 F8 0C                        	SAR	EAX,12
  1468 00000DDF 39 C6                           	CMP	ESI,EAX
  1469 00000DE1 7C BA                           	JL	L265
  1470 00000DE3                                 L288:
  1471 00000DE3 6B DE 0C                        	IMUL	EBX,ESI,12
  1472 00000DE6 8B 55 BC                        	MOV	EDX,DWORD [-68+EBP]
  1473 00000DE9 8B 82 000000C0                  	MOV	EAX,DWORD [192+EDX]
  1474 00000DEF FF 74 18 04                     	PUSH	DWORD [4+EAX+EBX*1]
  1475 00000DF3 8B 82 000000C0                  	MOV	EAX,DWORD [192+EDX]
  1476 00000DF9 FF 34 18                        	PUSH	DWORD [EAX+EBX*1]
  1477 00000DFC FF 75 C8                        	PUSH	DWORD [-56+EBP]
  1478 00000DFF E8 [00000000]                   	CALL	_memman_free_4k
  1479 00000E04 83 C4 0C                        	ADD	ESP,12
  1480 00000E07 8B 55 BC                        	MOV	EDX,DWORD [-68+EBP]
  1481 00000E0A 8B 82 000000C0                  	MOV	EAX,DWORD [192+EDX]
  1482 00000E10 C7 04 18 00000000               	MOV	DWORD [EAX+EBX*1],0
  1483 00000E17                                 L258:
  1484 00000E17 46                              	INC	ESI
  1485 00000E18 83 FE 07                        	CMP	ESI,7
  1486 00000E1B 0F 8E FFFFFF4A                  	JLE	L266
  1487 00000E21 8B 45 BC                        	MOV	EAX,DWORD [-68+EBP]
  1488 00000E24 31 F6                           	XOR	ESI,ESI
  1489 00000E26 83 C0 10                        	ADD	EAX,16
  1490 00000E29 50                              	PUSH	EAX
  1491 00000E2A E8 [00000000]                   	CALL	_timer_cancelall
  1492 00000E2F 8B 45 B8                        	MOV	EAX,DWORD [-72+EBP]
  1493 00000E32 05 00000FFF                     	ADD	EAX,4095
  1494 00000E37 5F                              	POP	EDI
  1495 00000E38 C1 F8 0C                        	SAR	EAX,12
  1496 00000E3B 39 C6                           	CMP	ESI,EAX
  1497 00000E3D 7D 2F                           	JGE	L290
  1498 00000E3F 8B 5D C0                        	MOV	EBX,DWORD [-64+EBP]
  1499 00000E42                                 L271:
  1500 00000E42 6A 01                           	PUSH	1
  1501 00000E44 46                              	INC	ESI
  1502 00000E45 53                              	PUSH	EBX
  1503 00000E46 81 C3 00001000                  	ADD	EBX,4096
  1504 00000E4C E8 [00000000]                   	CALL	_task_now
  1505 00000E51 FF B0 00000104                  	PUSH	DWORD [260+EAX]
  1506 00000E57 E8 [00000000]                   	CALL	_pageman_unlink_page_32
  1507 00000E5C 8B 45 B8                        	MOV	EAX,DWORD [-72+EBP]
  1508 00000E5F 05 00000FFF                     	ADD	EAX,4095
  1509 00000E64 83 C4 0C                        	ADD	ESP,12
  1510 00000E67 C1 F8 0C                        	SAR	EAX,12
  1511 00000E6A 39 C6                           	CMP	ESI,EAX
  1512 00000E6C 7C D4                           	JL	L271
  1513 00000E6E                                 L290:
  1514 00000E6E FF 75 B8                        	PUSH	DWORD [-72+EBP]
  1515 00000E71 FF 75 C0                        	PUSH	DWORD [-64+EBP]
  1516 00000E74 FF 75 C8                        	PUSH	DWORD [-56+EBP]
  1517 00000E77 E8 [00000000]                   	CALL	_memman_free_4k
  1518 00000E7C 83 C4 0C                        	ADD	ESP,12
  1519 00000E7F 8B 45 BC                        	MOV	EAX,DWORD [-68+EBP]
  1520 00000E82 C6 80 000000CD 00               	MOV	BYTE [205+EAX],0
  1521 00000E89 E9 FFFFFD7F                     	JMP	L272
  1522 00000E8E                                 L296:
  1523 00000E8E 8B 45 BC                        	MOV	EAX,DWORD [-68+EBP]
  1524 00000E91 39 42 30                        	CMP	DWORD [48+EDX],EAX
  1525 00000E94 0F 85 FFFFFEC0                  	JNE	L251
  1526 00000E9A 52                              	PUSH	EDX
  1527 00000E9B E8 [00000000]                   	CALL	_sheet_free
  1528 00000EA0 58                              	POP	EAX
  1529 00000EA1 E9 FFFFFEB4                     	JMP	L251
  1530 00000EA6                                 L294:
  1531 00000EA6 80 7C 35 D3 2E                  	CMP	BYTE [-45+EBP+ESI*1],46
  1532 00000EAB 74 2E                           	JE	L237
  1533 00000EAD 68 000000E0                     	PUSH	224
  1534 00000EB2 68 00102600                     	PUSH	1058304
  1535 00000EB7 53                              	PUSH	EBX
  1536 00000EB8 C6 44 35 D4 2E                  	MOV	BYTE [-44+EBP+ESI*1],46
  1537 00000EBD C6 44 35 D5 48                  	MOV	BYTE [-43+EBP+ESI*1],72
  1538 00000EC2 C6 44 35 D6 52                  	MOV	BYTE [-42+EBP+ESI*1],82
  1539 00000EC7 C6 44 35 D7 42                  	MOV	BYTE [-41+EBP+ESI*1],66
  1540 00000ECC C6 44 35 D8 00                  	MOV	BYTE [-40+EBP+ESI*1],0
  1541 00000ED1 E8 [00000000]                   	CALL	_file_search
  1542 00000ED6 83 C4 0C                        	ADD	ESP,12
  1543 00000ED9 89 C2                           	MOV	EDX,EAX
  1544 00000EDB                                 L237:
  1545 00000EDB 85 D2                           	TEST	EDX,EDX
  1546 00000EDD 0F 85 FFFFFCDC                  	JNE	L293
  1547 00000EE3 31 C0                           	XOR	EAX,EAX
  1548 00000EE5 E9 FFFFFD76                     	JMP	L230
  1549 00000EEA                                 	GLOBAL	_hrb_api
  1550 00000EEA                                 _hrb_api:
  1551 00000EEA 55                              	PUSH	EBP
  1552 00000EEB 89 E5                           	MOV	EBP,ESP
  1553 00000EED 57                              	PUSH	EDI
  1554 00000EEE 56                              	PUSH	ESI
  1555 00000EEF 53                              	PUSH	EBX
  1556 00000EF0 83 EC 48                        	SUB	ESP,72
  1557 00000EF3 A1 0026F000                     	MOV	EAX,DWORD [2551808]
  1558 00000EF8 8B 5D 1C                        	MOV	EBX,DWORD [28+EBP]
  1559 00000EFB 8B 7D 18                        	MOV	EDI,DWORD [24+EBP]
  1560 00000EFE 89 45 D0                        	MOV	DWORD [-48+EBP],EAX
  1561 00000F01 E8 [00000000]                   	CALL	_task_now
  1562 00000F06 8B 0D 00000FE4                  	MOV	ECX,DWORD [4068]
  1563 00000F0C 89 4D C4                        	MOV	DWORD [-60+EBP],ECX
  1564 00000F0F 8B 90 000000B8                  	MOV	EDX,DWORD [184+EAX]
  1565 00000F15 89 45 CC                        	MOV	DWORD [-52+EBP],EAX
  1566 00000F18 8B B0 000000B4                  	MOV	ESI,DWORD [180+EAX]
  1567 00000F1E 89 55 C8                        	MOV	DWORD [-56+EBP],EDX
  1568 00000F21 A1 00000FEC                     	MOV	EAX,DWORD [4076]
  1569 00000F26 89 45 C0                        	MOV	DWORD [-64+EBP],EAX
  1570 00000F29 E8 [00000000]                   	CALL	_task_now
  1571 00000F2E 83 FB 01                        	CMP	EBX,1
  1572 00000F31 8B 80 00000104                  	MOV	EAX,DWORD [260+EAX]
  1573 00000F37 89 45 BC                        	MOV	DWORD [-68+EBP],EAX
  1574 00000F3A 0F 84 00000781                  	JE	L434
  1575 00000F40 83 FB 02                        	CMP	EBX,2
  1576 00000F43 0F 84 00000766                  	JE	L435
  1577 00000F49 83 FB 03                        	CMP	EBX,3
  1578 00000F4C 0F 84 00000748                  	JE	L436
  1579 00000F52 83 FB 04                        	CMP	EBX,4
  1580 00000F55 0F 84 00000734                  	JE	L437
  1581 00000F5B 83 FB 05                        	CMP	EBX,5
  1582 00000F5E 0F 84 00000613                  	JE	L438
  1583 00000F64 83 FB 06                        	CMP	EBX,6
  1584 00000F67 0F 84 000005B7                  	JE	L439
  1585 00000F6D 83 FB 07                        	CMP	EBX,7
  1586 00000F70 0F 84 0000057F                  	JE	L440
  1587 00000F76 83 FB 08                        	CMP	EBX,8
  1588 00000F79 0F 84 00000552                  	JE	L441
  1589 00000F7F 83 FB 09                        	CMP	EBX,9
  1590 00000F82 0F 84 0000052B                  	JE	L442
  1591 00000F88 83 FB 0A                        	CMP	EBX,10
  1592 00000F8B 0F 84 00000504                  	JE	L443
  1593 00000F91 83 FB 0B                        	CMP	EBX,11
  1594 00000F94 0F 84 000004BB                  	JE	L444
  1595 00000F9A 83 FB 0C                        	CMP	EBX,12
  1596 00000F9D 0F 84 00000495                  	JE	L445
  1597 00000FA3 83 FB 0D                        	CMP	EBX,13
  1598 00000FA6 0F 84 00000418                  	JE	L446
  1599 00000FAC 83 FB 0E                        	CMP	EBX,14
  1600 00000FAF 0F 84 00000404                  	JE	L447
  1601 00000FB5 83 FB 0F                        	CMP	EBX,15
  1602 00000FB8 0F 84 00000321                  	JE	L343
  1603 00000FBE 83 FB 10                        	CMP	EBX,16
  1604 00000FC1 0F 84 00000307                  	JE	L448
  1605 00000FC7 83 FB 11                        	CMP	EBX,17
  1606 00000FCA 0F 84 000002E3                  	JE	L449
  1607 00000FD0 83 FB 12                        	CMP	EBX,18
  1608 00000FD3 0F 84 000002CA                  	JE	L450
  1609 00000FD9 83 FB 13                        	CMP	EBX,19
  1610 00000FDC 0F 84 000002B5                  	JE	L451
  1611 00000FE2 83 FB 14                        	CMP	EBX,20
  1612 00000FE5 0F 84 0000023D                  	JE	L452
  1613 00000FEB 83 FB 15                        	CMP	EBX,21
  1614 00000FEE 0F 84 000001AE                  	JE	L453
  1615 00000FF4 83 FB 16                        	CMP	EBX,22
  1616 00000FF7 0F 84 00000135                  	JE	L454
  1617 00000FFD 83 FB 17                        	CMP	EBX,23
  1618 00001000 0F 84 000000DA                  	JE	L455
  1619 00001006 83 FB 18                        	CMP	EBX,24
  1620 00001009 0F 84 00000090                  	JE	L456
  1621 0000100F 83 FB 19                        	CMP	EBX,25
  1622 00001012 74 53                           	JE	L457
  1623 00001014 83 FB 1A                        	CMP	EBX,26
  1624 00001017 74 1E                           	JE	L458
  1625 00001019 83 FB 1B                        	CMP	EBX,27
  1626 0000101C 74 0A                           	JE	L459
  1627 0000101E                                 L299:
  1628 0000101E 31 C0                           	XOR	EAX,EAX
  1629 00001020                                 L297:
  1630 00001020 8D 65 F4                        	LEA	ESP,DWORD [-12+EBP]
  1631 00001023 5B                              	POP	EBX
  1632 00001024 5E                              	POP	ESI
  1633 00001025 5F                              	POP	EDI
  1634 00001026 5D                              	POP	EBP
  1635 00001027 C3                              	RET
  1636 00001028                                 L459:
  1637 00001028 8B 55 CC                        	MOV	EDX,DWORD [-52+EBP]
  1638 0000102B 0F B6 82 000000CC               	MOVZX	EAX,BYTE [204+EDX]
  1639 00001032                                 L426:
  1640 00001032 89 45 44                        	MOV	DWORD [68+EBP],EAX
  1641 00001035 EB E7                           	JMP	L299
  1642 00001037                                 L458:
  1643 00001037 31 DB                           	XOR	EBX,EBX
  1644 00001039                                 L410:
  1645 00001039 8B 75 CC                        	MOV	ESI,DWORD [-52+EBP]
  1646 0000103C 8B 4D C8                        	MOV	ECX,DWORD [-56+EBP]
  1647 0000103F 8B 86 000000C8                  	MOV	EAX,DWORD [200+ESI]
  1648 00001045 8D 14 39                        	LEA	EDX,DWORD [ECX+EDI*1]
  1649 00001048 8A 04 03                        	MOV	AL,BYTE [EBX+EAX*1]
  1650 0000104B 88 04 13                        	MOV	BYTE [EBX+EDX*1],AL
  1651 0000104E 8B 86 000000C8                  	MOV	EAX,DWORD [200+ESI]
  1652 00001054 80 3C 03 00                     	CMP	BYTE [EBX+EAX*1],0
  1653 00001058 74 08                           	JE	L411
  1654 0000105A 3B 5D 20                        	CMP	EBX,DWORD [32+EBP]
  1655 0000105D 7D 03                           	JGE	L411
  1656 0000105F 43                              	INC	EBX
  1657 00001060 EB D7                           	JMP	L410
  1658 00001062                                 L411:
  1659 00001062 89 5D 44                        	MOV	DWORD [68+EBP],EBX
  1660 00001065 EB B7                           	JMP	L299
  1661 00001067                                 L457:
  1662 00001067 6B 45 24 0C                     	IMUL	EAX,DWORD [36+EBP],12
  1663 0000106B 8B 75 CC                        	MOV	ESI,DWORD [-52+EBP]
  1664 0000106E 31 DB                           	XOR	EBX,EBX
  1665 00001070 03 86 000000C0                  	ADD	EAX,DWORD [192+ESI]
  1666 00001076 3B 5D 20                        	CMP	EBX,DWORD [32+EBP]
  1667 00001079 8D 70 F4                        	LEA	ESI,DWORD [-12+EAX]
  1668 0000107C 7D E4                           	JGE	L411
  1669 0000107E                                 L407:
  1670 0000107E 8B 4E 08                        	MOV	ECX,DWORD [8+ESI]
  1671 00001081 3B 4E 04                        	CMP	ECX,DWORD [4+ESI]
  1672 00001084 74 DC                           	JE	L411
  1673 00001086 8B 55 C8                        	MOV	EDX,DWORD [-56+EBP]
  1674 00001089 8D 04 3A                        	LEA	EAX,DWORD [EDX+EDI*1]
  1675 0000108C 8B 16                           	MOV	EDX,DWORD [ESI]
  1676 0000108E 8A 14 11                        	MOV	DL,BYTE [ECX+EDX*1]
  1677 00001091 88 14 03                        	MOV	BYTE [EBX+EAX*1],DL
  1678 00001094 43                              	INC	EBX
  1679 00001095 FF 46 08                        	INC	DWORD [8+ESI]
  1680 00001098 3B 5D 20                        	CMP	EBX,DWORD [32+EBP]
  1681 0000109B 7C E1                           	JL	L407
  1682 0000109D EB C3                           	JMP	L411
  1683 0000109F                                 L456:
  1684 0000109F 6B 45 24 0C                     	IMUL	EAX,DWORD [36+EBP],12
  1685 000010A3 8B 4D CC                        	MOV	ECX,DWORD [-52+EBP]
  1686 000010A6 03 81 000000C0                  	ADD	EAX,DWORD [192+ECX]
  1687 000010AC 83 7D 20 00                     	CMP	DWORD [32+EBP],0
  1688 000010B0 8D 70 F4                        	LEA	ESI,DWORD [-12+EAX]
  1689 000010B3 75 08                           	JNE	L395
  1690 000010B5 8B 46 04                        	MOV	EAX,DWORD [4+ESI]
  1691 000010B8 E9 FFFFFF75                     	JMP	L426
  1692 000010BD                                 L395:
  1693 000010BD 83 7D 20 01                     	CMP	DWORD [32+EBP],1
  1694 000010C1 74 15                           	JE	L460
  1695 000010C3 83 7D 20 02                     	CMP	DWORD [32+EBP],2
  1696 000010C7 0F 85 FFFFFF51                  	JNE	L299
  1697 000010CD 8B 46 08                        	MOV	EAX,DWORD [8+ESI]
  1698 000010D0 2B 46 04                        	SUB	EAX,DWORD [4+ESI]
  1699 000010D3 E9 FFFFFF5A                     	JMP	L426
  1700 000010D8                                 L460:
  1701 000010D8 8B 46 08                        	MOV	EAX,DWORD [8+ESI]
  1702 000010DB E9 FFFFFF52                     	JMP	L426
  1703 000010E0                                 L455:
  1704 000010E0 6B 45 24 0C                     	IMUL	EAX,DWORD [36+EBP],12
  1705 000010E4 8B 55 CC                        	MOV	EDX,DWORD [-52+EBP]
  1706 000010E7 03 82 000000C0                  	ADD	EAX,DWORD [192+EDX]
  1707 000010ED 83 7D 20 00                     	CMP	DWORD [32+EBP],0
  1708 000010F1 8D 70 F4                        	LEA	ESI,DWORD [-12+EAX]
  1709 000010F4 74 32                           	JE	L425
  1710 000010F6 83 7D 20 01                     	CMP	DWORD [32+EBP],1
  1711 000010FA 74 31                           	JE	L461
  1712 000010FC 83 7D 20 02                     	CMP	DWORD [32+EBP],2
  1713 00001100 74 23                           	JE	L462
  1714 00001102                                 L387:
  1715 00001102 83 7E 08 00                     	CMP	DWORD [8+ESI],0
  1716 00001106 78 14                           	JS	L463
  1717 00001108                                 L391:
  1718 00001108 8B 46 04                        	MOV	EAX,DWORD [4+ESI]
  1719 0000110B 39 46 08                        	CMP	DWORD [8+ESI],EAX
  1720 0000110E 0F 8E FFFFFF0A                  	JLE	L299
  1721 00001114 89 46 08                        	MOV	DWORD [8+ESI],EAX
  1722 00001117 E9 FFFFFF02                     	JMP	L299
  1723 0000111C                                 L463:
  1724 0000111C C7 46 08 00000000               	MOV	DWORD [8+ESI],0
  1725 00001123 EB E3                           	JMP	L391
  1726 00001125                                 L462:
  1727 00001125 03 7E 04                        	ADD	EDI,DWORD [4+ESI]
  1728 00001128                                 L425:
  1729 00001128 89 7E 08                        	MOV	DWORD [8+ESI],EDI
  1730 0000112B EB D5                           	JMP	L387
  1731 0000112D                                 L461:
  1732 0000112D 01 7E 08                        	ADD	DWORD [8+ESI],EDI
  1733 00001130 EB D0                           	JMP	L387
  1734 00001132                                 L454:
  1735 00001132 6B 45 24 0C                     	IMUL	EAX,DWORD [36+EBP],12
  1736 00001136 8B 75 CC                        	MOV	ESI,DWORD [-52+EBP]
  1737 00001139 03 86 000000C0                  	ADD	EAX,DWORD [192+ESI]
  1738 0000113F 8D 70 F4                        	LEA	ESI,DWORD [-12+EAX]
  1739 00001142 83 78 F4 00                     	CMP	DWORD [-12+EAX],0
  1740 00001146 0F 84 FFFFFED2                  	JE	L299
  1741 0000114C 8B 46 04                        	MOV	EAX,DWORD [4+ESI]
  1742 0000114F 31 DB                           	XOR	EBX,EBX
  1743 00001151 05 00000FFF                     	ADD	EAX,4095
  1744 00001156 C1 F8 0C                        	SAR	EAX,12
  1745 00001159 39 C3                           	CMP	EBX,EAX
  1746 0000115B 7D 2A                           	JGE	L423
  1747 0000115D 31 FF                           	XOR	EDI,EDI
  1748 0000115F                                 L383:
  1749 0000115F 6A 01                           	PUSH	1
  1750 00001161 43                              	INC	EBX
  1751 00001162 8B 06                           	MOV	EAX,DWORD [ESI]
  1752 00001164 01 F8                           	ADD	EAX,EDI
  1753 00001166 81 C7 00001000                  	ADD	EDI,4096
  1754 0000116C 50                              	PUSH	EAX
  1755 0000116D FF 75 D0                        	PUSH	DWORD [-48+EBP]
  1756 00001170 E8 [00000000]                   	CALL	_pageman_unlink_page_32
  1757 00001175 8B 46 04                        	MOV	EAX,DWORD [4+ESI]
  1758 00001178 05 00000FFF                     	ADD	EAX,4095
  1759 0000117D 83 C4 0C                        	ADD	ESP,12
  1760 00001180 C1 F8 0C                        	SAR	EAX,12
  1761 00001183 39 C3                           	CMP	EBX,EAX
  1762 00001185 7C D8                           	JL	L383
  1763 00001187                                 L423:
  1764 00001187 FF 76 04                        	PUSH	DWORD [4+ESI]
  1765 0000118A FF 36                           	PUSH	DWORD [ESI]
  1766 0000118C FF 75 BC                        	PUSH	DWORD [-68+EBP]
  1767 0000118F E8 [00000000]                   	CALL	_memman_free_4k
  1768 00001194 C7 06 00000000                  	MOV	DWORD [ESI],0
  1769 0000119A                                 L427:
  1770 0000119A 83 C4 0C                        	ADD	ESP,12
  1771 0000119D E9 FFFFFE7C                     	JMP	L299
  1772 000011A2                                 L453:
  1773 000011A2 31 DB                           	XOR	EBX,EBX
  1774 000011A4 31 C0                           	XOR	EAX,EAX
  1775 000011A6                                 L373:
  1776 000011A6 8B 4D CC                        	MOV	ECX,DWORD [-52+EBP]
  1777 000011A9 8B 91 000000C0                  	MOV	EDX,DWORD [192+ECX]
  1778 000011AF 83 3C 02 00                     	CMP	DWORD [EDX+EAX*1],0
  1779 000011B3 74 09                           	JE	L369
  1780 000011B5 43                              	INC	EBX
  1781 000011B6 83 C0 0C                        	ADD	EAX,12
  1782 000011B9 83 FB 07                        	CMP	EBX,7
  1783 000011BC 7E E8                           	JLE	L373
  1784 000011BE                                 L369:
  1785 000011BE 6B C3 0C                        	IMUL	EAX,EBX,12
  1786 000011C1 C7 45 44 00000000               	MOV	DWORD [68+EBP],0
  1787 000011C8 8D 34 10                        	LEA	ESI,DWORD [EAX+EDX*1]
  1788 000011CB 83 FB 07                        	CMP	EBX,7
  1789 000011CE 0F 8F FFFFFE4A                  	JG	L299
  1790 000011D4 8B 55 C8                        	MOV	EDX,DWORD [-56+EBP]
  1791 000011D7 68 000000E0                     	PUSH	224
  1792 000011DC 68 00102600                     	PUSH	1058304
  1793 000011E1 8D 04 3A                        	LEA	EAX,DWORD [EDX+EDI*1]
  1794 000011E4 50                              	PUSH	EAX
  1795 000011E5 E8 [00000000]                   	CALL	_file_search
  1796 000011EA 83 C4 0C                        	ADD	ESP,12
  1797 000011ED 89 C2                           	MOV	EDX,EAX
  1798 000011EF 85 C0                           	TEST	EAX,EAX
  1799 000011F1 0F 84 FFFFFE27                  	JE	L299
  1800 000011F7 8D 43 01                        	LEA	EAX,DWORD [1+EBX]
  1801 000011FA 8B 4D CC                        	MOV	ECX,DWORD [-52+EBP]
  1802 000011FD 89 45 44                        	MOV	DWORD [68+EBP],EAX
  1803 00001200 8B 42 1C                        	MOV	EAX,DWORD [28+EDX]
  1804 00001203 89 46 04                        	MOV	DWORD [4+ESI],EAX
  1805 00001206 8D 46 04                        	LEA	EAX,DWORD [4+ESI]
  1806 00001209 C7 46 08 00000000               	MOV	DWORD [8+ESI],0
  1807 00001210 FF B1 000000C4                  	PUSH	DWORD [196+ECX]
  1808 00001216 50                              	PUSH	EAX
  1809 00001217 0F B7 42 1A                     	MOVZX	EAX,WORD [26+EDX]
  1810 0000121B 50                              	PUSH	EAX
  1811 0000121C E8 [00000000]                   	CALL	_file_loadfile2
  1812 00001221 89 06                           	MOV	DWORD [ESI],EAX
  1813 00001223 E9 FFFFFF72                     	JMP	L427
  1814 00001228                                 L452:
  1815 00001228 8B 55 24                        	MOV	EDX,DWORD [36+EBP]
  1816 0000122B 85 D2                           	TEST	EDX,EDX
  1817 0000122D 75 19                           	JNE	L364
  1818 0000122F 6A 61                           	PUSH	97
  1819 00001231 E8 [00000000]                   	CALL	_io_in8
  1820 00001236 89 C3                           	MOV	EBX,EAX
  1821 00001238 83 E3 0D                        	AND	EBX,13
  1822 0000123B 53                              	PUSH	EBX
  1823 0000123C 6A 61                           	PUSH	97
  1824 0000123E E8 [00000000]                   	CALL	_io_out8
  1825 00001243 E9 FFFFFF52                     	JMP	L427
  1826 00001248                                 L364:
  1827 00001248 B9 471E7B60                     	MOV	ECX,1193180000
  1828 0000124D 89 D6                           	MOV	ESI,EDX
  1829 0000124F 89 C8                           	MOV	EAX,ECX
  1830 00001251 68 000000B6                     	PUSH	182
  1831 00001256 99                              	CDQ
  1832 00001257 F7 FE                           	IDIV	ESI
  1833 00001259 6A 43                           	PUSH	67
  1834 0000125B 89 C3                           	MOV	EBX,EAX
  1835 0000125D E8 [00000000]                   	CALL	_io_out8
  1836 00001262 0F B6 C3                        	MOVZX	EAX,BL
  1837 00001265 C1 FB 08                        	SAR	EBX,8
  1838 00001268 50                              	PUSH	EAX
  1839 00001269 6A 42                           	PUSH	66
  1840 0000126B E8 [00000000]                   	CALL	_io_out8
  1841 00001270 53                              	PUSH	EBX
  1842 00001271 6A 42                           	PUSH	66
  1843 00001273 E8 [00000000]                   	CALL	_io_out8
  1844 00001278 6A 61                           	PUSH	97
  1845 0000127A E8 [00000000]                   	CALL	_io_in8
  1846 0000127F 89 C3                           	MOV	EBX,EAX
  1847 00001281 83 CB 03                        	OR	EBX,3
  1848 00001284 83 E3 0F                        	AND	EBX,15
  1849 00001287 53                              	PUSH	EBX
  1850 00001288 6A 61                           	PUSH	97
  1851 0000128A E8 [00000000]                   	CALL	_io_out8
  1852 0000128F 83 C4 24                        	ADD	ESP,36
  1853 00001292 E9 FFFFFD87                     	JMP	L299
  1854 00001297                                 L451:
  1855 00001297 57                              	PUSH	EDI
  1856 00001298 E8 [00000000]                   	CALL	_timer_free
  1857 0000129D                                 L428:
  1858 0000129D 58                              	POP	EAX
  1859 0000129E E9 FFFFFD7B                     	JMP	L299
  1860 000012A3                                 L450:
  1861 000012A3 FF 75 24                        	PUSH	DWORD [36+EBP]
  1862 000012A6 57                              	PUSH	EDI
  1863 000012A7 E8 [00000000]                   	CALL	_timer_settime
  1864 000012AC                                 L430:
  1865 000012AC 58                              	POP	EAX
  1866 000012AD 5A                              	POP	EDX
  1867 000012AE E9 FFFFFD6B                     	JMP	L299
  1868 000012B3                                 L449:
  1869 000012B3 8B 45 24                        	MOV	EAX,DWORD [36+EBP]
  1870 000012B6 05 00000100                     	ADD	EAX,256
  1871 000012BB 50                              	PUSH	EAX
  1872 000012BC 8B 45 CC                        	MOV	EAX,DWORD [-52+EBP]
  1873 000012BF 83 C0 10                        	ADD	EAX,16
  1874 000012C2 50                              	PUSH	EAX
  1875 000012C3 57                              	PUSH	EDI
  1876 000012C4 E8 [00000000]                   	CALL	_timer_init
  1877 000012C9 E9 FFFFFECC                     	JMP	L427
  1878 000012CE                                 L448:
  1879 000012CE E8 [00000000]                   	CALL	_timer_alloc
  1880 000012D3 89 45 44                        	MOV	DWORD [68+EBP],EAX
  1881 000012D6 C6 40 09 01                     	MOV	BYTE [9+EAX],1
  1882 000012DA E9 FFFFFD3F                     	JMP	L299
  1883 000012DF                                 L343:
  1884 000012DF E8 [00000000]                   	CALL	_io_cli
  1885 000012E4 8B 45 CC                        	MOV	EAX,DWORD [-52+EBP]
  1886 000012E7 83 C0 10                        	ADD	EAX,16
  1887 000012EA 50                              	PUSH	EAX
  1888 000012EB E8 [00000000]                   	CALL	_fifo32_status
  1889 000012F0 5F                              	POP	EDI
  1890 000012F1 85 C0                           	TEST	EAX,EAX
  1891 000012F3 75 13                           	JNE	L346
  1892 000012F5 83 7D 24 00                     	CMP	DWORD [36+EBP],0
  1893 000012F9 0F 84 000000A9                  	JE	L347
  1894 000012FF FF 75 CC                        	PUSH	DWORD [-52+EBP]
  1895 00001302 E8 [00000000]                   	CALL	_task_sleep
  1896 00001307 5B                              	POP	EBX
  1897 00001308                                 L346:
  1898 00001308 8B 7D CC                        	MOV	EDI,DWORD [-52+EBP]
  1899 0000130B 83 C7 10                        	ADD	EDI,16
  1900 0000130E 57                              	PUSH	EDI
  1901 0000130F E8 [00000000]                   	CALL	_fifo32_get
  1902 00001314 89 C3                           	MOV	EBX,EAX
  1903 00001316 E8 [00000000]                   	CALL	_io_sti
  1904 0000131B 59                              	POP	ECX
  1905 0000131C 83 FB 01                        	CMP	EBX,1
  1906 0000131F 7E 65                           	JLE	L464
  1907 00001321                                 L349:
  1908 00001321 83 FB 02                        	CMP	EBX,2
  1909 00001324 74 57                           	JE	L465
  1910 00001326                                 L350:
  1911 00001326 83 FB 03                        	CMP	EBX,3
  1912 00001329 74 49                           	JE	L466
  1913 0000132B                                 L351:
  1914 0000132B 83 FB 04                        	CMP	EBX,4
  1915 0000132E 74 14                           	JE	L467
  1916 00001330                                 L352:
  1917 00001330 8D 83 FFFFFF00                  	LEA	EAX,DWORD [-256+EBX]
  1918 00001336 81 FB 000000FF                  	CMP	EBX,255
  1919 0000133C 0F 8F FFFFFCF0                  	JG	L426
  1920 00001342 EB 9B                           	JMP	L343
  1921 00001344                                 L467:
  1922 00001344 FF 76 10                        	PUSH	DWORD [16+ESI]
  1923 00001347 E8 [00000000]                   	CALL	_timer_cancel
  1924 0000134C E8 [00000000]                   	CALL	_io_cli
  1925 00001351 8B 06                           	MOV	EAX,DWORD [ESI]
  1926 00001353 8B 40 24                        	MOV	EAX,DWORD [36+EAX]
  1927 00001356 05 000007E8                     	ADD	EAX,2024
  1928 0000135B 50                              	PUSH	EAX
  1929 0000135C FF 75 C0                        	PUSH	DWORD [-64+EBP]
  1930 0000135F E8 [00000000]                   	CALL	_fifo32_put
  1931 00001364 C7 06 00000000                  	MOV	DWORD [ESI],0
  1932 0000136A E8 [00000000]                   	CALL	_io_sti
  1933 0000136F 83 C4 0C                        	ADD	ESP,12
  1934 00001372 EB BC                           	JMP	L352
  1935 00001374                                 L466:
  1936 00001374 C7 46 0C FFFFFFFF               	MOV	DWORD [12+ESI],-1
  1937 0000137B EB AE                           	JMP	L351
  1938 0000137D                                 L465:
  1939 0000137D C7 46 0C 00FFFFFF               	MOV	DWORD [12+ESI],16777215
  1940 00001384 EB A0                           	JMP	L350
  1941 00001386                                 L464:
  1942 00001386 83 3E 00                        	CMP	DWORD [ESI],0
  1943 00001389 74 96                           	JE	L349
  1944 0000138B 6A 01                           	PUSH	1
  1945 0000138D 57                              	PUSH	EDI
  1946 0000138E FF 76 10                        	PUSH	DWORD [16+ESI]
  1947 00001391 E8 [00000000]                   	CALL	_timer_init
  1948 00001396 6A 32                           	PUSH	50
  1949 00001398 FF 76 10                        	PUSH	DWORD [16+ESI]
  1950 0000139B E8 [00000000]                   	CALL	_timer_settime
  1951 000013A0 83 C4 14                        	ADD	ESP,20
  1952 000013A3 E9 FFFFFF79                     	JMP	L349
  1953 000013A8                                 L347:
  1954 000013A8 E8 [00000000]                   	CALL	_io_sti
  1955 000013AD C7 45 44 FFFFFFFF               	MOV	DWORD [68+EBP],-1
  1956 000013B4 E9 FFFFFC65                     	JMP	L299
  1957 000013B9                                 L447:
  1958 000013B9 57                              	PUSH	EDI
  1959 000013BA E8 [00000000]                   	CALL	_sheet_free
  1960 000013BF E9 FFFFFED9                     	JMP	L428
  1961 000013C4                                 L446:
  1962 000013C4 FF 75 10                        	PUSH	DWORD [16+EBP]
  1963 000013C7 FF 75 08                        	PUSH	DWORD [8+EBP]
  1964 000013CA FF 75 0C                        	PUSH	DWORD [12+EBP]
  1965 000013CD FF 75 20                        	PUSH	DWORD [32+EBP]
  1966 000013D0 89 FE                           	MOV	ESI,EDI
  1967 000013D2 FF 75 24                        	PUSH	DWORD [36+EBP]
  1968 000013D5 83 E6 FE                        	AND	ESI,-2
  1969 000013D8 56                              	PUSH	ESI
  1970 000013D9 E8 000003A2                     	CALL	_hrb_api_linewin
  1971 000013DE 83 C4 18                        	ADD	ESP,24
  1972 000013E1 83 E7 01                        	AND	EDI,1
  1973 000013E4 0F 85 FFFFFC34                  	JNE	L299
  1974 000013EA 8B 45 24                        	MOV	EAX,DWORD [36+EBP]
  1975 000013ED 3B 45 0C                        	CMP	EAX,DWORD [12+EBP]
  1976 000013F0 7E 09                           	JLE	L336
  1977 000013F2 8B 55 0C                        	MOV	EDX,DWORD [12+EBP]
  1978 000013F5 89 45 0C                        	MOV	DWORD [12+EBP],EAX
  1979 000013F8 89 55 24                        	MOV	DWORD [36+EBP],EDX
  1980 000013FB                                 L336:
  1981 000013FB 8B 4D 08                        	MOV	ECX,DWORD [8+EBP]
  1982 000013FE 39 4D 20                        	CMP	DWORD [32+EBP],ECX
  1983 00001401 7E 09                           	JLE	L337
  1984 00001403 8B 5D 20                        	MOV	EBX,DWORD [32+EBP]
  1985 00001406 89 4D 20                        	MOV	DWORD [32+EBP],ECX
  1986 00001409 89 5D 08                        	MOV	DWORD [8+EBP],EBX
  1987 0000140C                                 L337:
  1988 0000140C A1 00000FE4                     	MOV	EAX,DWORD [4068]
  1989 00001411 39 46 28                        	CMP	DWORD [40+ESI],EAX
  1990 00001414 0F 85 FFFFFC04                  	JNE	L299
  1991 0000141A 8B 45 08                        	MOV	EAX,DWORD [8+EBP]
  1992 0000141D 40                              	INC	EAX
  1993 0000141E 50                              	PUSH	EAX
  1994 0000141F 8B 45 0C                        	MOV	EAX,DWORD [12+EBP]
  1995 00001422 40                              	INC	EAX
  1996 00001423 50                              	PUSH	EAX
  1997 00001424 FF 75 20                        	PUSH	DWORD [32+EBP]
  1998 00001427 FF 75 24                        	PUSH	DWORD [36+EBP]
  1999 0000142A                                 L432:
  2000 0000142A 56                              	PUSH	ESI
  2001 0000142B                                 L429:
  2002 0000142B E8 [00000000]                   	CALL	_sheet_refresh
  2003 00001430                                 L431:
  2004 00001430 83 C4 14                        	ADD	ESP,20
  2005 00001433 E9 FFFFFBE6                     	JMP	L299
  2006 00001438                                 L445:
  2007 00001438 A1 00000FE4                     	MOV	EAX,DWORD [4068]
  2008 0000143D 39 47 28                        	CMP	DWORD [40+EDI],EAX
  2009 00001440 0F 85 FFFFFBD8                  	JNE	L299
  2010 00001446 FF 75 08                        	PUSH	DWORD [8+EBP]
  2011 00001449 FF 75 0C                        	PUSH	DWORD [12+EBP]
  2012 0000144C FF 75 20                        	PUSH	DWORD [32+EBP]
  2013 0000144F FF 75 24                        	PUSH	DWORD [36+EBP]
  2014 00001452 57                              	PUSH	EDI
  2015 00001453 EB D6                           	JMP	L429
  2016 00001455                                 L444:
  2017 00001455 89 FE                           	MOV	ESI,EDI
  2018 00001457 8B 45 08                        	MOV	EAX,DWORD [8+EBP]
  2019 0000145A 83 E6 FE                        	AND	ESI,-2
  2020 0000145D 8B 55 24                        	MOV	EDX,DWORD [36+EBP]
  2021 00001460 0F AF 46 08                     	IMUL	EAX,DWORD [8+ESI]
  2022 00001464 03 45 0C                        	ADD	EAX,DWORD [12+EBP]
  2023 00001467 8B 0E                           	MOV	ECX,DWORD [ESI]
  2024 00001469 83 E7 01                        	AND	EDI,1
  2025 0000146C 89 14 81                        	MOV	DWORD [ECX+EAX*4],EDX
  2026 0000146F 0F 85 FFFFFBA9                  	JNE	L299
  2027 00001475 A1 00000FE4                     	MOV	EAX,DWORD [4068]
  2028 0000147A 39 46 28                        	CMP	DWORD [40+ESI],EAX
  2029 0000147D 0F 85 FFFFFB9B                  	JNE	L299
  2030 00001483 8B 45 08                        	MOV	EAX,DWORD [8+EBP]
  2031 00001486 40                              	INC	EAX
  2032 00001487 50                              	PUSH	EAX
  2033 00001488 8B 45 0C                        	MOV	EAX,DWORD [12+EBP]
  2034 0000148B 40                              	INC	EAX
  2035 0000148C 50                              	PUSH	EAX
  2036 0000148D FF 75 08                        	PUSH	DWORD [8+EBP]
  2037 00001490 FF 75 0C                        	PUSH	DWORD [12+EBP]
  2038 00001493 EB 95                           	JMP	L432
  2039 00001495                                 L443:
  2040 00001495 8B 45 20                        	MOV	EAX,DWORD [32+EBP]
  2041 00001498 8B 4D C8                        	MOV	ECX,DWORD [-56+EBP]
  2042 0000149B 83 C0 0F                        	ADD	EAX,15
  2043 0000149E 83 E0 F0                        	AND	EAX,-16
  2044 000014A1 50                              	PUSH	EAX
  2045 000014A2 8D 04 39                        	LEA	EAX,DWORD [ECX+EDI*1]
  2046 000014A5 FF 75 24                        	PUSH	DWORD [36+EBP]
  2047 000014A8 50                              	PUSH	EAX
  2048 000014A9 E8 [00000000]                   	CALL	_memman_free
  2049 000014AE E9 FFFFFCE7                     	JMP	L427
  2050 000014B3                                 L442:
  2051 000014B3 8B 45 20                        	MOV	EAX,DWORD [32+EBP]
  2052 000014B6 8B 55 C8                        	MOV	EDX,DWORD [-56+EBP]
  2053 000014B9 83 C0 0F                        	ADD	EAX,15
  2054 000014BC 83 E0 F0                        	AND	EAX,-16
  2055 000014BF 50                              	PUSH	EAX
  2056 000014C0 8D 04 3A                        	LEA	EAX,DWORD [EDX+EDI*1]
  2057 000014C3 50                              	PUSH	EAX
  2058 000014C4 E8 [00000000]                   	CALL	_memman_alloc
  2059 000014C9 89 45 44                        	MOV	DWORD [68+EBP],EAX
  2060 000014CC E9 FFFFFDDB                     	JMP	L430
  2061 000014D1                                 L441:
  2062 000014D1 8B 75 C8                        	MOV	ESI,DWORD [-56+EBP]
  2063 000014D4 8D 1C 3E                        	LEA	EBX,DWORD [ESI+EDI*1]
  2064 000014D7 53                              	PUSH	EBX
  2065 000014D8 E8 [00000000]                   	CALL	_memman_init
  2066 000014DD 83 65 20 F0                     	AND	DWORD [32+EBP],-16
  2067 000014E1 FF 75 20                        	PUSH	DWORD [32+EBP]
  2068 000014E4 FF 75 24                        	PUSH	DWORD [36+EBP]
  2069 000014E7 53                              	PUSH	EBX
  2070 000014E8 E8 [00000000]                   	CALL	_memman_free
  2071 000014ED 83 C4 10                        	ADD	ESP,16
  2072 000014F0 E9 FFFFFB29                     	JMP	L299
  2073 000014F5                                 L440:
  2074 000014F5 FF 75 08                        	PUSH	DWORD [8+EBP]
  2075 000014F8 FF 75 0C                        	PUSH	DWORD [12+EBP]
  2076 000014FB FF 75 20                        	PUSH	DWORD [32+EBP]
  2077 000014FE 89 FE                           	MOV	ESI,EDI
  2078 00001500 FF 75 24                        	PUSH	DWORD [36+EBP]
  2079 00001503 83 E6 FE                        	AND	ESI,-2
  2080 00001506 FF 75 10                        	PUSH	DWORD [16+EBP]
  2081 00001509 FF 76 08                        	PUSH	DWORD [8+ESI]
  2082 0000150C FF 36                           	PUSH	DWORD [ESI]
  2083 0000150E E8 [00000000]                   	CALL	_boxfill32
  2084 00001513 83 C4 1C                        	ADD	ESP,28
  2085 00001516 83 E7 01                        	AND	EDI,1
  2086 00001519 0F 85 FFFFFAFF                  	JNE	L299
  2087 0000151F E9 FFFFFEE8                     	JMP	L337
  2088 00001524                                 L439:
  2089 00001524 8B 45 10                        	MOV	EAX,DWORD [16+EBP]
  2090 00001527 89 FE                           	MOV	ESI,EDI
  2091 00001529 03 45 C8                        	ADD	EAX,DWORD [-56+EBP]
  2092 0000152C 83 E6 FE                        	AND	ESI,-2
  2093 0000152F 50                              	PUSH	EAX
  2094 00001530 FF 75 24                        	PUSH	DWORD [36+EBP]
  2095 00001533 FF 75 08                        	PUSH	DWORD [8+EBP]
  2096 00001536 FF 75 0C                        	PUSH	DWORD [12+EBP]
  2097 00001539 FF 76 08                        	PUSH	DWORD [8+ESI]
  2098 0000153C FF 36                           	PUSH	DWORD [ESI]
  2099 0000153E E8 [00000000]                   	CALL	_putfonts32_asc
  2100 00001543 83 C4 18                        	ADD	ESP,24
  2101 00001546 83 E7 01                        	AND	EDI,1
  2102 00001549 0F 85 FFFFFACF                  	JNE	L299
  2103 0000154F A1 00000FE4                     	MOV	EAX,DWORD [4068]
  2104 00001554 39 46 28                        	CMP	DWORD [40+ESI],EAX
  2105 00001557 0F 85 FFFFFAC1                  	JNE	L299
  2106 0000155D 8B 4D 0C                        	MOV	ECX,DWORD [12+EBP]
  2107 00001560 8B 45 08                        	MOV	EAX,DWORD [8+EBP]
  2108 00001563 8B 55 20                        	MOV	EDX,DWORD [32+EBP]
  2109 00001566 83 C0 10                        	ADD	EAX,16
  2110 00001569 50                              	PUSH	EAX
  2111 0000156A 8D 04 D1                        	LEA	EAX,DWORD [ECX+EDX*8]
  2112 0000156D 50                              	PUSH	EAX
  2113 0000156E FF 75 08                        	PUSH	DWORD [8+EBP]
  2114 00001571 51                              	PUSH	ECX
  2115 00001572 E9 FFFFFEB3                     	JMP	L432
  2116 00001577                                 L438:
  2117 00001577 8B 5D 0C                        	MOV	EBX,DWORD [12+EBP]
  2118 0000157A 8B 75 C8                        	MOV	ESI,DWORD [-56+EBP]
  2119 0000157D 0F AF 5D 08                     	IMUL	EBX,DWORD [8+EBP]
  2120 00001581 01 FE                           	ADD	ESI,EDI
  2121 00001583 8D 04 9D 00001FFF               	LEA	EAX,DWORD [8191+EBX*4]
  2122 0000158A 89 75 B8                        	MOV	DWORD [-72+EBP],ESI
  2123 0000158D 50                              	PUSH	EAX
  2124 0000158E 31 F6                           	XOR	ESI,ESI
  2125 00001590 68 003C0000                     	PUSH	3932160
  2126 00001595 E8 [00000000]                   	CALL	_memman_alloc_4k
  2127 0000159A 89 45 B4                        	MOV	DWORD [-76+EBP],EAX
  2128 0000159D 58                              	POP	EAX
  2129 0000159E 8B 45 B8                        	MOV	EAX,DWORD [-72+EBP]
  2130 000015A1 5A                              	POP	EDX
  2131 000015A2 25 00000FFF                     	AND	EAX,4095
  2132 000015A7 89 45 AC                        	MOV	DWORD [-84+EBP],EAX
  2133 000015AA 8D 9C 18 00000FFF               	LEA	EBX,DWORD [4095+EAX+EBX*1]
  2134 000015B1 C1 FB 0C                        	SAR	EBX,12
  2135 000015B4 39 DE                           	CMP	ESI,EBX
  2136 000015B6 7D 46                           	JGE	L420
  2137 000015B8 31 C9                           	XOR	ECX,ECX
  2138 000015BA                                 L311:
  2139 000015BA 8B 55 B8                        	MOV	EDX,DWORD [-72+EBP]
  2140 000015BD 8B 45 B4                        	MOV	EAX,DWORD [-76+EBP]
  2141 000015C0 01 CA                           	ADD	EDX,ECX
  2142 000015C2 01 C8                           	ADD	EAX,ECX
  2143 000015C4 C1 FA 0A                        	SAR	EDX,10
  2144 000015C7 46                              	INC	ESI
  2145 000015C8 C1 F8 0A                        	SAR	EAX,10
  2146 000015CB 83 E2 FC                        	AND	EDX,-4
  2147 000015CE 81 CA FFC00000                  	OR	EDX,-4194304
  2148 000015D4 83 E0 FC                        	AND	EAX,-4
  2149 000015D7 0D FFC00000                     	OR	EAX,-4194304
  2150 000015DC 81 C1 00001000                  	ADD	ECX,4096
  2151 000015E2 8B 12                           	MOV	EDX,DWORD [EDX]
  2152 000015E4 89 10                           	MOV	DWORD [EAX],EDX
  2153 000015E6 8B 55 AC                        	MOV	EDX,DWORD [-84+EBP]
  2154 000015E9 8B 45 0C                        	MOV	EAX,DWORD [12+EBP]
  2155 000015EC 0F AF 45 08                     	IMUL	EAX,DWORD [8+EBP]
  2156 000015F0 8D 84 02 00000FFF               	LEA	EAX,DWORD [4095+EDX+EAX*1]
  2157 000015F7 C1 F8 0C                        	SAR	EAX,12
  2158 000015FA 39 C6                           	CMP	ESI,EAX
  2159 000015FC 7C BC                           	JL	L311
  2160 000015FE                                 L420:
  2161 000015FE FF 75 C4                        	PUSH	DWORD [-60+EBP]
  2162 00001601 BB 00000002                     	MOV	EBX,2
  2163 00001606 E8 [00000000]                   	CALL	_sheet_alloc
  2164 0000160B 81 65 B8 00000FFF               	AND	DWORD [-72+EBP],4095
  2165 00001612 8B 4D CC                        	MOV	ECX,DWORD [-52+EBP]
  2166 00001615 89 C6                           	MOV	ESI,EAX
  2167 00001617 89 48 30                        	MOV	DWORD [48+EAX],ECX
  2168 0000161A 83 48 20 10                     	OR	DWORD [32+EAX],16
  2169 0000161E FF 75 24                        	PUSH	DWORD [36+EBP]
  2170 00001621 8B 45 B4                        	MOV	EAX,DWORD [-76+EBP]
  2171 00001624 FF 75 08                        	PUSH	DWORD [8+EBP]
  2172 00001627 03 45 B8                        	ADD	EAX,DWORD [-72+EBP]
  2173 0000162A FF 75 0C                        	PUSH	DWORD [12+EBP]
  2174 0000162D 50                              	PUSH	EAX
  2175 0000162E 56                              	PUSH	ESI
  2176 0000162F E8 [00000000]                   	CALL	_sheet_setbuf
  2177 00001634 8B 55 C8                        	MOV	EDX,DWORD [-56+EBP]
  2178 00001637 8B 45 20                        	MOV	EAX,DWORD [32+EBP]
  2179 0000163A 6A 00                           	PUSH	0
  2180 0000163C 03 45 C8                        	ADD	EAX,DWORD [-56+EBP]
  2181 0000163F 50                              	PUSH	EAX
  2182 00001640 8D 04 3A                        	LEA	EAX,DWORD [EDX+EDI*1]
  2183 00001643 FF 75 08                        	PUSH	DWORD [8+EBP]
  2184 00001646 FF 75 0C                        	PUSH	DWORD [12+EBP]
  2185 00001649 50                              	PUSH	EAX
  2186 0000164A E8 [00000000]                   	CALL	_make_window8
  2187 0000164F 8B 4D C4                        	MOV	ECX,DWORD [-60+EBP]
  2188 00001652 83 C4 2C                        	ADD	ESP,44
  2189 00001655 8B 81 00000410                  	MOV	EAX,DWORD [1040+ECX]
  2190 0000165B 2B 45 08                        	SUB	EAX,DWORD [8+EBP]
  2191 0000165E 99                              	CDQ
  2192 0000165F F7 FB                           	IDIV	EBX
  2193 00001661 50                              	PUSH	EAX
  2194 00001662 8B 81 0000040C                  	MOV	EAX,DWORD [1036+ECX]
  2195 00001668 2B 45 0C                        	SUB	EAX,DWORD [12+EBP]
  2196 0000166B 99                              	CDQ
  2197 0000166C F7 FB                           	IDIV	EBX
  2198 0000166E 83 E0 FC                        	AND	EAX,-4
  2199 00001671 50                              	PUSH	EAX
  2200 00001672 56                              	PUSH	ESI
  2201 00001673 E8 [00000000]                   	CALL	_sheet_slide
  2202 00001678 8B 4D C4                        	MOV	ECX,DWORD [-60+EBP]
  2203 0000167B FF B1 00000414                  	PUSH	DWORD [1044+ECX]
  2204 00001681 56                              	PUSH	ESI
  2205 00001682 E8 [00000000]                   	CALL	_sheet_updown
  2206 00001687 89 75 44                        	MOV	DWORD [68+EBP],ESI
  2207 0000168A E9 FFFFFDA1                     	JMP	L431
  2208 0000168F                                 L437:
  2209 0000168F 8B 45 CC                        	MOV	EAX,DWORD [-52+EBP]
  2210 00001692 83 C0 30                        	ADD	EAX,48
  2211 00001695 E9 FFFFF986                     	JMP	L297
  2212 0000169A                                 L436:
  2213 0000169A 8B 4D C8                        	MOV	ECX,DWORD [-56+EBP]
  2214 0000169D FF 75 20                        	PUSH	DWORD [32+EBP]
  2215 000016A0 8D 04 39                        	LEA	EAX,DWORD [ECX+EDI*1]
  2216 000016A3 50                              	PUSH	EAX
  2217 000016A4 56                              	PUSH	ESI
  2218 000016A5 E8 FFFFEE81                     	CALL	_cons_putstr1
  2219 000016AA E9 FFFFFAEB                     	JMP	L427
  2220 000016AF                                 L435:
  2221 000016AF 8B 55 C8                        	MOV	EDX,DWORD [-56+EBP]
  2222 000016B2 8D 04 3A                        	LEA	EAX,DWORD [EDX+EDI*1]
  2223 000016B5 50                              	PUSH	EAX
  2224 000016B6 56                              	PUSH	ESI
  2225 000016B7 E8 FFFFEE41                     	CALL	_cons_putstr0
  2226 000016BC E9 FFFFFBEB                     	JMP	L430
  2227 000016C1                                 L434:
  2228 000016C1 6A 01                           	PUSH	1
  2229 000016C3 0F B6 45 24                     	MOVZX	EAX,BYTE [36+EBP]
  2230 000016C7 50                              	PUSH	EAX
  2231 000016C8 56                              	PUSH	ESI
  2232 000016C9 E8 FFFFEC7D                     	CALL	_cons_putchar
  2233 000016CE E9 FFFFFAC7                     	JMP	L427
  2234                                          [SECTION .data]
  2235 000000E6                                 LC21:
  2236 000000E6 0A 49 4E 54 20 30 43 20 3A 0A   	DB	0x0A,"INT 0C :",0x0A," Stack Exception.",0x0A,0x00
       000000F0 20 53 74 61 63 6B 20 45 78 63 
       000000FA 65 70 74 69 6F 6E 2E 0A 00 
  2237 00000103                                 LC22:
  2238 00000103 45 49 50 20 3D 20 25 30 38 58   	DB	"EIP = %08X",0x0A,0x00
       0000010D 0A 00 
  2239                                          [SECTION .text]
  2240 000016D3                                 	GLOBAL	_inthandler0c
  2241 000016D3                                 _inthandler0c:
  2242 000016D3 55                              	PUSH	EBP
  2243 000016D4 89 E5                           	MOV	EBP,ESP
  2244 000016D6 57                              	PUSH	EDI
  2245 000016D7 56                              	PUSH	ESI
  2246 000016D8 53                              	PUSH	EBX
  2247 000016D9 8D 5D D4                        	LEA	EBX,DWORD [-44+EBP]
  2248 000016DC 83 EC 20                        	SUB	ESP,32
  2249 000016DF E8 [00000000]                   	CALL	_task_now
  2250 000016E4 89 C6                           	MOV	ESI,EAX
  2251 000016E6 8B B8 000000B4                  	MOV	EDI,DWORD [180+EAX]
  2252 000016EC 83 C6 30                        	ADD	ESI,48
  2253 000016EF 68 [000000E6]                   	PUSH	LC21
  2254 000016F4 57                              	PUSH	EDI
  2255 000016F5 E8 FFFFEE03                     	CALL	_cons_putstr0
  2256 000016FA 8B 45 08                        	MOV	EAX,DWORD [8+EBP]
  2257 000016FD FF 70 2C                        	PUSH	DWORD [44+EAX]
  2258 00001700 68 [00000103]                   	PUSH	LC22
  2259 00001705 53                              	PUSH	EBX
  2260 00001706 E8 [00000000]                   	CALL	_sprintf
  2261 0000170B 53                              	PUSH	EBX
  2262 0000170C 57                              	PUSH	EDI
  2263 0000170D E8 FFFFEDEB                     	CALL	_cons_putstr0
  2264 00001712 8D 65 F4                        	LEA	ESP,DWORD [-12+EBP]
  2265 00001715 5B                              	POP	EBX
  2266 00001716 89 F0                           	MOV	EAX,ESI
  2267 00001718 5E                              	POP	ESI
  2268 00001719 5F                              	POP	EDI
  2269 0000171A 5D                              	POP	EBP
  2270 0000171B C3                              	RET
  2271                                          [SECTION .data]
  2272 0000010F                                 LC23:
  2273 0000010F 0A 49 4E 54 20 30 44 20 3A 0A   	DB	0x0A,"INT 0D :",0x0A," General Protected Exception.",0x0A,0x00
       00000119 20 47 65 6E 65 72 61 6C 20 50 
       00000123 72 6F 74 65 63 74 65 64 20 45 
       0000012D 78 63 65 70 74 69 6F 6E 2E 0A 
       00000137 00 
  2274 00000138                                 LC24:
  2275 00000138 45 52 52 4F 52 20 43 4F 44 45   	DB	"ERROR CODE =%08X",0x0A,0x00
       00000142 20 3D 25 30 38 58 0A 00 
  2276                                          [SECTION .text]
  2277 0000171C                                 	GLOBAL	_inthandler0d
  2278 0000171C                                 _inthandler0d:
  2279 0000171C 55                              	PUSH	EBP
  2280 0000171D 89 E5                           	MOV	EBP,ESP
  2281 0000171F 57                              	PUSH	EDI
  2282 00001720 56                              	PUSH	ESI
  2283 00001721 53                              	PUSH	EBX
  2284 00001722 8D 5D D4                        	LEA	EBX,DWORD [-44+EBP]
  2285 00001725 83 EC 20                        	SUB	ESP,32
  2286 00001728 E8 [00000000]                   	CALL	_task_now
  2287 0000172D 89 C6                           	MOV	ESI,EAX
  2288 0000172F 8B B8 000000B4                  	MOV	EDI,DWORD [180+EAX]
  2289 00001735 83 C6 30                        	ADD	ESI,48
  2290 00001738 68 [0000010F]                   	PUSH	LC23
  2291 0000173D 57                              	PUSH	EDI
  2292 0000173E E8 FFFFEDBA                     	CALL	_cons_putstr0
  2293 00001743 8B 45 08                        	MOV	EAX,DWORD [8+EBP]
  2294 00001746 FF 70 2C                        	PUSH	DWORD [44+EAX]
  2295 00001749 68 [00000103]                   	PUSH	LC22
  2296 0000174E 53                              	PUSH	EBX
  2297 0000174F E8 [00000000]                   	CALL	_sprintf
  2298 00001754 53                              	PUSH	EBX
  2299 00001755 57                              	PUSH	EDI
  2300 00001756 E8 FFFFEDA2                     	CALL	_cons_putstr0
  2301 0000175B 8B 45 08                        	MOV	EAX,DWORD [8+EBP]
  2302 0000175E FF 70 28                        	PUSH	DWORD [40+EAX]
  2303 00001761 68 [00000138]                   	PUSH	LC24
  2304 00001766 53                              	PUSH	EBX
  2305 00001767 E8 [00000000]                   	CALL	_sprintf
  2306 0000176C 83 C4 28                        	ADD	ESP,40
  2307 0000176F 53                              	PUSH	EBX
  2308 00001770 57                              	PUSH	EDI
  2309 00001771 E8 FFFFED87                     	CALL	_cons_putstr0
  2310 00001776 8D 65 F4                        	LEA	ESP,DWORD [-12+EBP]
  2311 00001779 5B                              	POP	EBX
  2312 0000177A 89 F0                           	MOV	EAX,ESI
  2313 0000177C 5E                              	POP	ESI
  2314 0000177D 5F                              	POP	EDI
  2315 0000177E 5D                              	POP	EBP
  2316 0000177F C3                              	RET
  2317 00001780                                 	GLOBAL	_hrb_api_linewin
  2318 00001780                                 _hrb_api_linewin:
  2319 00001780 55                              	PUSH	EBP
  2320 00001781 89 E5                           	MOV	EBP,ESP
  2321 00001783 57                              	PUSH	EDI
  2322 00001784 56                              	PUSH	ESI
  2323 00001785 53                              	PUSH	EBX
  2324 00001786 56                              	PUSH	ESI
  2325 00001787 56                              	PUSH	ESI
  2326 00001788 8B 7D 0C                        	MOV	EDI,DWORD [12+EBP]
  2327 0000178B 8B 45 14                        	MOV	EAX,DWORD [20+EBP]
  2328 0000178E 89 F9                           	MOV	ECX,EDI
  2329 00001790 8B 55 18                        	MOV	EDX,DWORD [24+EBP]
  2330 00001793 C1 E1 0A                        	SAL	ECX,10
  2331 00001796 89 D6                           	MOV	ESI,EDX
  2332 00001798 89 4D F0                        	MOV	DWORD [-16+EBP],ECX
  2333 0000179B 89 C3                           	MOV	EBX,EAX
  2334 0000179D 8B 4D 10                        	MOV	ECX,DWORD [16+EBP]
  2335 000017A0 2B 75 10                        	SUB	ESI,DWORD [16+EBP]
  2336 000017A3 C1 E1 0A                        	SAL	ECX,10
  2337 000017A6 29 FB                           	SUB	EBX,EDI
  2338 000017A8 89 4D EC                        	MOV	DWORD [-20+EBP],ECX
  2339 000017AB 0F 88 0000009F                  	JS	L492
  2340 000017B1                                 L471:
  2341 000017B1 85 F6                           	TEST	ESI,ESI
  2342 000017B3 0F 88 00000090                  	JS	L493
  2343 000017B9                                 L472:
  2344 000017B9 39 F3                           	CMP	EBX,ESI
  2345 000017BB 7C 5E                           	JL	L473
  2346 000017BD 8D 4B 01                        	LEA	ECX,DWORD [1+EBX]
  2347 000017C0 39 C7                           	CMP	EDI,EAX
  2348 000017C2 BB FFFFFC00                     	MOV	EBX,-1024
  2349 000017C7 7F 05                           	JG	L475
  2350 000017C9 BB 00000400                     	MOV	EBX,1024
  2351 000017CE                                 L475:
  2352 000017CE 39 55 10                        	CMP	DWORD [16+EBP],EDX
  2353 000017D1 7F 42                           	JG	L476
  2354 000017D3 2B 55 10                        	SUB	EDX,DWORD [16+EBP]
  2355 000017D6 42                              	INC	EDX
  2356 000017D7                                 L491:
  2357 000017D7 C1 E2 0A                        	SAL	EDX,10
  2358 000017DA 89 D0                           	MOV	EAX,EDX
  2359 000017DC 99                              	CDQ
  2360 000017DD F7 F9                           	IDIV	ECX
  2361 000017DF 89 C6                           	MOV	ESI,EAX
  2362 000017E1                                 L478:
  2363 000017E1 85 C9                           	TEST	ECX,ECX
  2364 000017E3 7E 29                           	JLE	L489
  2365 000017E5                                 L487:
  2366 000017E5 8B 45 EC                        	MOV	EAX,DWORD [-20+EBP]
  2367 000017E8 8B 55 08                        	MOV	EDX,DWORD [8+EBP]
  2368 000017EB C1 F8 0A                        	SAR	EAX,10
  2369 000017EE 8B 7D 08                        	MOV	EDI,DWORD [8+EBP]
  2370 000017F1 0F AF 42 08                     	IMUL	EAX,DWORD [8+EDX]
  2371 000017F5 8B 55 F0                        	MOV	EDX,DWORD [-16+EBP]
  2372 000017F8 C1 FA 0A                        	SAR	EDX,10
  2373 000017FB 01 D0                           	ADD	EAX,EDX
  2374 000017FD 8B 17                           	MOV	EDX,DWORD [EDI]
  2375 000017FF 8B 7D 1C                        	MOV	EDI,DWORD [28+EBP]
  2376 00001802 01 5D F0                        	ADD	DWORD [-16+EBP],EBX
  2377 00001805 01 75 EC                        	ADD	DWORD [-20+EBP],ESI
  2378 00001808 49                              	DEC	ECX
  2379 00001809 89 3C 82                        	MOV	DWORD [EDX+EAX*4],EDI
  2380 0000180C 75 D7                           	JNE	L487
  2381 0000180E                                 L489:
  2382 0000180E 59                              	POP	ECX
  2383 0000180F 5B                              	POP	EBX
  2384 00001810 5B                              	POP	EBX
  2385 00001811 5E                              	POP	ESI
  2386 00001812 5F                              	POP	EDI
  2387 00001813 5D                              	POP	EBP
  2388 00001814 C3                              	RET
  2389 00001815                                 L476:
  2390 00001815 2B 55 10                        	SUB	EDX,DWORD [16+EBP]
  2391 00001818 4A                              	DEC	EDX
  2392 00001819 EB BC                           	JMP	L491
  2393 0000181B                                 L473:
  2394 0000181B 8D 4E 01                        	LEA	ECX,DWORD [1+ESI]
  2395 0000181E 39 55 10                        	CMP	DWORD [16+EBP],EDX
  2396 00001821 BE FFFFFC00                     	MOV	ESI,-1024
  2397 00001826 7F 05                           	JG	L480
  2398 00001828 BE 00000400                     	MOV	ESI,1024
  2399 0000182D                                 L480:
  2400 0000182D 39 C7                           	CMP	EDI,EAX
  2401 0000182F 7F 11                           	JG	L481
  2402 00001831 29 F8                           	SUB	EAX,EDI
  2403 00001833 8D 50 01                        	LEA	EDX,DWORD [1+EAX]
  2404 00001836                                 L490:
  2405 00001836 C1 E2 0A                        	SAL	EDX,10
  2406 00001839 89 D0                           	MOV	EAX,EDX
  2407 0000183B 99                              	CDQ
  2408 0000183C F7 F9                           	IDIV	ECX
  2409 0000183E 89 C3                           	MOV	EBX,EAX
  2410 00001840 EB 9F                           	JMP	L478
  2411 00001842                                 L481:
  2412 00001842 29 F8                           	SUB	EAX,EDI
  2413 00001844 8D 50 FF                        	LEA	EDX,DWORD [-1+EAX]
  2414 00001847 EB ED                           	JMP	L490
  2415 00001849                                 L493:
  2416 00001849 F7 DE                           	NEG	ESI
  2417 0000184B E9 FFFFFF69                     	JMP	L472
  2418 00001850                                 L492:
  2419 00001850 F7 DB                           	NEG	EBX
  2420 00001852 E9 FFFFFF5A                     	JMP	L471
  2421 00001857                                 	GLOBAL	_cons_set_system_task
  2422 00001857                                 _cons_set_system_task:
  2423 00001857 55                              	PUSH	EBP
  2424 00001858 89 E5                           	MOV	EBP,ESP
  2425 0000185A 8B 45 08                        	MOV	EAX,DWORD [8+EBP]
  2426 0000185D 5D                              	POP	EBP
  2427 0000185E A3 [00000000]                   	MOV	DWORD [_system_task],EAX
  2428 00001863 C3                              	RET
