     1 00000000                                 [FORMAT "WCOFF"]
     2 00000000                                 [INSTRSET "i486p"]
     3 00000000                                 [OPTIMIZE 1]
     4 00000000                                 [OPTION 1]
     5 00000000                                 [BITS 32]
     6 00000000                                 	EXTERN	_task_alloc
     7 00000000                                 	EXTERN	_task_now
     8 00000000                                 	EXTERN	_memman_alloc_4k
     9 00000000                                 	EXTERN	_memmam_link_page_32_m
    10 00000000                                 	EXTERN	_pageman_link_page_32_m
    11 00000000                                 	EXTERN	_get_this
    12 00000000                                 	EXTERN	_task_run
    13 00000000                                 	EXTERN	_fifo32_init
    14 00000000                                 	EXTERN	_io_cli
    15 00000000                                 	EXTERN	_fifo32_status
    16 00000000                                 	EXTERN	_fifo32_get
    17 00000000                                 	EXTERN	_io_sti
    18 00000000                                 	EXTERN	_task_sleep
    19 00000000                                 	EXTERN	_io_out8
    20 00000000                                 	EXTERN	_io_in8
    21 00000000                                 	EXTERN	_io_in16
    22 00000000                                 	EXTERN	_io_out16
    23 00000000                                 [FILE "dmg.c"]
    24 00000000                                 	GLOBAL	_disk_running
    25                                          [SECTION .data]
    26 00000000                                 	ALIGNB	4
    27 00000000                                 _disk_running:
    28 00000000 00000000                        	DD	0
    29                                          [SECTION .text]
    30 00000000                                 	GLOBAL	_dmg_init
    31 00000000                                 _dmg_init:
    32 00000000 55                              	PUSH	EBP
    33 00000001 89 E5                           	MOV	EBP,ESP
    34 00000003 5D                              	POP	EBP
    35 00000004 C7 05 [00000004] 00000000       	MOV	DWORD [_lock],0
    36 0000000E C3                              	RET
    37 0000000F                                 	GLOBAL	_start_task_disk
    38 0000000F                                 _start_task_disk:
    39 0000000F 55                              	PUSH	EBP
    40 00000010 89 E5                           	MOV	EBP,ESP
    41 00000012 57                              	PUSH	EDI
    42 00000013 56                              	PUSH	ESI
    43 00000014 53                              	PUSH	EBX
    44 00000015 83 3D [00000000] 00             	CMP	DWORD [_disk_running],0
    45 0000001C 74 0D                           	JE	L3
    46 0000001E A1 [00000008]                   	MOV	EAX,DWORD [_task_disk_p]
    47 00000023                                 L2:
    48 00000023 8D 65 F4                        	LEA	ESP,DWORD [-12+EBP]
    49 00000026 5B                              	POP	EBX
    50 00000027 5E                              	POP	ESI
    51 00000028 5F                              	POP	EDI
    52 00000029 5D                              	POP	EBP
    53 0000002A C3                              	RET
    54 0000002B                                 L3:
    55 0000002B 8B 35 0026F000                  	MOV	ESI,DWORD [2551808]
    56 00000031 E8 [00000000]                   	CALL	_task_alloc
    57 00000036 89 C3                           	MOV	EBX,EAX
    58 00000038 E8 [00000000]                   	CALL	_task_now
    59 0000003D 68 00000200                     	PUSH	512
    60 00000042 68 003C0000                     	PUSH	3932160
    61 00000047 E8 [00000000]                   	CALL	_memman_alloc_4k
    62 0000004C 6A 00                           	PUSH	0
    63 0000004E 6A 01                           	PUSH	1
    64 00000050 89 C7                           	MOV	EDI,EAX
    65 00000052 6A 07                           	PUSH	7
    66 00000054 50                              	PUSH	EAX
    67 00000055 68 00268000                     	PUSH	2523136
    68 0000005A 56                              	PUSH	ESI
    69 0000005B E8 [00000000]                   	CALL	_memmam_link_page_32_m
    70 00000060 83 C4 20                        	ADD	ESP,32
    71 00000063 68 00010000                     	PUSH	65536
    72 00000068 68 003C0000                     	PUSH	3932160
    73 0000006D E8 [00000000]                   	CALL	_memman_alloc_4k
    74 00000072 89 83 000000EC                  	MOV	DWORD [236+EBX],EAX
    75 00000078 6A 00                           	PUSH	0
    76 0000007A 6A 10                           	PUSH	16
    77 0000007C 6A 07                           	PUSH	7
    78 0000007E FF B3 000000EC                  	PUSH	DWORD [236+EBX]
    79 00000084 56                              	PUSH	ESI
    80 00000085 E8 [00000000]                   	CALL	_pageman_link_page_32_m
    81 0000008A 8B 83 000000EC                  	MOV	EAX,DWORD [236+EBX]
    82 00000090 05 0000FFF4                     	ADD	EAX,65524
    83 00000095 89 83 00000094                  	MOV	DWORD [148+EBX],EAX
    84 0000009B E8 [00000000]                   	CALL	_get_this
    85 000000A0 05 [00000133]                   	ADD	EAX,_task_disk
    86 000000A5 89 43 7C                        	MOV	DWORD [124+EBX],EAX
    87 000000A8 C7 83 000000A4 00000008         	MOV	DWORD [164+EBX],8
    88 000000B2 C7 83 000000A8 00000010         	MOV	DWORD [168+EBX],16
    89 000000BC C7 83 000000AC 00000008         	MOV	DWORD [172+EBX],8
    90 000000C6 C7 83 000000B0 00000008         	MOV	DWORD [176+EBX],8
    91 000000D0 C7 83 000000B4 00000008         	MOV	DWORD [180+EBX],8
    92 000000DA C7 83 000000B8 00000008         	MOV	DWORD [184+EBX],8
    93 000000E4 C7 83 0000013E 00000008         	MOV	DWORD [318+EBX],8
    94 000000EE C7 43 78 00268000               	MOV	DWORD [120+EBX],2523136
    95 000000F5 C7 83 00000152 003C0000         	MOV	DWORD [338+EBX],3932160
    96 000000FF 6A 02                           	PUSH	2
    97 00000101 6A 02                           	PUSH	2
    98 00000103 53                              	PUSH	EBX
    99 00000104 E8 [00000000]                   	CALL	_task_run
   100 00000109 8D 43 10                        	LEA	EAX,DWORD [16+EBX]
   101 0000010C 83 C4 28                        	ADD	ESP,40
   102 0000010F 53                              	PUSH	EBX
   103 00000110 57                              	PUSH	EDI
   104 00000111 68 00000080                     	PUSH	128
   105 00000116 50                              	PUSH	EAX
   106 00000117 E8 [00000000]                   	CALL	_fifo32_init
   107 0000011C 89 D8                           	MOV	EAX,EBX
   108 0000011E C7 05 [00000000] 00000001       	MOV	DWORD [_disk_running],1
   109 00000128 89 1D [00000008]                	MOV	DWORD [_task_disk_p],EBX
   110 0000012E E9 FFFFFEF0                     	JMP	L2
   111 00000133                                 	GLOBAL	_task_disk
   112 00000133                                 _task_disk:
   113 00000133 55                              	PUSH	EBP
   114 00000134 89 E5                           	MOV	EBP,ESP
   115 00000136 57                              	PUSH	EDI
   116 00000137 56                              	PUSH	ESI
   117 00000138 BE 00100400                     	MOV	ESI,1049600
   118 0000013D 53                              	PUSH	EBX
   119 0000013E 31 DB                           	XOR	EBX,EBX
   120 00000140 83 EC 38                        	SUB	ESP,56
   121 00000143 A1 0026F000                     	MOV	EAX,DWORD [2551808]
   122 00000148 89 45 CC                        	MOV	DWORD [-52+EBP],EAX
   123 0000014B E8 [00000000]                   	CALL	_task_now
   124 00000150 89 45 C8                        	MOV	DWORD [-56+EBP],EAX
   125 00000153 E8 [00000000]                   	CALL	_task_now
   126 00000158 C7 45 E4 EBD0A0A2               	MOV	DWORD [-28+EBP],-338648926
   127 0000015F 8B 80 00000152                  	MOV	EAX,DWORD [338+EAX]
   128 00000165 6A 00                           	PUSH	0
   129 00000167 68 00000B40                     	PUSH	2880
   130 0000016C 89 45 C4                        	MOV	DWORD [-60+EBP],EAX
   131 0000016F 6A 00                           	PUSH	0
   132 00000171 68 00100000                     	PUSH	1048576
   133 00000176 66 C7 45 E8 B9E5                	MOV	WORD [-24+EBP],-17947
   134 0000017C 66 C7 45 EA 4433                	MOV	WORD [-22+EBP],17459
   135 00000182 C6 45 EC 87                     	MOV	BYTE [-20+EBP],-121
   136 00000186 C6 45 ED C0                     	MOV	BYTE [-19+EBP],-64
   137 0000018A C6 45 EE 68                     	MOV	BYTE [-18+EBP],104
   138 0000018E C6 45 EF B6                     	MOV	BYTE [-17+EBP],-74
   139 00000192 C6 45 F0 B7                     	MOV	BYTE [-16+EBP],-73
   140 00000196 C6 45 F1 26                     	MOV	BYTE [-15+EBP],38
   141 0000019A C6 45 F2 99                     	MOV	BYTE [-14+EBP],-103
   142 0000019E C6 45 F3 C7                     	MOV	BYTE [-13+EBP],-57
   143 000001A2 C7 45 D4 7A57C1E4               	MOV	DWORD [-44+EBP],2052571620
   144 000001A9 66 C7 45 D8 EA59                	MOV	WORD [-40+EBP],-5543
   145 000001AF 66 C7 45 DA 49C0                	MOV	WORD [-38+EBP],18880
   146 000001B5 C6 45 DC AD                     	MOV	BYTE [-36+EBP],-83
   147 000001B9 C6 45 DD 61                     	MOV	BYTE [-35+EBP],97
   148 000001BD C6 45 DE 97                     	MOV	BYTE [-34+EBP],-105
   149 000001C1 C6 45 DF 6F                     	MOV	BYTE [-33+EBP],111
   150 000001C5 C6 45 E0 85                     	MOV	BYTE [-32+EBP],-123
   151 000001C9 C6 45 E1 30                     	MOV	BYTE [-31+EBP],48
   152 000001CD C6 45 E2 85                     	MOV	BYTE [-30+EBP],-123
   153 000001D1 C6 45 E3 A3                     	MOV	BYTE [-29+EBP],-93
   154 000001D5 E8 00000302                     	CALL	_dmg_read
   155 000001DA 83 C4 10                        	ADD	ESP,16
   156 000001DD                                 L19:
   157 000001DD 8B 45 D4                        	MOV	EAX,DWORD [-44+EBP]
   158 000001E0 89 F1                           	MOV	ECX,ESI
   159 000001E2 39 46 10                        	CMP	DWORD [16+ESI],EAX
   160 000001E5 74 37                           	JE	L30
   161 000001E7                                 L7:
   162 000001E7 43                              	INC	EBX
   163 000001E8 83 EE 80                        	SUB	ESI,-128
   164 000001EB 83 FB 0F                        	CMP	EBX,15
   165 000001EE 7E ED                           	JLE	L19
   166 000001F0                                 L21:
   167 000001F0 E8 [00000000]                   	CALL	_io_cli
   168 000001F5 8B 5D C8                        	MOV	EBX,DWORD [-56+EBP]
   169 000001F8 83 C3 10                        	ADD	EBX,16
   170 000001FB 53                              	PUSH	EBX
   171 000001FC E8 [00000000]                   	CALL	_fifo32_status
   172 00000201 5A                              	POP	EDX
   173 00000202 85 C0                           	TEST	EAX,EAX
   174 00000204 74 0E                           	JE	L31
   175 00000206 53                              	PUSH	EBX
   176 00000207 E8 [00000000]                   	CALL	_fifo32_get
   177 0000020C                                 L29:
   178 0000020C E8 [00000000]                   	CALL	_io_sti
   179 00000211 58                              	POP	EAX
   180 00000212 EB DC                           	JMP	L21
   181 00000214                                 L31:
   182 00000214 FF 75 C8                        	PUSH	DWORD [-56+EBP]
   183 00000217 E8 [00000000]                   	CALL	_task_sleep
   184 0000021C EB EE                           	JMP	L29
   185 0000021E                                 L30:
   186 0000021E 8B 45 D8                        	MOV	EAX,DWORD [-40+EBP]
   187 00000221 66 39 46 14                     	CMP	WORD [20+ESI],AX
   188 00000225 75 C0                           	JNE	L7
   189 00000227 66 8B 45 DA                     	MOV	AX,WORD [-38+EBP]
   190 0000022B 66 39 46 16                     	CMP	WORD [22+ESI],AX
   191 0000022F 75 B6                           	JNE	L7
   192 00000231 31 D2                           	XOR	EDX,EDX
   193 00000233                                 L17:
   194 00000233 8A 44 15 DC                     	MOV	AL,BYTE [-36+EBP+EDX*1]
   195 00000237 38 44 0A 18                     	CMP	BYTE [24+EDX+ECX*1],AL
   196 0000023B 75 06                           	JNE	L13
   197 0000023D 42                              	INC	EDX
   198 0000023E 83 FA 07                        	CMP	EDX,7
   199 00000241 7E F0                           	JLE	L17
   200 00000243                                 L13:
   201 00000243 83 FA 08                        	CMP	EDX,8
   202 00000246 75 9F                           	JNE	L7
   203 00000248 8B 41 20                        	MOV	EAX,DWORD [32+ECX]
   204 0000024B 83 FB 0F                        	CMP	EBX,15
   205 0000024E 8B 49 28                        	MOV	ECX,DWORD [40+ECX]
   206 00000251 89 45 C0                        	MOV	DWORD [-64+EBP],EAX
   207 00000254 89 4D BC                        	MOV	DWORD [-68+EBP],ECX
   208 00000257 7F 97                           	JG	L21
   209 00000259 68 00001000                     	PUSH	4096
   210 0000025E FF 75 C4                        	PUSH	DWORD [-60+EBP]
   211 00000261 E8 [00000000]                   	CALL	_memman_alloc_4k
   212 00000266 6A 00                           	PUSH	0
   213 00000268 6A 01                           	PUSH	1
   214 0000026A 89 C6                           	MOV	ESI,EAX
   215 0000026C 6A 07                           	PUSH	7
   216 0000026E 50                              	PUSH	EAX
   217 0000026F FF 75 CC                        	PUSH	DWORD [-52+EBP]
   218 00000272 E8 [00000000]                   	CALL	_pageman_link_page_32_m
   219 00000277 6A 00                           	PUSH	0
   220 00000279 6A 01                           	PUSH	1
   221 0000027B FF 75 C0                        	PUSH	DWORD [-64+EBP]
   222 0000027E 56                              	PUSH	ESI
   223 0000027F E8 00000258                     	CALL	_dmg_read
   224 00000284 83 C4 2C                        	ADD	ESP,44
   225 00000287 89 35 0026F024                  	MOV	DWORD [2551844],ESI
   226 0000028D 8B 5E 24                        	MOV	EBX,DWORD [36+ESI]
   227 00000290 89 D8                           	MOV	EAX,EBX
   228 00000292 C1 E0 09                        	SAL	EAX,9
   229 00000295 50                              	PUSH	EAX
   230 00000296 FF 75 C4                        	PUSH	DWORD [-60+EBP]
   231 00000299 E8 [00000000]                   	CALL	_memman_alloc_4k
   232 0000029E 6A 00                           	PUSH	0
   233 000002A0 89 C7                           	MOV	EDI,EAX
   234 000002A2 8D 43 03                        	LEA	EAX,DWORD [3+EBX]
   235 000002A5 C1 E8 02                        	SHR	EAX,2
   236 000002A8 50                              	PUSH	EAX
   237 000002A9 6A 07                           	PUSH	7
   238 000002AB 57                              	PUSH	EDI
   239 000002AC FF 75 CC                        	PUSH	DWORD [-52+EBP]
   240 000002AF E8 [00000000]                   	CALL	_pageman_link_page_32_m
   241 000002B4 6A 00                           	PUSH	0
   242 000002B6 53                              	PUSH	EBX
   243 000002B7 0F B7 46 0E                     	MOVZX	EAX,WORD [14+ESI]
   244 000002BB 03 45 C0                        	ADD	EAX,DWORD [-64+EBP]
   245 000002BE 50                              	PUSH	EAX
   246 000002BF 57                              	PUSH	EDI
   247 000002C0 E8 00000217                     	CALL	_dmg_read
   248 000002C5 83 C4 2C                        	ADD	ESP,44
   249 000002C8 89 3D 0026F028                  	MOV	DWORD [2551848],EDI
   250 000002CE 68 00002000                     	PUSH	8192
   251 000002D3 FF 75 C4                        	PUSH	DWORD [-60+EBP]
   252 000002D6 E8 [00000000]                   	CALL	_memman_alloc_4k
   253 000002DB 6A 00                           	PUSH	0
   254 000002DD 6A 02                           	PUSH	2
   255 000002DF 89 C3                           	MOV	EBX,EAX
   256 000002E1 6A 07                           	PUSH	7
   257 000002E3 50                              	PUSH	EAX
   258 000002E4 FF 75 CC                        	PUSH	DWORD [-52+EBP]
   259 000002E7 E8 [00000000]                   	CALL	_pageman_link_page_32_m
   260 000002EC 8D 45 D0                        	LEA	EAX,DWORD [-48+EBP]
   261 000002EF 6A 00                           	PUSH	0
   262 000002F1 FF 76 2C                        	PUSH	DWORD [44+ESI]
   263 000002F4 56                              	PUSH	ESI
   264 000002F5 FF 75 C0                        	PUSH	DWORD [-64+EBP]
   265 000002F8 57                              	PUSH	EDI
   266 000002F9 50                              	PUSH	EAX
   267 000002FA 8D 43 10                        	LEA	EAX,DWORD [16+EBX]
   268 000002FD 50                              	PUSH	EAX
   269 000002FE C7 45 D0 00002000               	MOV	DWORD [-48+EBP],8192
   270 00000305 E8 00000018                     	CALL	__read_file
   271 0000030A 83 C4 38                        	ADD	ESP,56
   272 0000030D 8B 45 C0                        	MOV	EAX,DWORD [-64+EBP]
   273 00000310 A3 0026F030                     	MOV	DWORD [2551856],EAX
   274 00000315 8B 45 BC                        	MOV	EAX,DWORD [-68+EBP]
   275 00000318 A3 0026F034                     	MOV	DWORD [2551860],EAX
   276 0000031D E9 FFFFFECE                     	JMP	L21
   277 00000322                                 	GLOBAL	__read_file
   278 00000322                                 __read_file:
   279 00000322 55                              	PUSH	EBP
   280 00000323 89 E5                           	MOV	EBP,ESP
   281 00000325 57                              	PUSH	EDI
   282 00000326 56                              	PUSH	ESI
   283 00000327 BF 00000200                     	MOV	EDI,512
   284 0000032C 53                              	PUSH	EBX
   285 0000032D 51                              	PUSH	ECX
   286 0000032E 8B 75 18                        	MOV	ESI,DWORD [24+EBP]
   287 00000331 8B 5D 1C                        	MOV	EBX,DWORD [28+EBP]
   288 00000334 C7 45 F0 00000000               	MOV	DWORD [-16+EBP],0
   289 0000033B                                 L33:
   290 0000033B 0F B6 4E 0D                     	MOVZX	ECX,BYTE [13+ESI]
   291 0000033F 89 F8                           	MOV	EAX,EDI
   292 00000341 0F AF C1                        	IMUL	EAX,ECX
   293 00000344 3B 45 0C                        	CMP	EAX,DWORD [12+EBP]
   294 00000347 77 4C                           	JA	L32
   295 00000349 6A 00                           	PUSH	0
   296 0000034B 8D 43 FE                        	LEA	EAX,DWORD [-2+EBX]
   297 0000034E 51                              	PUSH	ECX
   298 0000034F 0F B6 56 10                     	MOVZX	EDX,BYTE [16+ESI]
   299 00000353 0F AF 56 24                     	IMUL	EDX,DWORD [36+ESI]
   300 00000357 0F AF C1                        	IMUL	EAX,ECX
   301 0000035A 01 C2                           	ADD	EDX,EAX
   302 0000035C 0F B7 46 0E                     	MOVZX	EAX,WORD [14+ESI]
   303 00000360 03 45 14                        	ADD	EAX,DWORD [20+EBP]
   304 00000363 01 C2                           	ADD	EDX,EAX
   305 00000365 8B 45 F0                        	MOV	EAX,DWORD [-16+EBP]
   306 00000368 0F AF C1                        	IMUL	EAX,ECX
   307 0000036B C1 E0 09                        	SAL	EAX,9
   308 0000036E 52                              	PUSH	EDX
   309 0000036F 03 45 08                        	ADD	EAX,DWORD [8+EBP]
   310 00000372 50                              	PUSH	EAX
   311 00000373 E8 00000164                     	CALL	_dmg_read
   312 00000378 83 C4 10                        	ADD	ESP,16
   313 0000037B 8B 55 10                        	MOV	EDX,DWORD [16+EBP]
   314 0000037E 8B 04 9A                        	MOV	EAX,DWORD [EDX+EBX*4]
   315 00000381 3D 0FFFFFFF                     	CMP	EAX,268435455
   316 00000386 74 0D                           	JE	L32
   317 00000388 89 C3                           	MOV	EBX,EAX
   318 0000038A 81 C7 00000200                  	ADD	EDI,512
   319 00000390 FF 45 F0                        	INC	DWORD [-16+EBP]
   320 00000393 EB A6                           	JMP	L33
   321 00000395                                 L32:
   322 00000395 8D 65 F4                        	LEA	ESP,DWORD [-12+EBP]
   323 00000398 31 C0                           	XOR	EAX,EAX
   324 0000039A 5B                              	POP	EBX
   325 0000039B 5E                              	POP	ESI
   326 0000039C 5F                              	POP	EDI
   327 0000039D 5D                              	POP	EBP
   328 0000039E C3                              	RET
   329 0000039F                                 	GLOBAL	__get_file_number
   330 0000039F                                 __get_file_number:
   331 0000039F 55                              	PUSH	EBP
   332 000003A0 31 C9                           	XOR	ECX,ECX
   333 000003A2 89 E5                           	MOV	EBP,ESP
   334 000003A4 56                              	PUSH	ESI
   335 000003A5 53                              	PUSH	EBX
   336 000003A6 31 DB                           	XOR	EBX,EBX
   337 000003A8 8B 75 0C                        	MOV	ESI,DWORD [12+EBP]
   338 000003AB 89 F0                           	MOV	EAX,ESI
   339 000003AD C1 E8 05                        	SHR	EAX,5
   340 000003B0 39 C1                           	CMP	ECX,EAX
   341 000003B2 73 21                           	JAE	L47
   342 000003B4 8B 55 08                        	MOV	EDX,DWORD [8+EBP]
   343 000003B7                                 L45:
   344 000003B7 8A 42 11                        	MOV	AL,BYTE [17+EDX]
   345 000003BA 3C 0F                           	CMP	AL,15
   346 000003BC 74 0A                           	JE	L41
   347 000003BE 84 C0                           	TEST	AL,AL
   348 000003C0 74 06                           	JE	L41
   349 000003C2 80 3A E5                        	CMP	BYTE [EDX],-27
   350 000003C5 74 01                           	JE	L41
   351 000003C7 41                              	INC	ECX
   352 000003C8                                 L41:
   353 000003C8 89 F0                           	MOV	EAX,ESI
   354 000003CA 43                              	INC	EBX
   355 000003CB C1 E8 05                        	SHR	EAX,5
   356 000003CE 83 C2 20                        	ADD	EDX,32
   357 000003D1 39 C3                           	CMP	EBX,EAX
   358 000003D3 72 E2                           	JB	L45
   359 000003D5                                 L47:
   360 000003D5 5B                              	POP	EBX
   361 000003D6 89 C8                           	MOV	EAX,ECX
   362 000003D8 5E                              	POP	ESI
   363 000003D9 5D                              	POP	EBP
   364 000003DA C3                              	RET
   365 000003DB                                 	GLOBAL	_dmg_read2
   366 000003DB                                 _dmg_read2:
   367 000003DB 55                              	PUSH	EBP
   368 000003DC 89 E5                           	MOV	EBP,ESP
   369 000003DE 57                              	PUSH	EDI
   370 000003DF 56                              	PUSH	ESI
   371 000003E0 53                              	PUSH	EBX
   372 000003E1 51                              	PUSH	ECX
   373 000003E2 8A 45 10                        	MOV	AL,BYTE [16+EBP]
   374 000003E5 8B 15 [00000004]                	MOV	EDX,DWORD [_lock]
   375 000003EB 88 45 F3                        	MOV	BYTE [-13+EBP],AL
   376 000003EE 8B 5D 0C                        	MOV	EBX,DWORD [12+EBP]
   377 000003F1 83 C8 FF                        	OR	EAX,-1
   378 000003F4 F7 C2 00000001                  	TEST	EDX,1
   379 000003FA 74 08                           	JE	L69
   380 000003FC                                 L48:
   381 000003FC 8D 65 F4                        	LEA	ESP,DWORD [-12+EBP]
   382 000003FF 5B                              	POP	EBX
   383 00000400 5E                              	POP	ESI
   384 00000401 5F                              	POP	EDI
   385 00000402 5D                              	POP	EBP
   386 00000403 C3                              	RET
   387 00000404                                 L69:
   388 00000404 0F B6 7D F3                     	MOVZX	EDI,BYTE [-13+EBP]
   389 00000408 57                              	PUSH	EDI
   390 00000409 83 CA 01                        	OR	EDX,1
   391 0000040C 68 000001F2                     	PUSH	498
   392 00000411 89 15 [00000004]                	MOV	DWORD [_lock],EDX
   393 00000417 31 F6                           	XOR	ESI,ESI
   394 00000419 E8 [00000000]                   	CALL	_io_out8
   395 0000041E 0F B6 C3                        	MOVZX	EAX,BL
   396 00000421 50                              	PUSH	EAX
   397 00000422 68 000001F3                     	PUSH	499
   398 00000427 E8 [00000000]                   	CALL	_io_out8
   399 0000042C 0F B6 C7                        	MOVZX	EAX,BH
   400 0000042F 50                              	PUSH	EAX
   401 00000430 68 000001F4                     	PUSH	500
   402 00000435 E8 [00000000]                   	CALL	_io_out8
   403 0000043A 89 D8                           	MOV	EAX,EBX
   404 0000043C C1 F8 10                        	SAR	EAX,16
   405 0000043F C1 EB 18                        	SHR	EBX,24
   406 00000442 25 000000FF                     	AND	EAX,255
   407 00000447 50                              	PUSH	EAX
   408 00000448 81 CB 000000E0                  	OR	EBX,224
   409 0000044E 68 000001F5                     	PUSH	501
   410 00000453 E8 [00000000]                   	CALL	_io_out8
   411 00000458 83 C4 20                        	ADD	ESP,32
   412 0000045B 53                              	PUSH	EBX
   413 0000045C 68 000001F6                     	PUSH	502
   414 00000461 E8 [00000000]                   	CALL	_io_out8
   415 00000466 6A 20                           	PUSH	32
   416 00000468 68 000001F7                     	PUSH	503
   417 0000046D E8 [00000000]                   	CALL	_io_out8
   418 00000472 83 C4 10                        	ADD	ESP,16
   419 00000475 39 FE                           	CMP	ESI,EDI
   420 00000477 7D 55                           	JGE	L66
   421 00000479 31 FF                           	XOR	EDI,EDI
   422 0000047B                                 L55:
   423 0000047B 68 000001F7                     	PUSH	503
   424 00000480 E8 [00000000]                   	CALL	_io_in8
   425 00000485 A2 0026F02C                     	MOV	BYTE [2551852],AL
   426 0000048A 83 E0 88                        	AND	EAX,-120
   427 0000048D 5A                              	POP	EDX
   428 0000048E 3C 08                           	CMP	AL,8
   429 00000490 75 E9                           	JNE	L55
   430 00000492 C6 05 0026F02C 00               	MOV	BYTE [2551852],0
   431 00000499 31 DB                           	XOR	EBX,EBX
   432 0000049B                                 L63:
   433 0000049B 68 000001F0                     	PUSH	496
   434 000004A0 E8 [00000000]                   	CALL	_io_in16
   435 000004A5 8B 4D 08                        	MOV	ECX,DWORD [8+EBP]
   436 000004A8 8D 14 3B                        	LEA	EDX,DWORD [EBX+EDI*1]
   437 000004AB 43                              	INC	EBX
   438 000004AC 88 04 51                        	MOV	BYTE [ECX+EDX*2],AL
   439 000004AF C1 F8 08                        	SAR	EAX,8
   440 000004B2 88 44 51 01                     	MOV	BYTE [1+ECX+EDX*2],AL
   441 000004B6 81 FB 000000FF                  	CMP	EBX,255
   442 000004BC 58                              	POP	EAX
   443 000004BD 7E DC                           	JLE	L63
   444 000004BF 46                              	INC	ESI
   445 000004C0 81 C7 00000100                  	ADD	EDI,256
   446 000004C6 0F B6 45 F3                     	MOVZX	EAX,BYTE [-13+EBP]
   447 000004CA 39 C6                           	CMP	ESI,EAX
   448 000004CC 7C AD                           	JL	L55
   449 000004CE                                 L66:
   450 000004CE 83 25 [00000004] FE             	AND	DWORD [_lock],-2
   451 000004D5 31 C0                           	XOR	EAX,EAX
   452 000004D7 E9 FFFFFF20                     	JMP	L48
   453 000004DC                                 	GLOBAL	_dmg_read
   454 000004DC                                 _dmg_read:
   455 000004DC 55                              	PUSH	EBP
   456 000004DD 89 E5                           	MOV	EBP,ESP
   457 000004DF 57                              	PUSH	EDI
   458 000004E0 56                              	PUSH	ESI
   459 000004E1 53                              	PUSH	EBX
   460 000004E2 8B 7D 08                        	MOV	EDI,DWORD [8+EBP]
   461 000004E5 8B 75 0C                        	MOV	ESI,DWORD [12+EBP]
   462 000004E8 8B 5D 10                        	MOV	EBX,DWORD [16+EBP]
   463 000004EB                                 L71:
   464 000004EB 81 FB 000000FF                  	CMP	EBX,255
   465 000004F1 7E 26                           	JLE	L76
   466 000004F3 FF 75 14                        	PUSH	DWORD [20+EBP]
   467 000004F6 68 000000FF                     	PUSH	255
   468 000004FB 81 EB 000000FF                  	SUB	EBX,255
   469 00000501 56                              	PUSH	ESI
   470 00000502 81 C6 000000FF                  	ADD	ESI,255
   471 00000508 57                              	PUSH	EDI
   472 00000509 81 C7 0001FE00                  	ADD	EDI,130560
   473 0000050F E8 FFFFFEC7                     	CALL	_dmg_read2
   474 00000514 83 C4 10                        	ADD	ESP,16
   475 00000517 EB D2                           	JMP	L71
   476 00000519                                 L76:
   477 00000519 FF 75 14                        	PUSH	DWORD [20+EBP]
   478 0000051C 0F B6 C3                        	MOVZX	EAX,BL
   479 0000051F 50                              	PUSH	EAX
   480 00000520 56                              	PUSH	ESI
   481 00000521 57                              	PUSH	EDI
   482 00000522 E8 FFFFFEB4                     	CALL	_dmg_read2
   483 00000527 31 C0                           	XOR	EAX,EAX
   484 00000529 83 C4 10                        	ADD	ESP,16
   485 0000052C 8D 65 F4                        	LEA	ESP,DWORD [-12+EBP]
   486 0000052F 5B                              	POP	EBX
   487 00000530 5E                              	POP	ESI
   488 00000531 5F                              	POP	EDI
   489 00000532 5D                              	POP	EBP
   490 00000533 C3                              	RET
   491 00000534                                 	GLOBAL	_dmg_write
   492 00000534                                 _dmg_write:
   493 00000534 55                              	PUSH	EBP
   494 00000535 8B 15 [00000004]                	MOV	EDX,DWORD [_lock]
   495 0000053B 89 E5                           	MOV	EBP,ESP
   496 0000053D 83 C8 FF                        	OR	EAX,-1
   497 00000540 56                              	PUSH	ESI
   498 00000541 53                              	PUSH	EBX
   499 00000542 8B 75 08                        	MOV	ESI,DWORD [8+EBP]
   500 00000545 8B 5D 0C                        	MOV	EBX,DWORD [12+EBP]
   501 00000548 F7 C2 00000001                  	TEST	EDX,1
   502 0000054E 74 07                           	JE	L91
   503 00000550                                 L77:
   504 00000550 8D 65 F8                        	LEA	ESP,DWORD [-8+EBP]
   505 00000553 5B                              	POP	EBX
   506 00000554 5E                              	POP	ESI
   507 00000555 5D                              	POP	EBP
   508 00000556 C3                              	RET
   509 00000557                                 L91:
   510 00000557 0F BE 45 10                     	MOVSX	EAX,BYTE [16+EBP]
   511 0000055B 50                              	PUSH	EAX
   512 0000055C 83 CA 01                        	OR	EDX,1
   513 0000055F 68 000001F2                     	PUSH	498
   514 00000564 89 15 [00000004]                	MOV	DWORD [_lock],EDX
   515 0000056A E8 [00000000]                   	CALL	_io_out8
   516 0000056F 0F B6 C3                        	MOVZX	EAX,BL
   517 00000572 50                              	PUSH	EAX
   518 00000573 68 000001F3                     	PUSH	499
   519 00000578 E8 [00000000]                   	CALL	_io_out8
   520 0000057D 0F B6 C7                        	MOVZX	EAX,BH
   521 00000580 50                              	PUSH	EAX
   522 00000581 68 000001F4                     	PUSH	500
   523 00000586 E8 [00000000]                   	CALL	_io_out8
   524 0000058B 89 D8                           	MOV	EAX,EBX
   525 0000058D C1 F8 10                        	SAR	EAX,16
   526 00000590 C1 EB 18                        	SHR	EBX,24
   527 00000593 25 000000FF                     	AND	EAX,255
   528 00000598 50                              	PUSH	EAX
   529 00000599 81 CB 000000E0                  	OR	EBX,224
   530 0000059F 68 000001F5                     	PUSH	501
   531 000005A4 E8 [00000000]                   	CALL	_io_out8
   532 000005A9 83 C4 20                        	ADD	ESP,32
   533 000005AC 53                              	PUSH	EBX
   534 000005AD 68 000001F6                     	PUSH	502
   535 000005B2 E8 [00000000]                   	CALL	_io_out8
   536 000005B7 6A 30                           	PUSH	48
   537 000005B9 68 000001F7                     	PUSH	503
   538 000005BE E8 [00000000]                   	CALL	_io_out8
   539 000005C3 83 C4 10                        	ADD	ESP,16
   540 000005C6                                 L80:
   541 000005C6 68 000001F7                     	PUSH	503
   542 000005CB E8 [00000000]                   	CALL	_io_in8
   543 000005D0 59                              	POP	ECX
   544 000005D1 83 E0 88                        	AND	EAX,-120
   545 000005D4 3C 08                           	CMP	AL,8
   546 000005D6 75 EE                           	JNE	L80
   547 000005D8 8B 45 10                        	MOV	EAX,DWORD [16+EBP]
   548 000005DB 31 DB                           	XOR	EBX,EBX
   549 000005DD C1 E0 08                        	SAL	EAX,8
   550 000005E0 39 C3                           	CMP	EBX,EAX
   551 000005E2 7C 0E                           	JL	L88
   552 000005E4                                 L90:
   553 000005E4 83 25 [00000004] FE             	AND	DWORD [_lock],-2
   554 000005EB 31 C0                           	XOR	EAX,EAX
   555 000005ED E9 FFFFFF5E                     	JMP	L77
   556 000005F2                                 L88:
   557 000005F2 0F BF 04 5E                     	MOVSX	EAX,WORD [ESI+EBX*2]
   558 000005F6 50                              	PUSH	EAX
   559 000005F7 43                              	INC	EBX
   560 000005F8 68 000001F0                     	PUSH	496
   561 000005FD E8 [00000000]                   	CALL	_io_out16
   562 00000602 58                              	POP	EAX
   563 00000603 8B 45 10                        	MOV	EAX,DWORD [16+EBP]
   564 00000606 5A                              	POP	EDX
   565 00000607 C1 E0 08                        	SAL	EAX,8
   566 0000060A 39 C3                           	CMP	EBX,EAX
   567 0000060C 7C E4                           	JL	L88
   568 0000060E EB D4                           	JMP	L90
   569 00000610                                 	GLOBAL	__dmg_open
   570 00000610                                 __dmg_open:
   571 00000610 55                              	PUSH	EBP
   572 00000611 31 C0                           	XOR	EAX,EAX
   573 00000613 89 E5                           	MOV	EBP,ESP
   574 00000615 5D                              	POP	EBP
   575 00000616 C3                              	RET
   576 00000617                                 	GLOBAL	__dmg_read
   577 00000617                                 __dmg_read:
   578 00000617 55                              	PUSH	EBP
   579 00000618 31 C0                           	XOR	EAX,EAX
   580 0000061A 89 E5                           	MOV	EBP,ESP
   581 0000061C 5D                              	POP	EBP
   582 0000061D C3                              	RET
   583 0000061E                                 	GLOBAL	__dmg_write
   584 0000061E                                 __dmg_write:
   585 0000061E 55                              	PUSH	EBP
   586 0000061F 89 E5                           	MOV	EBP,ESP
   587 00000621 6A 00                           	PUSH	0
   588 00000623 6A 01                           	PUSH	1
   589 00000625 6A 01                           	PUSH	1
   590 00000627 FF 75 10                        	PUSH	DWORD [16+EBP]
   591 0000062A E8 FFFFFF05                     	CALL	_dmg_write
   592 0000062F 31 C0                           	XOR	EAX,EAX
   593 00000631 C9                              	LEAVE
   594 00000632 C3                              	RET
   595 00000633                                 	GLOBAL	__dmg_close
   596 00000633                                 __dmg_close:
   597 00000633 55                              	PUSH	EBP
   598 00000634 31 C0                           	XOR	EAX,EAX
   599 00000636 89 E5                           	MOV	EBP,ESP
   600 00000638 5D                              	POP	EBP
   601 00000639 C3                              	RET
   602 0000063A                                 	GLOBAL	__dmg_seek
   603 0000063A                                 __dmg_seek:
   604 0000063A 55                              	PUSH	EBP
   605 0000063B 31 C0                           	XOR	EAX,EAX
   606 0000063D 89 E5                           	MOV	EBP,ESP
   607 0000063F 5D                              	POP	EBP
   608 00000640 C3                              	RET
   609 00000641                                 	GLOBAL	_lock
   610                                          [SECTION .data]
   611 00000004                                 	ALIGNB	4
   612 00000004                                 _lock:
   613 00000004 00 00 00 00                     	RESB	4
   614 00000008                                 	GLOBAL	_task_disk_p
   615                                          [SECTION .data]
   616 00000008                                 	ALIGNB	4
   617 00000008                                 _task_disk_p:
   618 00000008 00 00 00 00                     	RESB	4
   619 0000000C                                 	GLOBAL	_dmg_StorageDeviceOperations
   620                                          [SECTION .data]
   621 0000000C 00 00 00 00                     	ALIGNB	16
   622 00000010                                 _dmg_StorageDeviceOperations:
   623 00000010 00 00 00 00 00 00 00 00 00 00   	RESB	20
       0000001A 00 00 00 00 00 00 00 00 00 00 
   624 00000024                                 	GLOBAL	_info
   625                                          [SECTION .data]
   626 00000024                                 	ALIGNB	4
   627 00000024                                 _info:
   628 00000024 00 00 00 00                     	RESB	4
   629 00000028                                 	GLOBAL	_dmg_info_num
   630                                          [SECTION .data]
   631 00000028                                 	ALIGNB	4
   632 00000028                                 _dmg_info_num:
   633 00000028 00 00 00 00                     	RESB	4
