     1 00000000                                 ; haribote-ipl
     2 00000000                                 ; TAB=4
     3 00000000                                 
     4  = 00000014                              CYLS	EQU		20				; どこまで読み込むか
     5 00000000                                 
     6                                          		ORG		0x7c00			; このプログラムがどこに読み込まれるのか
     7 00007C00                                 
     8 00007C00                                 ; 以下は標準的なFAT12フォーマットフロッピーディスクのための記述
     9 00007C00                                 
    10 00007C00 EB 6A                           		JMP		entry
    11 00007C02 90                              		DB		0x90
    12 00007C03 42 4F 53 43 4C 45 41 52         		DB		"BOSCLEAR"		; 8个字?的磁?名称
    13 00007C0B 0200                            		DW		512				; ?扇区字?数量
    14 00007C0D 01                              		DB		1				; ?簇扇区数
    15 00007C0E 0001                            		DW		1				; 保留扇区数
    16 00007C10 02                              		DB		2				; 2个文件分配表
    17 00007C11 00E0                            		DW		224				; 最大根目?条目个数（fat32?0）
    18 00007C13 0B40                            		DW		2880			; ?扇区数（如果是0?使用0x20的大小）
    19 00007C15 F0                              		DB		0xf0			; 介?描述（bit0：双面?志位 bit1：?面8（9）扇区?志位 bit2：40（80）磁道?志位）
    20 00007C16 0009                            		DW		9				; ?个文件分配表的扇区（fat32?0）
    21 00007C18 0012                            		DW		18				; ?磁道扇区数
    22 00007C1A 0002                            		DW		2				; 磁?数
    23 00007C1C 00000000                        		DD		0				; ?藏扇区数量
    24 00007C20 00000B40                        		DD		2880			; 如果超?65535?使用此?的?扇区数
    25 00007C24 00000009                        		DD		9				; ?个fat表占用扇区数（fat32使用）
    26 00007C28 008F                            		DW		0x8f
    27 00007C2A 0000                            		DW		0				;FAT32版本号
    28 00007C2C 00000002                        		DD		2				;根目?所在第一个簇的簇号
    29 00007C30 0001                            		DW		1				;保留区中FAT32卷FSINFO??所占的扇区数，通常?1。
    30 00007C32 0006                            		DW		6				;如果不?0，表示在保留区中引???的?数据所占的扇区数，通常?6。同?不建?使用6以外的其他数?
    31 00007C34 00 00 00 00 00 00 00 00 00 00   		RESB 12					;?以后?展保留
       00007C3E 00 00 
    32 00007C40 00                              		DB		0				; 物理??器?型（操作系?决定）
    33 00007C41 00                              		DB		0				; 当前磁?（必?是0）
    34 00007C42 29                              		DB		0x29		; ?展引???可用
    35 00007C43 FFFFFFFF                        		DD		0xffffffff		; 磁?id
    36 00007C47 42 4C 55 45 4F 53 43 4C 45 41   		DB		"BLUEOSCLEAR"	; ディスクの名前（11バイト）
       00007C51 52 
    37 00007C52 46 41 54 33 32 20 20 20         		DB		"FAT32   "		; フォーマットの名前（8バイト）
    38 00007C5A 00 00 00 00 00 00 00 00 00 00   		RESB	18				; とりあえず18バイトあけておく
       00007C64 00 00 00 00 00 00 00 00 
    39 00007C6C                                 
    40 00007C6C                                 ; プログラム本体
    41 00007C6C                                 
    42 00007C6C                                 entry:
    43 00007C6C B8 0000                         		MOV		AX,0			; レジスタ初期化
    44 00007C6F 8E D0                           		MOV		SS,AX
    45 00007C71 BC 7C00                         		MOV		SP,0x7c00
    46 00007C74 8E D8                           		MOV		DS,AX
    47 00007C76                                 
    48 00007C76                                 ; ディスクを読む
    49 00007C76                                 
    50 00007C76 B8 0820                         		MOV		AX,0x0820
    51 00007C79 8E C0                           		MOV		ES,AX
    52 00007C7B B5 00                           		MOV		CH,0			; シリンダ0
    53 00007C7D B6 00                           		MOV		DH,0			; ヘッド0
    54 00007C7F B1 02                           		MOV		CL,2			; セクタ2
    55 00007C81 BB 02CF                         		MOV		BX,18*2*CYLS-1	; 読み込みたい合計セクタ数
    56 00007C84 E8 0033                         		CALL	readfast		; 高速読み込み
    57 00007C87                                 
    58 00007C87                                 ; 読み終わったのでharibote.sysを実行だ！
    59 00007C87                                 
    60 00007C87 C6 06 0FF0 14                   		MOV		BYTE [0x0ff0],CYLS	; IPLがどこまで読んだのかをメモ
    61 00007C8C E9 4571                         		JMP		0xc200
    62 00007C8F                                 
    63 00007C8F                                 error:
    64 00007C8F B8 0000                         		MOV		AX,0
    65 00007C92 8E C0                           		MOV		ES,AX
    66 00007C94 BE 7CAC                         		MOV		SI,msg
    67 00007C97                                 putloop:
    68 00007C97 8A 04                           		MOV		AL,[SI]
    69 00007C99 83 C6 01                        		ADD		SI,1			; SIに1を足す
    70 00007C9C 3C 00                           		CMP		AL,0
    71 00007C9E 74 09                           		JE		fin
    72 00007CA0 B4 0E                           		MOV		AH,0x0e			; 一文字表示ファンクション
    73 00007CA2 BB 000F                         		MOV		BX,15			; カラーコード
    74 00007CA5 CD 10                           		INT		0x10			; ビデオBIOS呼び出し
    75 00007CA7 EB EE                           		JMP		putloop
    76 00007CA9                                 fin:
    77 00007CA9 F4                              		HLT						; 何かあるまでCPUを停止させる
    78 00007CAA EB FD                           		JMP		fin				; 無限ループ
    79 00007CAC                                 msg:
    80 00007CAC 0A 0A                           		DB		0x0a, 0x0a		; 改行を2つ
    81 00007CAE 6C 6F 61 64 20 65 72 72 6F 72   		DB		"load error"
    82 00007CB8 0A                              		DB		0x0a			; 改行
    83 00007CB9 00                              		DB		0
    84 00007CBA                                 
    85 00007CBA                                 readfast:	; ALを使ってできるだけまとめて読み出す
    86 00007CBA                                 ;	ES:読み込み番地, CH:シリンダ, DH:ヘッド, CL:セクタ, BX:読み込みセクタ数
    87 00007CBA                                 
    88 00007CBA 8C C0                           		MOV		AX,ES			; < ESからALの最大値を計算 >
    89 00007CBC C1 E0 03                        		SHL		AX,3			; AXを32で割って、その結果をAHに入れたことになる （SHLは左シフト命令）
    90 00007CBF 80 E4 7F                        		AND		AH,0x7f			; AHはAHを128で割った余り（512*128=64K）
    91 00007CC2 B0 80                           		MOV		AL,128			; AL = 128 - AH; 一番近い64KB境界まで最大何セクタ入るか
    92 00007CC4 28 E0                           		SUB		AL,AH
    93 00007CC6                                 
    94 00007CC6 88 DC                           		MOV		AH,BL			; < BXからALの最大値をAHに計算 >
    95 00007CC8 80 FF 00                        		CMP		BH,0			; if (BH != 0) { AH = 18; }
    96 00007CCB 74 02                           		JE		.skip1
    97 00007CCD B4 12                           		MOV		AH,18
    98 00007CCF                                 .skip1:
    99 00007CCF 38 E0                           		CMP		AL,AH			; if (AL > AH) { AL = AH; }
   100 00007CD1 76 02                           		JBE		.skip2
   101 00007CD3 88 E0                           		MOV		AL,AH
   102 00007CD5                                 .skip2:
   103 00007CD5                                 
   104 00007CD5 B4 13                           		MOV		AH,19			; < CLからALの最大値をAHに計算 >
   105 00007CD7 28 CC                           		SUB		AH,CL			; AH = 19 - CL;
   106 00007CD9 38 E0                           		CMP		AL,AH			; if (AL > AH) { AL = AH; }
   107 00007CDB 76 02                           		JBE		.skip3
   108 00007CDD 88 E0                           		MOV		AL,AH
   109 00007CDF                                 .skip3:
   110 00007CDF                                 
   111 00007CDF 53                              		PUSH	BX
   112 00007CE0 BE 0000                         		MOV		SI,0			; 失敗回数を数えるレジスタ
   113 00007CE3                                 retry:
   114 00007CE3 B4 02                           		MOV		AH,0x02			; AH=0x02 : ディスク読み込み
   115 00007CE5 BB 0000                         		MOV		BX,0
   116 00007CE8 B2 00                           		MOV		DL,0x00			; Aドライブ
   117 00007CEA 06                              		PUSH	ES
   118 00007CEB 52                              		PUSH	DX
   119 00007CEC 51                              		PUSH	CX
   120 00007CED 50                              		PUSH	AX
   121 00007CEE CD 13                           		INT		0x13			; ディスクBIOS呼び出し
   122 00007CF0 73 14                           		JNC		next			; エラーがおきなければnextへ
   123 00007CF2 83 C6 01                        		ADD		SI,1			; SIに1を足す
   124 00007CF5 83 FE 05                        		CMP		SI,5			; SIと5を比較
   125 00007CF8 73 95                           		JAE		error			; SI >= 5 だったらerrorへ
   126 00007CFA B4 00                           		MOV		AH,0x00
   127 00007CFC B2 00                           		MOV		DL,0x00			; Aドライブ
   128 00007CFE CD 13                           		INT		0x13			; ドライブのリセット
   129 00007D00 58                              		POP		AX
   130 00007D01 59                              		POP		CX
   131 00007D02 5A                              		POP		DX
   132 00007D03 07                              		POP		ES
   133 00007D04 EB DD                           		JMP		retry
   134 00007D06                                 next:
   135 00007D06 58                              		POP		AX
   136 00007D07 59                              		POP		CX
   137 00007D08 5A                              		POP		DX
   138 00007D09 5B                              		POP		BX				; ESの内容をBXで受け取る
   139 00007D0A C1 EB 05                        		SHR		BX,5			; BXを16バイト単位から512バイト単位へ
   140 00007D0D B4 00                           		MOV		AH,0
   141 00007D0F 01 C3                           		ADD		BX,AX			; BX += AL;
   142 00007D11 C1 E3 05                        		SHL		BX,5			; BXを512バイト単位から16バイト単位へ
   143 00007D14 8E C3                           		MOV		ES,BX			; これで ES += AL * 0x20; になる
   144 00007D16 5B                              		POP		BX
   145 00007D17 29 C3                           		SUB		BX,AX
   146 00007D19 74 18                           		JZ		.ret
   147 00007D1B 00 C1                           		ADD		CL,AL			; CLにALを足す
   148 00007D1D 80 F9 12                        		CMP		CL,18			; CLと18を比較
   149 00007D20 76 98                           		JBE		readfast		; CL <= 18 だったらreadfastへ
   150 00007D22 B1 01                           		MOV		CL,1
   151 00007D24 80 C6 01                        		ADD		DH,1
   152 00007D27 80 FE 02                        		CMP		DH,2
   153 00007D2A 72 8E                           		JB		readfast		; DH < 2 だったらreadfastへ
   154 00007D2C B6 00                           		MOV		DH,0
   155 00007D2E 80 C5 01                        		ADD		CH,1
   156 00007D31 EB 87                           		JMP		readfast
   157 00007D33                                 .ret:
   158 00007D33 C3                              		RET
   159 00007D34                                 
   160 00007D34 00 00 00 00 00 00 00 00 00 00   		RESB	0x7dfe-$		; 0x7dfeまでを0x00で埋める命令
       00007D3E 00 00 00 00 00 00 00 00 00 00 
       00007D48 00 00 00 00 00 00 00 00 00 00 
       00007D52 00 00 00 00 00 00 00 00 00 00 
       00007D5C 00 00 00 00 00 00 00 00 00 00 
       00007D66 00 00 00 00 00 00 00 00 00 00 
       00007D70 00 00 00 00 00 00 00 00 00 00 
       00007D7A 00 00 00 00 00 00 00 00 00 00 
       00007D84 00 00 00 00 00 00 00 00 00 00 
       00007D8E 00 00 00 00 00 00 00 00 00 00 
       00007D98 00 00 00 00 00 00 00 00 00 00 
       00007DA2 00 00 00 00 00 00 00 00 00 00 
       00007DAC 00 00 00 00 00 00 00 00 00 00 
       00007DB6 00 00 00 00 00 00 00 00 00 00 
       00007DC0 00 00 00 00 00 00 00 00 00 00 
       00007DCA 00 00 00 00 00 00 00 00 00 00 
       00007DD4 00 00 00 00 00 00 00 00 00 00 
       00007DDE 00 00 00 00 00 00 00 00 00 00 
       00007DE8 00 00 00 00 00 00 00 00 00 00 
       00007DF2 00 00 00 00 00 00 00 00 00 00 
       00007DFC 00 00 
   161 00007DFE                                 
   162 00007DFE 55 AA                           		DB		0x55, 0xaa
