     1 00000000                                 [FORMAT "WCOFF"]
     2 00000000                                 [INSTRSET "i486p"]
     3 00000000                                 [OPTIMIZE 1]
     4 00000000                                 [OPTION 1]
     5 00000000                                 [BITS 32]
     6 00000000                                 	EXTERN	_memman_alloc_4k
     7 00000000                                 	EXTERN	_memmam_link_page_32_m
     8 00000000                                 	EXTERN	_memman_free_4k
     9 00000000                                 [FILE "sheet.c"]
    10                                          [SECTION .text]
    11 00000000                                 	GLOBAL	_shtctl_init
    12 00000000                                 _shtctl_init:
    13 00000000 55                              	PUSH	EBP
    14 00000001 89 E5                           	MOV	EBP,ESP
    15 00000003 57                              	PUSH	EDI
    16 00000004 56                              	PUSH	ESI
    17 00000005 53                              	PUSH	EBX
    18 00000006 8B 7D 08                        	MOV	EDI,DWORD [8+EBP]
    19 00000009 68 00002C14                     	PUSH	11284
    20 0000000E 57                              	PUSH	EDI
    21 0000000F E8 [00000000]                   	CALL	_memman_alloc_4k
    22 00000014 6A 00                           	PUSH	0
    23 00000016 6A 03                           	PUSH	3
    24 00000018 89 C6                           	MOV	ESI,EAX
    25 0000001A 6A 07                           	PUSH	7
    26 0000001C 50                              	PUSH	EAX
    27 0000001D 68 00268000                     	PUSH	2523136
    28 00000022 FF 75 0C                        	PUSH	DWORD [12+EBP]
    29 00000025 E8 [00000000]                   	CALL	_memmam_link_page_32_m
    30 0000002A 83 C4 20                        	ADD	ESP,32
    31 0000002D 85 F6                           	TEST	ESI,ESI
    32 0000002F 74 6D                           	JE	L3
    33 00000031 8B 5D 14                        	MOV	EBX,DWORD [20+EBP]
    34 00000034 0F AF 5D 18                     	IMUL	EBX,DWORD [24+EBP]
    35 00000038 53                              	PUSH	EBX
    36 00000039 81 C3 00000FFF                  	ADD	EBX,4095
    37 0000003F C1 FB 0C                        	SAR	EBX,12
    38 00000042 57                              	PUSH	EDI
    39 00000043 E8 [00000000]                   	CALL	_memman_alloc_4k
    40 00000048 89 46 04                        	MOV	DWORD [4+ESI],EAX
    41 0000004B 6A 00                           	PUSH	0
    42 0000004D 53                              	PUSH	EBX
    43 0000004E 6A 07                           	PUSH	7
    44 00000050 50                              	PUSH	EAX
    45 00000051 68 00268000                     	PUSH	2523136
    46 00000056 FF 75 0C                        	PUSH	DWORD [12+EBP]
    47 00000059 E8 [00000000]                   	CALL	_memmam_link_page_32_m
    48 0000005E 83 C4 20                        	ADD	ESP,32
    49 00000061 83 7E 04 00                     	CMP	DWORD [4+ESI],0
    50 00000065 74 41                           	JE	L11
    51 00000067 8B 45 10                        	MOV	EAX,DWORD [16+EBP]
    52 0000006A 8D 96 000027D8                  	LEA	EDX,DWORD [10200+ESI]
    53 00000070 89 06                           	MOV	DWORD [ESI],EAX
    54 00000072 8B 45 14                        	MOV	EAX,DWORD [20+EBP]
    55 00000075 89 46 08                        	MOV	DWORD [8+ESI],EAX
    56 00000078 8B 45 18                        	MOV	EAX,DWORD [24+EBP]
    57 0000007B 89 46 0C                        	MOV	DWORD [12+ESI],EAX
    58 0000007E 89 F0                           	MOV	EAX,ESI
    59 00000080 C7 46 10 FFFFFFFF               	MOV	DWORD [16+ESI],-1
    60 00000087                                 L9:
    61 00000087 C7 80 00000430 00000000         	MOV	DWORD [1072+EAX],0
    62 00000091 89 B0 00000434                  	MOV	DWORD [1076+EAX],ESI
    63 00000097 83 C0 28                        	ADD	EAX,40
    64 0000009A 39 D0                           	CMP	EAX,EDX
    65 0000009C 7E E9                           	JLE	L9
    66 0000009E                                 L3:
    67 0000009E 8D 65 F4                        	LEA	ESP,DWORD [-12+EBP]
    68 000000A1 89 F0                           	MOV	EAX,ESI
    69 000000A3 5B                              	POP	EBX
    70 000000A4 5E                              	POP	ESI
    71 000000A5 5F                              	POP	EDI
    72 000000A6 5D                              	POP	EBP
    73 000000A7 C3                              	RET
    74 000000A8                                 L11:
    75 000000A8 68 00002C14                     	PUSH	11284
    76 000000AD 56                              	PUSH	ESI
    77 000000AE 57                              	PUSH	EDI
    78 000000AF E8 [00000000]                   	CALL	_memman_free_4k
    79 000000B4 83 C4 0C                        	ADD	ESP,12
    80 000000B7 EB E5                           	JMP	L3
    81 000000B9                                 	GLOBAL	_sheet_alloc
    82 000000B9                                 _sheet_alloc:
    83 000000B9 55                              	PUSH	EBP
    84 000000BA 31 D2                           	XOR	EDX,EDX
    85 000000BC 89 E5                           	MOV	EBP,ESP
    86 000000BE 8B 45 08                        	MOV	EAX,DWORD [8+EBP]
    87 000000C1 05 00000414                     	ADD	EAX,1044
    88 000000C6                                 L18:
    89 000000C6 83 78 1C 00                     	CMP	DWORD [28+EAX],0
    90 000000CA 74 10                           	JE	L21
    91 000000CC 42                              	INC	EDX
    92 000000CD 83 C0 28                        	ADD	EAX,40
    93 000000D0 81 FA 000000FF                  	CMP	EDX,255
    94 000000D6 7E EE                           	JLE	L18
    95 000000D8 31 C0                           	XOR	EAX,EAX
    96 000000DA                                 L12:
    97 000000DA 5D                              	POP	EBP
    98 000000DB C3                              	RET
    99 000000DC                                 L21:
   100 000000DC C7 40 1C 00000001               	MOV	DWORD [28+EAX],1
   101 000000E3 C7 40 18 FFFFFFFF               	MOV	DWORD [24+EAX],-1
   102 000000EA C7 40 24 00000000               	MOV	DWORD [36+EAX],0
   103 000000F1 EB E7                           	JMP	L12
   104 000000F3                                 	GLOBAL	_sheet_setbuf
   105 000000F3                                 _sheet_setbuf:
   106 000000F3 55                              	PUSH	EBP
   107 000000F4 89 E5                           	MOV	EBP,ESP
   108 000000F6 8B 55 08                        	MOV	EDX,DWORD [8+EBP]
   109 000000F9 8B 45 0C                        	MOV	EAX,DWORD [12+EBP]
   110 000000FC 89 02                           	MOV	DWORD [EDX],EAX
   111 000000FE 8B 45 10                        	MOV	EAX,DWORD [16+EBP]
   112 00000101 89 42 04                        	MOV	DWORD [4+EDX],EAX
   113 00000104 8B 45 14                        	MOV	EAX,DWORD [20+EBP]
   114 00000107 89 42 08                        	MOV	DWORD [8+EDX],EAX
   115 0000010A 8B 45 18                        	MOV	EAX,DWORD [24+EBP]
   116 0000010D 89 42 14                        	MOV	DWORD [20+EDX],EAX
   117 00000110 5D                              	POP	EBP
   118 00000111 C3                              	RET
   119 00000112                                 	GLOBAL	_sheet_refreshmap
   120 00000112                                 _sheet_refreshmap:
   121 00000112 55                              	PUSH	EBP
   122 00000113 89 E5                           	MOV	EBP,ESP
   123 00000115 57                              	PUSH	EDI
   124 00000116 56                              	PUSH	ESI
   125 00000117 53                              	PUSH	EBX
   126 00000118 83 EC 30                        	SUB	ESP,48
   127 0000011B 8B 45 08                        	MOV	EAX,DWORD [8+EBP]
   128 0000011E 83 7D 0C 00                     	CMP	DWORD [12+EBP],0
   129 00000122 8B 40 04                        	MOV	EAX,DWORD [4+EAX]
   130 00000125 89 45 D4                        	MOV	DWORD [-44+EBP],EAX
   131 00000128 0F 88 00000203                  	JS	L83
   132 0000012E                                 L24:
   133 0000012E 83 7D 10 00                     	CMP	DWORD [16+EBP],0
   134 00000132 0F 88 000001ED                  	JS	L84
   135 00000138                                 L25:
   136 00000138 8B 55 08                        	MOV	EDX,DWORD [8+EBP]
   137 0000013B 8B 42 08                        	MOV	EAX,DWORD [8+EDX]
   138 0000013E 39 45 14                        	CMP	DWORD [20+EBP],EAX
   139 00000141 7E 03                           	JLE	L26
   140 00000143 89 45 14                        	MOV	DWORD [20+EBP],EAX
   141 00000146                                 L26:
   142 00000146 8B 4D 08                        	MOV	ECX,DWORD [8+EBP]
   143 00000149 8B 41 0C                        	MOV	EAX,DWORD [12+ECX]
   144 0000014C 39 45 18                        	CMP	DWORD [24+EBP],EAX
   145 0000014F 7E 03                           	JLE	L27
   146 00000151 89 45 18                        	MOV	DWORD [24+EBP],EAX
   147 00000154                                 L27:
   148 00000154 8B 75 08                        	MOV	ESI,DWORD [8+EBP]
   149 00000157 8B 5D 1C                        	MOV	EBX,DWORD [28+EBP]
   150 0000015A 89 5D F0                        	MOV	DWORD [-16+EBP],EBX
   151 0000015D 3B 5E 10                        	CMP	EBX,DWORD [16+ESI]
   152 00000160 0F 8F 000000DA                  	JG	L73
   153 00000166                                 L71:
   154 00000166 8B 55 08                        	MOV	EDX,DWORD [8+EBP]
   155 00000169 8B 45 F0                        	MOV	EAX,DWORD [-16+EBP]
   156 0000016C 8B 75 18                        	MOV	ESI,DWORD [24+EBP]
   157 0000016F 8B 5D 14                        	MOV	EBX,DWORD [20+EBP]
   158 00000172 8B 7C 82 14                     	MOV	EDI,DWORD [20+EDX+EAX*4]
   159 00000176 89 F8                           	MOV	EAX,EDI
   160 00000178 29 D0                           	SUB	EAX,EDX
   161 0000017A 8B 0F                           	MOV	ECX,DWORD [EDI]
   162 0000017C 2D 00000414                     	SUB	EAX,1044
   163 00000181 89 4D DC                        	MOV	DWORD [-36+EBP],ECX
   164 00000184 C1 F8 03                        	SAR	EAX,3
   165 00000187 8B 4D 10                        	MOV	ECX,DWORD [16+EBP]
   166 0000018A 69 C0 CCCCCCCD                  	IMUL	EAX,EAX,-858993459
   167 00000190 88 45 DB                        	MOV	BYTE [-37+EBP],AL
   168 00000193 8B 57 0C                        	MOV	EDX,DWORD [12+EDI]
   169 00000196 8B 47 10                        	MOV	EAX,DWORD [16+EDI]
   170 00000199 29 D3                           	SUB	EBX,EDX
   171 0000019B 29 C6                           	SUB	ESI,EAX
   172 0000019D 29 C1                           	SUB	ECX,EAX
   173 0000019F 8B 45 0C                        	MOV	EAX,DWORD [12+EBP]
   174 000001A2 89 5D E8                        	MOV	DWORD [-24+EBP],EBX
   175 000001A5 29 D0                           	SUB	EAX,EDX
   176 000001A7 89 75 E4                        	MOV	DWORD [-28+EBP],ESI
   177 000001AA 89 45 EC                        	MOV	DWORD [-20+EBP],EAX
   178 000001AD 0F 88 00000166                  	JS	L85
   179 000001B3                                 L32:
   180 000001B3 85 C9                           	TEST	ECX,ECX
   181 000001B5 0F 88 00000157                  	JS	L86
   182 000001BB                                 L33:
   183 000001BB 8B 47 04                        	MOV	EAX,DWORD [4+EDI]
   184 000001BE 39 45 E8                        	CMP	DWORD [-24+EBP],EAX
   185 000001C1 7E 03                           	JLE	L34
   186 000001C3 89 45 E8                        	MOV	DWORD [-24+EBP],EAX
   187 000001C6                                 L34:
   188 000001C6 8B 47 08                        	MOV	EAX,DWORD [8+EDI]
   189 000001C9 39 45 E4                        	CMP	DWORD [-28+EBP],EAX
   190 000001CC 7E 03                           	JLE	L35
   191 000001CE 89 45 E4                        	MOV	DWORD [-28+EBP],EAX
   192 000001D1                                 L35:
   193 000001D1 83 7F 14 FF                     	CMP	DWORD [20+EDI],-1
   194 000001D5 74 71                           	JE	L87
   195 000001D7 89 CA                           	MOV	EDX,ECX
   196 000001D9 3B 4D E4                        	CMP	ECX,DWORD [-28+EBP]
   197 000001DC 7D 50                           	JGE	L30
   198 000001DE                                 L70:
   199 000001DE 8B 47 10                        	MOV	EAX,DWORD [16+EDI]
   200 000001E1 8B 4D EC                        	MOV	ECX,DWORD [-20+EBP]
   201 000001E4 01 D0                           	ADD	EAX,EDX
   202 000001E6 3B 4D E8                        	CMP	ECX,DWORD [-24+EBP]
   203 000001E9 89 45 C4                        	MOV	DWORD [-60+EBP],EAX
   204 000001EC 7D 3A                           	JGE	L82
   205 000001EE                                 L69:
   206 000001EE 89 D0                           	MOV	EAX,EDX
   207 000001F0 8B 5F 0C                        	MOV	EBX,DWORD [12+EDI]
   208 000001F3 0F AF 47 04                     	IMUL	EAX,DWORD [4+EDI]
   209 000001F7 01 CB                           	ADD	EBX,ECX
   210 000001F9 8B 75 DC                        	MOV	ESI,DWORD [-36+EBP]
   211 000001FC 01 C8                           	ADD	EAX,ECX
   212 000001FE 89 5D C8                        	MOV	DWORD [-56+EBP],EBX
   213 00000201 0F B6 34 30                     	MOVZX	ESI,BYTE [EAX+ESI*1]
   214 00000205 3B 77 14                        	CMP	ESI,DWORD [20+EDI]
   215 00000208 74 18                           	JE	L66
   216 0000020A 8B 45 08                        	MOV	EAX,DWORD [8+EBP]
   217 0000020D 8B 5D C4                        	MOV	EBX,DWORD [-60+EBP]
   218 00000210 8B 75 C8                        	MOV	ESI,DWORD [-56+EBP]
   219 00000213 0F AF 58 08                     	IMUL	EBX,DWORD [8+EAX]
   220 00000217 01 DE                           	ADD	ESI,EBX
   221 00000219 8A 45 DB                        	MOV	AL,BYTE [-37+EBP]
   222 0000021C 8B 5D D4                        	MOV	EBX,DWORD [-44+EBP]
   223 0000021F 88 04 1E                        	MOV	BYTE [ESI+EBX*1],AL
   224 00000222                                 L66:
   225 00000222 41                              	INC	ECX
   226 00000223 3B 4D E8                        	CMP	ECX,DWORD [-24+EBP]
   227 00000226 7C C6                           	JL	L69
   228 00000228                                 L82:
   229 00000228 42                              	INC	EDX
   230 00000229 3B 55 E4                        	CMP	EDX,DWORD [-28+EBP]
   231 0000022C 7C B0                           	JL	L70
   232 0000022E                                 L30:
   233 0000022E 8B 45 08                        	MOV	EAX,DWORD [8+EBP]
   234 00000231 FF 45 F0                        	INC	DWORD [-16+EBP]
   235 00000234 8B 75 F0                        	MOV	ESI,DWORD [-16+EBP]
   236 00000237 3B 70 10                        	CMP	ESI,DWORD [16+EAX]
   237 0000023A 0F 8E FFFFFF26                  	JLE	L71
   238 00000240                                 L73:
   239 00000240 83 C4 30                        	ADD	ESP,48
   240 00000243 5B                              	POP	EBX
   241 00000244 5E                              	POP	ESI
   242 00000245 5F                              	POP	EDI
   243 00000246 5D                              	POP	EBP
   244 00000247 C3                              	RET
   245 00000248                                 L87:
   246 00000248 83 E2 03                        	AND	EDX,3
   247 0000024B 75 7F                           	JNE	L37
   248 0000024D F7 45 EC 00000003               	TEST	DWORD [-20+EBP],3
   249 00000254 75 76                           	JNE	L37
   250 00000256 F7 45 E8 00000003               	TEST	DWORD [-24+EBP],3
   251 0000025D 75 6D                           	JNE	L37
   252 0000025F 8B 55 EC                        	MOV	EDX,DWORD [-20+EBP]
   253 00000262 29 55 E8                        	SUB	DWORD [-24+EBP],EDX
   254 00000265 BA 00000004                     	MOV	EDX,4
   255 0000026A 89 D3                           	MOV	EBX,EDX
   256 0000026C 8B 45 E8                        	MOV	EAX,DWORD [-24+EBP]
   257 0000026F 99                              	CDQ
   258 00000270 F7 FB                           	IDIV	EBX
   259 00000272 89 45 D0                        	MOV	DWORD [-48+EBP],EAX
   260 00000275 89 CA                           	MOV	EDX,ECX
   261 00000277 0F B6 45 DB                     	MOVZX	EAX,BYTE [-37+EBP]
   262 0000027B 89 C6                           	MOV	ESI,EAX
   263 0000027D C1 E6 08                        	SAL	ESI,8
   264 00000280 09 C6                           	OR	ESI,EAX
   265 00000282 C1 E0 10                        	SAL	EAX,16
   266 00000285 09 C6                           	OR	ESI,EAX
   267 00000287 C1 E0 08                        	SAL	EAX,8
   268 0000028A 09 C6                           	OR	ESI,EAX
   269 0000028C 3B 4D E4                        	CMP	ECX,DWORD [-28+EBP]
   270 0000028F 89 75 E0                        	MOV	DWORD [-32+EBP],ESI
   271 00000292 7D 9A                           	JGE	L30
   272 00000294                                 L47:
   273 00000294 8B 47 10                        	MOV	EAX,DWORD [16+EDI]
   274 00000297 8B 5D 08                        	MOV	EBX,DWORD [8+EBP]
   275 0000029A 01 D0                           	ADD	EAX,EDX
   276 0000029C 8B 4D EC                        	MOV	ECX,DWORD [-20+EBP]
   277 0000029F 0F AF 43 08                     	IMUL	EAX,DWORD [8+EBX]
   278 000002A3 03 4F 0C                        	ADD	ECX,DWORD [12+EDI]
   279 000002A6 89 45 C4                        	MOV	DWORD [-60+EBP],EAX
   280 000002A9 01 C8                           	ADD	EAX,ECX
   281 000002AB 31 C9                           	XOR	ECX,ECX
   282 000002AD 03 45 D4                        	ADD	EAX,DWORD [-44+EBP]
   283 000002B0 3B 4D D0                        	CMP	ECX,DWORD [-48+EBP]
   284 000002B3 7D 0C                           	JGE	L76
   285 000002B5                                 L46:
   286 000002B5 8B 75 E0                        	MOV	ESI,DWORD [-32+EBP]
   287 000002B8 89 34 88                        	MOV	DWORD [EAX+ECX*4],ESI
   288 000002BB 41                              	INC	ECX
   289 000002BC 3B 4D D0                        	CMP	ECX,DWORD [-48+EBP]
   290 000002BF 7C F4                           	JL	L46
   291 000002C1                                 L76:
   292 000002C1 42                              	INC	EDX
   293 000002C2 3B 55 E4                        	CMP	EDX,DWORD [-28+EBP]
   294 000002C5 7C CD                           	JL	L47
   295 000002C7 E9 FFFFFF62                     	JMP	L30
   296 000002CC                                 L37:
   297 000002CC 89 CA                           	MOV	EDX,ECX
   298 000002CE 3B 4D E4                        	CMP	ECX,DWORD [-28+EBP]
   299 000002D1 0F 8D FFFFFF57                  	JGE	L30
   300 000002D7                                 L58:
   301 000002D7 8B 47 10                        	MOV	EAX,DWORD [16+EDI]
   302 000002DA 8B 4D EC                        	MOV	ECX,DWORD [-20+EBP]
   303 000002DD 01 D0                           	ADD	EAX,EDX
   304 000002DF 3B 4D E8                        	CMP	ECX,DWORD [-24+EBP]
   305 000002E2 89 45 C4                        	MOV	DWORD [-60+EBP],EAX
   306 000002E5 7D 20                           	JGE	L79
   307 000002E7                                 L57:
   308 000002E7 8B 75 08                        	MOV	ESI,DWORD [8+EBP]
   309 000002EA 8B 45 C4                        	MOV	EAX,DWORD [-60+EBP]
   310 000002ED 8B 5F 0C                        	MOV	EBX,DWORD [12+EDI]
   311 000002F0 0F AF 46 08                     	IMUL	EAX,DWORD [8+ESI]
   312 000002F4 01 CB                           	ADD	EBX,ECX
   313 000002F6 8B 75 D4                        	MOV	ESI,DWORD [-44+EBP]
   314 000002F9 01 C3                           	ADD	EBX,EAX
   315 000002FB 41                              	INC	ECX
   316 000002FC 8A 45 DB                        	MOV	AL,BYTE [-37+EBP]
   317 000002FF 88 04 33                        	MOV	BYTE [EBX+ESI*1],AL
   318 00000302 3B 4D E8                        	CMP	ECX,DWORD [-24+EBP]
   319 00000305 7C E0                           	JL	L57
   320 00000307                                 L79:
   321 00000307 42                              	INC	EDX
   322 00000308 3B 55 E4                        	CMP	EDX,DWORD [-28+EBP]
   323 0000030B 7C CA                           	JL	L58
   324 0000030D E9 FFFFFF1C                     	JMP	L30
   325 00000312                                 L86:
   326 00000312 31 C9                           	XOR	ECX,ECX
   327 00000314 E9 FFFFFEA2                     	JMP	L33
   328 00000319                                 L85:
   329 00000319 C7 45 EC 00000000               	MOV	DWORD [-20+EBP],0
   330 00000320 E9 FFFFFE8E                     	JMP	L32
   331 00000325                                 L84:
   332 00000325 C7 45 10 00000000               	MOV	DWORD [16+EBP],0
   333 0000032C E9 FFFFFE07                     	JMP	L25
   334 00000331                                 L83:
   335 00000331 C7 45 0C 00000000               	MOV	DWORD [12+EBP],0
   336 00000338 E9 FFFFFDF1                     	JMP	L24
   337 0000033D                                 	GLOBAL	_sheet_refreshsub
   338 0000033D                                 _sheet_refreshsub:
   339 0000033D 55                              	PUSH	EBP
   340 0000033E 89 E5                           	MOV	EBP,ESP
   341 00000340 57                              	PUSH	EDI
   342 00000341 56                              	PUSH	ESI
   343 00000342 53                              	PUSH	EBX
   344 00000343 83 EC 54                        	SUB	ESP,84
   345 00000346 8B 45 08                        	MOV	EAX,DWORD [8+EBP]
   346 00000349 8B 55 08                        	MOV	EDX,DWORD [8+EBP]
   347 0000034C 83 7D 0C 00                     	CMP	DWORD [12+EBP],0
   348 00000350 8B 00                           	MOV	EAX,DWORD [EAX]
   349 00000352 8B 52 04                        	MOV	EDX,DWORD [4+EDX]
   350 00000355 89 45 C4                        	MOV	DWORD [-60+EBP],EAX
   351 00000358 89 55 C0                        	MOV	DWORD [-64+EBP],EDX
   352 0000035B 0F 88 000003B2                  	JS	L155
   353 00000361                                 L89:
   354 00000361 83 7D 10 00                     	CMP	DWORD [16+EBP],0
   355 00000365 0F 88 0000039C                  	JS	L156
   356 0000036B                                 L90:
   357 0000036B 8B 4D 08                        	MOV	ECX,DWORD [8+EBP]
   358 0000036E 8B 41 08                        	MOV	EAX,DWORD [8+ECX]
   359 00000371 39 45 14                        	CMP	DWORD [20+EBP],EAX
   360 00000374 7E 03                           	JLE	L91
   361 00000376 89 45 14                        	MOV	DWORD [20+EBP],EAX
   362 00000379                                 L91:
   363 00000379 8B 5D 08                        	MOV	EBX,DWORD [8+EBP]
   364 0000037C 8B 43 0C                        	MOV	EAX,DWORD [12+EBX]
   365 0000037F 39 45 18                        	CMP	DWORD [24+EBP],EAX
   366 00000382 7E 03                           	JLE	L92
   367 00000384 89 45 18                        	MOV	DWORD [24+EBP],EAX
   368 00000387                                 L92:
   369 00000387 8B 75 1C                        	MOV	ESI,DWORD [28+EBP]
   370 0000038A 8B 45 20                        	MOV	EAX,DWORD [32+EBP]
   371 0000038D 89 75 F0                        	MOV	DWORD [-16+EBP],ESI
   372 00000390 39 C6                           	CMP	ESI,EAX
   373 00000392 0F 8F 0000023B                  	JG	L145
   374 00000398                                 L143:
   375 00000398 8B 4D 08                        	MOV	ECX,DWORD [8+EBP]
   376 0000039B 8B 55 F0                        	MOV	EDX,DWORD [-16+EBP]
   377 0000039E 8B 75 14                        	MOV	ESI,DWORD [20+EBP]
   378 000003A1 8B 7C 91 14                     	MOV	EDI,DWORD [20+ECX+EDX*4]
   379 000003A5 89 F8                           	MOV	EAX,EDI
   380 000003A7 29 C8                           	SUB	EAX,ECX
   381 000003A9 8B 57 0C                        	MOV	EDX,DWORD [12+EDI]
   382 000003AC 2D 00000414                     	SUB	EAX,1044
   383 000003B1 29 D6                           	SUB	ESI,EDX
   384 000003B3 C1 F8 03                        	SAR	EAX,3
   385 000003B6 8B 1F                           	MOV	EBX,DWORD [EDI]
   386 000003B8 69 C0 CCCCCCCD                  	IMUL	EAX,EAX,-858993459
   387 000003BE 89 5D C8                        	MOV	DWORD [-56+EBP],EBX
   388 000003C1 8B 4D 10                        	MOV	ECX,DWORD [16+EBP]
   389 000003C4 88 45 BF                        	MOV	BYTE [-65+EBP],AL
   390 000003C7 89 75 E4                        	MOV	DWORD [-28+EBP],ESI
   391 000003CA 8B 47 10                        	MOV	EAX,DWORD [16+EDI]
   392 000003CD 8B 5D 18                        	MOV	EBX,DWORD [24+EBP]
   393 000003D0 8B 75 0C                        	MOV	ESI,DWORD [12+EBP]
   394 000003D3 29 C3                           	SUB	EBX,EAX
   395 000003D5 29 C1                           	SUB	ECX,EAX
   396 000003D7 89 5D E0                        	MOV	DWORD [-32+EBP],EBX
   397 000003DA 29 D6                           	SUB	ESI,EDX
   398 000003DC 89 75 E8                        	MOV	DWORD [-24+EBP],ESI
   399 000003DF 0F 88 00000316                  	JS	L157
   400 000003E5                                 L97:
   401 000003E5 85 C9                           	TEST	ECX,ECX
   402 000003E7 0F 88 00000307                  	JS	L158
   403 000003ED                                 L98:
   404 000003ED 8B 47 04                        	MOV	EAX,DWORD [4+EDI]
   405 000003F0 39 45 E4                        	CMP	DWORD [-28+EBP],EAX
   406 000003F3 7E 03                           	JLE	L99
   407 000003F5 89 45 E4                        	MOV	DWORD [-28+EBP],EAX
   408 000003F8                                 L99:
   409 000003F8 8B 47 08                        	MOV	EAX,DWORD [8+EDI]
   410 000003FB 39 45 E0                        	CMP	DWORD [-32+EBP],EAX
   411 000003FE 7E 03                           	JLE	L100
   412 00000400 89 45 E0                        	MOV	DWORD [-32+EBP],EAX
   413 00000403                                 L100:
   414 00000403 83 E2 03                        	AND	EDX,3
   415 00000406 0F 85 00000286                  	JNE	L101
   416 0000040C 8B 55 E8                        	MOV	EDX,DWORD [-24+EBP]
   417 0000040F BB 00000004                     	MOV	EBX,4
   418 00000414 83 C2 03                        	ADD	EDX,3
   419 00000417 89 D0                           	MOV	EAX,EDX
   420 00000419 99                              	CDQ
   421 0000041A F7 FB                           	IDIV	EBX
   422 0000041C 89 45 A4                        	MOV	DWORD [-92+EBP],EAX
   423 0000041F 8B 45 E4                        	MOV	EAX,DWORD [-28+EBP]
   424 00000422 99                              	CDQ
   425 00000423 F7 FB                           	IDIV	EBX
   426 00000425 8B 55 A4                        	MOV	EDX,DWORD [-92+EBP]
   427 00000428 29 D0                           	SUB	EAX,EDX
   428 0000042A 89 45 D8                        	MOV	DWORD [-40+EBP],EAX
   429 0000042D 0F B6 45 BF                     	MOVZX	EAX,BYTE [-65+EBP]
   430 00000431 89 C3                           	MOV	EBX,EAX
   431 00000433 C1 E3 08                        	SAL	EBX,8
   432 00000436 09 C3                           	OR	EBX,EAX
   433 00000438 C1 E0 10                        	SAL	EAX,16
   434 0000043B 09 C3                           	OR	EBX,EAX
   435 0000043D C1 E0 08                        	SAL	EAX,8
   436 00000440 09 C3                           	OR	EBX,EAX
   437 00000442 3B 4D E0                        	CMP	ECX,DWORD [-32+EBP]
   438 00000445 89 5D DC                        	MOV	DWORD [-36+EBP],EBX
   439 00000448 89 CB                           	MOV	EBX,ECX
   440 0000044A 0F 8D 00000174                  	JGE	L95
   441 00000450                                 L130:
   442 00000450 8B 77 10                        	MOV	ESI,DWORD [16+EDI]
   443 00000453 8B 55 E8                        	MOV	EDX,DWORD [-24+EBP]
   444 00000456 01 DE                           	ADD	ESI,EBX
   445 00000458 3B 55 E4                        	CMP	EDX,DWORD [-28+EBP]
   446 0000045B 89 75 EC                        	MOV	DWORD [-20+EBP],ESI
   447 0000045E 7D 3D                           	JGE	L107
   448 00000460 F7 C2 00000003                  	TEST	EDX,3
   449 00000466 74 35                           	JE	L107
   450 00000468                                 L112:
   451 00000468 8B 47 0C                        	MOV	EAX,DWORD [12+EDI]
   452 0000046B 8B 4D 08                        	MOV	ECX,DWORD [8+EBP]
   453 0000046E 01 D0                           	ADD	EAX,EDX
   454 00000470 89 45 A8                        	MOV	DWORD [-88+EBP],EAX
   455 00000473 8B 45 EC                        	MOV	EAX,DWORD [-20+EBP]
   456 00000476 0F AF 41 08                     	IMUL	EAX,DWORD [8+ECX]
   457 0000047A 8B 75 A8                        	MOV	ESI,DWORD [-88+EBP]
   458 0000047D 8D 0C 06                        	LEA	ECX,DWORD [ESI+EAX*1]
   459 00000480 8B 75 C0                        	MOV	ESI,DWORD [-64+EBP]
   460 00000483 8A 45 BF                        	MOV	AL,BYTE [-65+EBP]
   461 00000486 38 04 31                        	CMP	BYTE [ECX+ESI*1],AL
   462 00000489 0F 84 000001EA                  	JE	L159
   463 0000048F                                 L108:
   464 0000048F 42                              	INC	EDX
   465 00000490 3B 55 E4                        	CMP	EDX,DWORD [-28+EBP]
   466 00000493 7D 08                           	JGE	L107
   467 00000495 F7 C2 00000003                  	TEST	EDX,3
   468 0000049B 75 CB                           	JNE	L112
   469 0000049D                                 L107:
   470 0000049D 8B 47 0C                        	MOV	EAX,DWORD [12+EDI]
   471 000004A0 8B 4D 08                        	MOV	ECX,DWORD [8+EBP]
   472 000004A3 01 D0                           	ADD	EAX,EDX
   473 000004A5 8B 75 C0                        	MOV	ESI,DWORD [-64+EBP]
   474 000004A8 89 45 A8                        	MOV	DWORD [-88+EBP],EAX
   475 000004AB 8B 45 EC                        	MOV	EAX,DWORD [-20+EBP]
   476 000004AE 0F AF 41 08                     	IMUL	EAX,DWORD [8+ECX]
   477 000004B2 03 45 A8                        	ADD	EAX,DWORD [-88+EBP]
   478 000004B5 01 C6                           	ADD	ESI,EAX
   479 000004B7 03 45 C4                        	ADD	EAX,DWORD [-60+EBP]
   480 000004BA 89 75 D4                        	MOV	DWORD [-44+EBP],ESI
   481 000004BD 89 45 D0                        	MOV	DWORD [-48+EBP],EAX
   482 000004C0 89 D8                           	MOV	EAX,EBX
   483 000004C2 0F AF 47 04                     	IMUL	EAX,DWORD [4+EDI]
   484 000004C6 01 D0                           	ADD	EAX,EDX
   485 000004C8 03 45 C8                        	ADD	EAX,DWORD [-56+EBP]
   486 000004CB C7 45 A4 00000000               	MOV	DWORD [-92+EBP],0
   487 000004D2 89 45 CC                        	MOV	DWORD [-52+EBP],EAX
   488 000004D5 8B 45 D8                        	MOV	EAX,DWORD [-40+EBP]
   489 000004D8 39 45 A4                        	CMP	DWORD [-92+EBP],EAX
   490 000004DB 0F 8D 000000AB                  	JGE	L149
   491 000004E1 89 55 AC                        	MOV	DWORD [-84+EBP],EDX
   492 000004E4                                 L123:
   493 000004E4 8B 4D A4                        	MOV	ECX,DWORD [-92+EBP]
   494 000004E7 8B 75 D4                        	MOV	ESI,DWORD [-44+EBP]
   495 000004EA 8B 45 DC                        	MOV	EAX,DWORD [-36+EBP]
   496 000004ED 39 04 8E                        	CMP	DWORD [ESI+ECX*4],EAX
   497 000004F0 0F 84 00000172                  	JE	L160
   498 000004F6 8B 4D 08                        	MOV	ECX,DWORD [8+EBP]
   499 000004F9 8B 75 EC                        	MOV	ESI,DWORD [-20+EBP]
   500 000004FC 8B 45 AC                        	MOV	EAX,DWORD [-84+EBP]
   501 000004FF 0F AF 71 08                     	IMUL	ESI,DWORD [8+ECX]
   502 00000503 03 47 0C                        	ADD	EAX,DWORD [12+EDI]
   503 00000506 8B 4D C0                        	MOV	ECX,DWORD [-64+EBP]
   504 00000509 01 C6                           	ADD	ESI,EAX
   505 0000050B 89 45 A8                        	MOV	DWORD [-88+EBP],EAX
   506 0000050E 89 75 B8                        	MOV	DWORD [-72+EBP],ESI
   507 00000511 8A 45 BF                        	MOV	AL,BYTE [-65+EBP]
   508 00000514 38 04 0E                        	CMP	BYTE [ESI+ECX*1],AL
   509 00000517 0F 84 0000012E                  	JE	L161
   510 0000051D                                 L119:
   511 0000051D 8B 4D 08                        	MOV	ECX,DWORD [8+EBP]
   512 00000520 8B 45 EC                        	MOV	EAX,DWORD [-20+EBP]
   513 00000523 8B 75 C0                        	MOV	ESI,DWORD [-64+EBP]
   514 00000526 0F AF 41 08                     	IMUL	EAX,DWORD [8+ECX]
   515 0000052A 03 45 A8                        	ADD	EAX,DWORD [-88+EBP]
   516 0000052D 8A 4D BF                        	MOV	CL,BYTE [-65+EBP]
   517 00000530 89 45 B4                        	MOV	DWORD [-76+EBP],EAX
   518 00000533 38 4C 30 01                     	CMP	BYTE [1+EAX+ESI*1],CL
   519 00000537 0F 84 000000EF                  	JE	L162
   520 0000053D                                 L120:
   521 0000053D 8B 75 08                        	MOV	ESI,DWORD [8+EBP]
   522 00000540 8B 45 EC                        	MOV	EAX,DWORD [-20+EBP]
   523 00000543 8A 4D BF                        	MOV	CL,BYTE [-65+EBP]
   524 00000546 0F AF 46 08                     	IMUL	EAX,DWORD [8+ESI]
   525 0000054A 03 45 A8                        	ADD	EAX,DWORD [-88+EBP]
   526 0000054D 8B 75 C0                        	MOV	ESI,DWORD [-64+EBP]
   527 00000550 89 45 B0                        	MOV	DWORD [-80+EBP],EAX
   528 00000553 38 4C 30 02                     	CMP	BYTE [2+EAX+ESI*1],CL
   529 00000557 0F 84 000000B0                  	JE	L163
   530 0000055D                                 L121:
   531 0000055D 8B 75 08                        	MOV	ESI,DWORD [8+EBP]
   532 00000560 8B 45 EC                        	MOV	EAX,DWORD [-20+EBP]
   533 00000563 0F AF 46 08                     	IMUL	EAX,DWORD [8+ESI]
   534 00000567 8B 75 A8                        	MOV	ESI,DWORD [-88+EBP]
   535 0000056A 8D 0C 06                        	LEA	ECX,DWORD [ESI+EAX*1]
   536 0000056D 8B 75 C0                        	MOV	ESI,DWORD [-64+EBP]
   537 00000570 8A 45 BF                        	MOV	AL,BYTE [-65+EBP]
   538 00000573 38 44 31 03                     	CMP	BYTE [3+ECX+ESI*1],AL
   539 00000577 74 78                           	JE	L164
   540 00000579                                 L115:
   541 00000579 8B 45 D8                        	MOV	EAX,DWORD [-40+EBP]
   542 0000057C FF 45 A4                        	INC	DWORD [-92+EBP]
   543 0000057F 83 45 AC 04                     	ADD	DWORD [-84+EBP],4
   544 00000583 39 45 A4                        	CMP	DWORD [-92+EBP],EAX
   545 00000586 0F 8C FFFFFF58                  	JL	L123
   546 0000058C                                 L149:
   547 0000058C 8B 4D D8                        	MOV	ECX,DWORD [-40+EBP]
   548 0000058F 8D 14 8A                        	LEA	EDX,DWORD [EDX+ECX*4]
   549 00000592 3B 55 E4                        	CMP	EDX,DWORD [-28+EBP]
   550 00000595 7D 23                           	JGE	L151
   551 00000597                                 L129:
   552 00000597 8B 4D 08                        	MOV	ECX,DWORD [8+EBP]
   553 0000059A 8B 45 EC                        	MOV	EAX,DWORD [-20+EBP]
   554 0000059D 8B 77 0C                        	MOV	ESI,DWORD [12+EDI]
   555 000005A0 0F AF 41 08                     	IMUL	EAX,DWORD [8+ECX]
   556 000005A4 01 D6                           	ADD	ESI,EDX
   557 000005A6 8D 0C 06                        	LEA	ECX,DWORD [ESI+EAX*1]
   558 000005A9 8B 75 C0                        	MOV	ESI,DWORD [-64+EBP]
   559 000005AC 8A 45 BF                        	MOV	AL,BYTE [-65+EBP]
   560 000005AF 38 04 31                        	CMP	BYTE [ECX+ESI*1],AL
   561 000005B2 74 27                           	JE	L165
   562 000005B4                                 L126:
   563 000005B4 42                              	INC	EDX
   564 000005B5 3B 55 E4                        	CMP	EDX,DWORD [-28+EBP]
   565 000005B8 7C DD                           	JL	L129
   566 000005BA                                 L151:
   567 000005BA 43                              	INC	EBX
   568 000005BB 3B 5D E0                        	CMP	EBX,DWORD [-32+EBP]
   569 000005BE 0F 8C FFFFFE8C                  	JL	L130
   570 000005C4                                 L95:
   571 000005C4 8B 45 20                        	MOV	EAX,DWORD [32+EBP]
   572 000005C7 FF 45 F0                        	INC	DWORD [-16+EBP]
   573 000005CA 39 45 F0                        	CMP	DWORD [-16+EBP],EAX
   574 000005CD 0F 8E FFFFFDC5                  	JLE	L143
   575 000005D3                                 L145:
   576 000005D3 83 C4 54                        	ADD	ESP,84
   577 000005D6 5B                              	POP	EBX
   578 000005D7 5E                              	POP	ESI
   579 000005D8 5F                              	POP	EDI
   580 000005D9 5D                              	POP	EBP
   581 000005DA C3                              	RET
   582 000005DB                                 L165:
   583 000005DB 89 D8                           	MOV	EAX,EBX
   584 000005DD 8B 75 C8                        	MOV	ESI,DWORD [-56+EBP]
   585 000005E0 0F AF 47 04                     	IMUL	EAX,DWORD [4+EDI]
   586 000005E4 01 D0                           	ADD	EAX,EDX
   587 000005E6 8A 04 30                        	MOV	AL,BYTE [EAX+ESI*1]
   588 000005E9 8B 75 C4                        	MOV	ESI,DWORD [-60+EBP]
   589 000005EC 88 04 31                        	MOV	BYTE [ECX+ESI*1],AL
   590 000005EF EB C3                           	JMP	L126
   591 000005F1                                 L164:
   592 000005F1 89 D8                           	MOV	EAX,EBX
   593 000005F3 8B 75 C8                        	MOV	ESI,DWORD [-56+EBP]
   594 000005F6 0F AF 47 04                     	IMUL	EAX,DWORD [4+EDI]
   595 000005FA 03 45 AC                        	ADD	EAX,DWORD [-84+EBP]
   596 000005FD 8A 44 30 03                     	MOV	AL,BYTE [3+EAX+ESI*1]
   597 00000601 8B 75 C4                        	MOV	ESI,DWORD [-60+EBP]
   598 00000604 88 44 31 03                     	MOV	BYTE [3+ECX+ESI*1],AL
   599 00000608 E9 FFFFFF6C                     	JMP	L115
   600 0000060D                                 L163:
   601 0000060D 89 D8                           	MOV	EAX,EBX
   602 0000060F 8B 4D C8                        	MOV	ECX,DWORD [-56+EBP]
   603 00000612 0F AF 47 04                     	IMUL	EAX,DWORD [4+EDI]
   604 00000616 03 45 AC                        	ADD	EAX,DWORD [-84+EBP]
   605 00000619 8B 75 C4                        	MOV	ESI,DWORD [-60+EBP]
   606 0000061C 8A 44 08 02                     	MOV	AL,BYTE [2+EAX+ECX*1]
   607 00000620 8B 4D B0                        	MOV	ECX,DWORD [-80+EBP]
   608 00000623 88 44 31 02                     	MOV	BYTE [2+ECX+ESI*1],AL
   609 00000627 E9 FFFFFF31                     	JMP	L121
   610 0000062C                                 L162:
   611 0000062C 89 D8                           	MOV	EAX,EBX
   612 0000062E 8B 4D C8                        	MOV	ECX,DWORD [-56+EBP]
   613 00000631 0F AF 47 04                     	IMUL	EAX,DWORD [4+EDI]
   614 00000635 03 45 AC                        	ADD	EAX,DWORD [-84+EBP]
   615 00000638 8B 75 C4                        	MOV	ESI,DWORD [-60+EBP]
   616 0000063B 8A 44 08 01                     	MOV	AL,BYTE [1+EAX+ECX*1]
   617 0000063F 8B 4D B4                        	MOV	ECX,DWORD [-76+EBP]
   618 00000642 88 44 31 01                     	MOV	BYTE [1+ECX+ESI*1],AL
   619 00000646 E9 FFFFFEF2                     	JMP	L120
   620 0000064B                                 L161:
   621 0000064B 89 D8                           	MOV	EAX,EBX
   622 0000064D 8B 75 C8                        	MOV	ESI,DWORD [-56+EBP]
   623 00000650 0F AF 47 04                     	IMUL	EAX,DWORD [4+EDI]
   624 00000654 03 45 AC                        	ADD	EAX,DWORD [-84+EBP]
   625 00000657 8B 4D C4                        	MOV	ECX,DWORD [-60+EBP]
   626 0000065A 8A 04 30                        	MOV	AL,BYTE [EAX+ESI*1]
   627 0000065D 8B 75 B8                        	MOV	ESI,DWORD [-72+EBP]
   628 00000660 88 04 0E                        	MOV	BYTE [ESI+ECX*1],AL
   629 00000663 E9 FFFFFEB5                     	JMP	L119
   630 00000668                                 L160:
   631 00000668 8B 75 CC                        	MOV	ESI,DWORD [-52+EBP]
   632 0000066B 8B 04 8E                        	MOV	EAX,DWORD [ESI+ECX*4]
   633 0000066E 8B 75 D0                        	MOV	ESI,DWORD [-48+EBP]
   634 00000671 89 04 8E                        	MOV	DWORD [ESI+ECX*4],EAX
   635 00000674 E9 FFFFFF00                     	JMP	L115
   636 00000679                                 L159:
   637 00000679 89 D8                           	MOV	EAX,EBX
   638 0000067B 8B 75 C8                        	MOV	ESI,DWORD [-56+EBP]
   639 0000067E 0F AF 47 04                     	IMUL	EAX,DWORD [4+EDI]
   640 00000682 01 D0                           	ADD	EAX,EDX
   641 00000684 8A 04 30                        	MOV	AL,BYTE [EAX+ESI*1]
   642 00000687 8B 75 C4                        	MOV	ESI,DWORD [-60+EBP]
   643 0000068A 88 04 31                        	MOV	BYTE [ECX+ESI*1],AL
   644 0000068D E9 FFFFFDFD                     	JMP	L108
   645 00000692                                 L101:
   646 00000692 89 CB                           	MOV	EBX,ECX
   647 00000694 3B 4D E0                        	CMP	ECX,DWORD [-32+EBP]
   648 00000697 0F 8D FFFFFF27                  	JGE	L95
   649 0000069D                                 L142:
   650 0000069D 8B 47 10                        	MOV	EAX,DWORD [16+EDI]
   651 000006A0 8B 55 E8                        	MOV	EDX,DWORD [-24+EBP]
   652 000006A3 01 D8                           	ADD	EAX,EBX
   653 000006A5 3B 55 E4                        	CMP	EDX,DWORD [-28+EBP]
   654 000006A8 89 45 EC                        	MOV	DWORD [-20+EBP],EAX
   655 000006AB 7D 26                           	JGE	L154
   656 000006AD                                 L141:
   657 000006AD 8B 75 08                        	MOV	ESI,DWORD [8+EBP]
   658 000006B0 8B 45 EC                        	MOV	EAX,DWORD [-20+EBP]
   659 000006B3 8B 4F 0C                        	MOV	ECX,DWORD [12+EDI]
   660 000006B6 0F AF 46 08                     	IMUL	EAX,DWORD [8+ESI]
   661 000006BA 01 D1                           	ADD	ECX,EDX
   662 000006BC 8B 75 C0                        	MOV	ESI,DWORD [-64+EBP]
   663 000006BF 89 4D A8                        	MOV	DWORD [-88+EBP],ECX
   664 000006C2 8D 0C 01                        	LEA	ECX,DWORD [ECX+EAX*1]
   665 000006C5 8A 45 BF                        	MOV	AL,BYTE [-65+EBP]
   666 000006C8 38 04 31                        	CMP	BYTE [ECX+ESI*1],AL
   667 000006CB 74 11                           	JE	L166
   668 000006CD                                 L138:
   669 000006CD 42                              	INC	EDX
   670 000006CE 3B 55 E4                        	CMP	EDX,DWORD [-28+EBP]
   671 000006D1 7C DA                           	JL	L141
   672 000006D3                                 L154:
   673 000006D3 43                              	INC	EBX
   674 000006D4 3B 5D E0                        	CMP	EBX,DWORD [-32+EBP]
   675 000006D7 7C C4                           	JL	L142
   676 000006D9 E9 FFFFFEE6                     	JMP	L95
   677 000006DE                                 L166:
   678 000006DE 89 D8                           	MOV	EAX,EBX
   679 000006E0 8B 75 C8                        	MOV	ESI,DWORD [-56+EBP]
   680 000006E3 0F AF 47 04                     	IMUL	EAX,DWORD [4+EDI]
   681 000006E7 01 D0                           	ADD	EAX,EDX
   682 000006E9 8A 04 30                        	MOV	AL,BYTE [EAX+ESI*1]
   683 000006EC 8B 75 C4                        	MOV	ESI,DWORD [-60+EBP]
   684 000006EF 88 04 31                        	MOV	BYTE [ECX+ESI*1],AL
   685 000006F2 EB D9                           	JMP	L138
   686 000006F4                                 L158:
   687 000006F4 31 C9                           	XOR	ECX,ECX
   688 000006F6 E9 FFFFFCF2                     	JMP	L98
   689 000006FB                                 L157:
   690 000006FB C7 45 E8 00000000               	MOV	DWORD [-24+EBP],0
   691 00000702 E9 FFFFFCDE                     	JMP	L97
   692 00000707                                 L156:
   693 00000707 C7 45 10 00000000               	MOV	DWORD [16+EBP],0
   694 0000070E E9 FFFFFC58                     	JMP	L90
   695 00000713                                 L155:
   696 00000713 C7 45 0C 00000000               	MOV	DWORD [12+EBP],0
   697 0000071A E9 FFFFFC42                     	JMP	L89
   698 0000071F                                 	GLOBAL	_sheet_updown
   699 0000071F                                 _sheet_updown:
   700 0000071F 55                              	PUSH	EBP
   701 00000720 89 E5                           	MOV	EBP,ESP
   702 00000722 57                              	PUSH	EDI
   703 00000723 56                              	PUSH	ESI
   704 00000724 53                              	PUSH	EBX
   705 00000725 50                              	PUSH	EAX
   706 00000726 8B 7D 08                        	MOV	EDI,DWORD [8+EBP]
   707 00000729 8B 5D 0C                        	MOV	EBX,DWORD [12+EBP]
   708 0000072C 8B 77 20                        	MOV	ESI,DWORD [32+EDI]
   709 0000072F 8B 47 18                        	MOV	EAX,DWORD [24+EDI]
   710 00000732 89 45 F0                        	MOV	DWORD [-16+EBP],EAX
   711 00000735 8B 46 10                        	MOV	EAX,DWORD [16+ESI]
   712 00000738 40                              	INC	EAX
   713 00000739 39 C3                           	CMP	EBX,EAX
   714 0000073B 7E 02                           	JLE	L168
   715 0000073D 89 C3                           	MOV	EBX,EAX
   716 0000073F                                 L168:
   717 0000073F 83 FB FF                        	CMP	EBX,-1
   718 00000742 7D 03                           	JGE	L169
   719 00000744 83 CB FF                        	OR	EBX,-1
   720 00000747                                 L169:
   721 00000747 89 5F 18                        	MOV	DWORD [24+EDI],EBX
   722 0000074A 39 5D F0                        	CMP	DWORD [-16+EBP],EBX
   723 0000074D 0F 8E 000000A8                  	JLE	L170
   724 00000753 85 DB                           	TEST	EBX,EBX
   725 00000755 78 5C                           	JS	L171
   726 00000757 8B 4D F0                        	MOV	ECX,DWORD [-16+EBP]
   727 0000075A                                 L176:
   728 0000075A 8B 44 8E 10                     	MOV	EAX,DWORD [16+ESI+ECX*4]
   729 0000075E 89 44 8E 14                     	MOV	DWORD [20+ESI+ECX*4],EAX
   730 00000762 89 48 18                        	MOV	DWORD [24+EAX],ECX
   731 00000765 49                              	DEC	ECX
   732 00000766 39 D9                           	CMP	ECX,EBX
   733 00000768 7F F0                           	JG	L176
   734 0000076A 89 7C 9E 14                     	MOV	DWORD [20+ESI+EBX*4],EDI
   735 0000076E 43                              	INC	EBX
   736 0000076F 53                              	PUSH	EBX
   737 00000770 8B 4F 10                        	MOV	ECX,DWORD [16+EDI]
   738 00000773 89 C8                           	MOV	EAX,ECX
   739 00000775 03 47 08                        	ADD	EAX,DWORD [8+EDI]
   740 00000778 50                              	PUSH	EAX
   741 00000779 8B 57 0C                        	MOV	EDX,DWORD [12+EDI]
   742 0000077C 89 D0                           	MOV	EAX,EDX
   743 0000077E 03 47 04                        	ADD	EAX,DWORD [4+EDI]
   744 00000781 50                              	PUSH	EAX
   745 00000782 51                              	PUSH	ECX
   746 00000783 52                              	PUSH	EDX
   747 00000784 56                              	PUSH	ESI
   748 00000785 E8 FFFFF988                     	CALL	_sheet_refreshmap
   749 0000078A FF 75 F0                        	PUSH	DWORD [-16+EBP]
   750 0000078D                                 L206:
   751 0000078D 53                              	PUSH	EBX
   752 0000078E                                 L205:
   753 0000078E 8B 4F 10                        	MOV	ECX,DWORD [16+EDI]
   754 00000791 89 C8                           	MOV	EAX,ECX
   755 00000793 03 47 08                        	ADD	EAX,DWORD [8+EDI]
   756 00000796 50                              	PUSH	EAX
   757 00000797 8B 57 0C                        	MOV	EDX,DWORD [12+EDI]
   758 0000079A 89 D0                           	MOV	EAX,EDX
   759 0000079C 03 47 04                        	ADD	EAX,DWORD [4+EDI]
   760 0000079F 50                              	PUSH	EAX
   761 000007A0 51                              	PUSH	ECX
   762 000007A1 52                              	PUSH	EDX
   763 000007A2 56                              	PUSH	ESI
   764 000007A3 E8 FFFFFB95                     	CALL	_sheet_refreshsub
   765 000007A8 83 C4 34                        	ADD	ESP,52
   766 000007AB                                 L167:
   767 000007AB 8D 65 F4                        	LEA	ESP,DWORD [-12+EBP]
   768 000007AE 5B                              	POP	EBX
   769 000007AF 5E                              	POP	ESI
   770 000007B0 5F                              	POP	EDI
   771 000007B1 5D                              	POP	EBP
   772 000007B2 C3                              	RET
   773 000007B3                                 L171:
   774 000007B3 8B 46 10                        	MOV	EAX,DWORD [16+ESI]
   775 000007B6 3B 45 F0                        	CMP	EAX,DWORD [-16+EBP]
   776 000007B9 7E 18                           	JLE	L178
   777 000007BB 8B 4D F0                        	MOV	ECX,DWORD [-16+EBP]
   778 000007BE 39 C1                           	CMP	ECX,EAX
   779 000007C0 7D 11                           	JGE	L178
   780 000007C2                                 L183:
   781 000007C2 8B 44 8E 18                     	MOV	EAX,DWORD [24+ESI+ECX*4]
   782 000007C6 89 44 8E 14                     	MOV	DWORD [20+ESI+ECX*4],EAX
   783 000007CA 89 48 18                        	MOV	DWORD [24+EAX],ECX
   784 000007CD 41                              	INC	ECX
   785 000007CE 3B 4E 10                        	CMP	ECX,DWORD [16+ESI]
   786 000007D1 7C EF                           	JL	L183
   787 000007D3                                 L178:
   788 000007D3 FF 4E 10                        	DEC	DWORD [16+ESI]
   789 000007D6 6A 00                           	PUSH	0
   790 000007D8 8B 4F 10                        	MOV	ECX,DWORD [16+EDI]
   791 000007DB 89 C8                           	MOV	EAX,ECX
   792 000007DD 03 47 08                        	ADD	EAX,DWORD [8+EDI]
   793 000007E0 50                              	PUSH	EAX
   794 000007E1 8B 57 0C                        	MOV	EDX,DWORD [12+EDI]
   795 000007E4 89 D0                           	MOV	EAX,EDX
   796 000007E6 03 47 04                        	ADD	EAX,DWORD [4+EDI]
   797 000007E9 50                              	PUSH	EAX
   798 000007EA 51                              	PUSH	ECX
   799 000007EB 52                              	PUSH	EDX
   800 000007EC 56                              	PUSH	ESI
   801 000007ED E8 FFFFF920                     	CALL	_sheet_refreshmap
   802 000007F2 8B 45 F0                        	MOV	EAX,DWORD [-16+EBP]
   803 000007F5 48                              	DEC	EAX
   804 000007F6 50                              	PUSH	EAX
   805 000007F7 6A 00                           	PUSH	0
   806 000007F9 EB 93                           	JMP	L205
   807 000007FB                                 L170:
   808 000007FB 39 5D F0                        	CMP	DWORD [-16+EBP],EBX
   809 000007FE 7D AB                           	JGE	L167
   810 00000800 83 7D F0 00                     	CMP	DWORD [-16+EBP],0
   811 00000804 78 3C                           	JS	L186
   812 00000806 8B 4D F0                        	MOV	ECX,DWORD [-16+EBP]
   813 00000809 39 D9                           	CMP	ECX,EBX
   814 0000080B 7D 10                           	JGE	L202
   815 0000080D                                 L191:
   816 0000080D 8B 44 8E 18                     	MOV	EAX,DWORD [24+ESI+ECX*4]
   817 00000811 89 44 8E 14                     	MOV	DWORD [20+ESI+ECX*4],EAX
   818 00000815 89 48 18                        	MOV	DWORD [24+EAX],ECX
   819 00000818 41                              	INC	ECX
   820 00000819 39 D9                           	CMP	ECX,EBX
   821 0000081B 7C F0                           	JL	L191
   822 0000081D                                 L202:
   823 0000081D 89 7C 9E 14                     	MOV	DWORD [20+ESI+EBX*4],EDI
   824 00000821                                 L192:
   825 00000821 53                              	PUSH	EBX
   826 00000822 8B 4F 10                        	MOV	ECX,DWORD [16+EDI]
   827 00000825 89 C8                           	MOV	EAX,ECX
   828 00000827 03 47 08                        	ADD	EAX,DWORD [8+EDI]
   829 0000082A 50                              	PUSH	EAX
   830 0000082B 8B 57 0C                        	MOV	EDX,DWORD [12+EDI]
   831 0000082E 89 D0                           	MOV	EAX,EDX
   832 00000830 03 47 04                        	ADD	EAX,DWORD [4+EDI]
   833 00000833 50                              	PUSH	EAX
   834 00000834 51                              	PUSH	ECX
   835 00000835 52                              	PUSH	EDX
   836 00000836 56                              	PUSH	ESI
   837 00000837 E8 FFFFF8D6                     	CALL	_sheet_refreshmap
   838 0000083C 53                              	PUSH	EBX
   839 0000083D E9 FFFFFF4B                     	JMP	L206
   840 00000842                                 L186:
   841 00000842 8B 4E 10                        	MOV	ECX,DWORD [16+ESI]
   842 00000845 39 D9                           	CMP	ECX,EBX
   843 00000847 7C 13                           	JL	L204
   844 00000849                                 L197:
   845 00000849 8B 54 8E 14                     	MOV	EDX,DWORD [20+ESI+ECX*4]
   846 0000084D 8D 41 01                        	LEA	EAX,DWORD [1+ECX]
   847 00000850 89 54 8E 18                     	MOV	DWORD [24+ESI+ECX*4],EDX
   848 00000854 49                              	DEC	ECX
   849 00000855 89 42 18                        	MOV	DWORD [24+EDX],EAX
   850 00000858 39 D9                           	CMP	ECX,EBX
   851 0000085A 7D ED                           	JGE	L197
   852 0000085C                                 L204:
   853 0000085C 89 7C 9E 14                     	MOV	DWORD [20+ESI+EBX*4],EDI
   854 00000860 FF 46 10                        	INC	DWORD [16+ESI]
   855 00000863 EB BC                           	JMP	L192
   856 00000865                                 	GLOBAL	_sheet_refresh
   857 00000865                                 _sheet_refresh:
   858 00000865 55                              	PUSH	EBP
   859 00000866 89 E5                           	MOV	EBP,ESP
   860 00000868 53                              	PUSH	EBX
   861 00000869 8B 5D 08                        	MOV	EBX,DWORD [8+EBP]
   862 0000086C 8B 43 18                        	MOV	EAX,DWORD [24+EBX]
   863 0000086F 85 C0                           	TEST	EAX,EAX
   864 00000871 78 27                           	JS	L207
   865 00000873 50                              	PUSH	EAX
   866 00000874 50                              	PUSH	EAX
   867 00000875 8B 4B 10                        	MOV	ECX,DWORD [16+EBX]
   868 00000878 89 C8                           	MOV	EAX,ECX
   869 0000087A 03 4D 10                        	ADD	ECX,DWORD [16+EBP]
   870 0000087D 03 45 18                        	ADD	EAX,DWORD [24+EBP]
   871 00000880 50                              	PUSH	EAX
   872 00000881 8B 53 0C                        	MOV	EDX,DWORD [12+EBX]
   873 00000884 89 D0                           	MOV	EAX,EDX
   874 00000886 03 55 0C                        	ADD	EDX,DWORD [12+EBP]
   875 00000889 03 45 14                        	ADD	EAX,DWORD [20+EBP]
   876 0000088C 50                              	PUSH	EAX
   877 0000088D 51                              	PUSH	ECX
   878 0000088E 52                              	PUSH	EDX
   879 0000088F FF 73 20                        	PUSH	DWORD [32+EBX]
   880 00000892 E8 FFFFFAA6                     	CALL	_sheet_refreshsub
   881 00000897 83 C4 1C                        	ADD	ESP,28
   882 0000089A                                 L207:
   883 0000089A 8B 5D FC                        	MOV	EBX,DWORD [-4+EBP]
   884 0000089D C9                              	LEAVE
   885 0000089E C3                              	RET
   886 0000089F                                 	GLOBAL	_sheet_slide
   887 0000089F                                 _sheet_slide:
   888 0000089F 55                              	PUSH	EBP
   889 000008A0 89 E5                           	MOV	EBP,ESP
   890 000008A2 57                              	PUSH	EDI
   891 000008A3 56                              	PUSH	ESI
   892 000008A4 53                              	PUSH	EBX
   893 000008A5 52                              	PUSH	EDX
   894 000008A6 8B 5D 08                        	MOV	EBX,DWORD [8+EBP]
   895 000008A9 8B 43 20                        	MOV	EAX,DWORD [32+EBX]
   896 000008AC 8B 7B 0C                        	MOV	EDI,DWORD [12+EBX]
   897 000008AF 89 45 F0                        	MOV	DWORD [-16+EBP],EAX
   898 000008B2 8B 73 10                        	MOV	ESI,DWORD [16+EBX]
   899 000008B5 8B 45 0C                        	MOV	EAX,DWORD [12+EBP]
   900 000008B8 89 43 0C                        	MOV	DWORD [12+EBX],EAX
   901 000008BB 8B 45 10                        	MOV	EAX,DWORD [16+EBP]
   902 000008BE 89 43 10                        	MOV	DWORD [16+EBX],EAX
   903 000008C1 83 7B 18 00                     	CMP	DWORD [24+EBX],0
   904 000008C5 78 7C                           	JS	L209
   905 000008C7 6A 00                           	PUSH	0
   906 000008C9 89 F0                           	MOV	EAX,ESI
   907 000008CB 03 43 08                        	ADD	EAX,DWORD [8+EBX]
   908 000008CE 50                              	PUSH	EAX
   909 000008CF 89 F8                           	MOV	EAX,EDI
   910 000008D1 03 43 04                        	ADD	EAX,DWORD [4+EBX]
   911 000008D4 50                              	PUSH	EAX
   912 000008D5 56                              	PUSH	ESI
   913 000008D6 57                              	PUSH	EDI
   914 000008D7 FF 75 F0                        	PUSH	DWORD [-16+EBP]
   915 000008DA E8 FFFFF833                     	CALL	_sheet_refreshmap
   916 000008DF 8B 45 10                        	MOV	EAX,DWORD [16+EBP]
   917 000008E2 FF 73 18                        	PUSH	DWORD [24+EBX]
   918 000008E5 03 43 08                        	ADD	EAX,DWORD [8+EBX]
   919 000008E8 50                              	PUSH	EAX
   920 000008E9 8B 45 0C                        	MOV	EAX,DWORD [12+EBP]
   921 000008EC 03 43 04                        	ADD	EAX,DWORD [4+EBX]
   922 000008EF 50                              	PUSH	EAX
   923 000008F0 FF 75 10                        	PUSH	DWORD [16+EBP]
   924 000008F3 FF 75 0C                        	PUSH	DWORD [12+EBP]
   925 000008F6 FF 75 F0                        	PUSH	DWORD [-16+EBP]
   926 000008F9 E8 FFFFF814                     	CALL	_sheet_refreshmap
   927 000008FE 8B 43 18                        	MOV	EAX,DWORD [24+EBX]
   928 00000901 83 C4 30                        	ADD	ESP,48
   929 00000904 48                              	DEC	EAX
   930 00000905 50                              	PUSH	EAX
   931 00000906 89 F0                           	MOV	EAX,ESI
   932 00000908 6A 00                           	PUSH	0
   933 0000090A 03 43 08                        	ADD	EAX,DWORD [8+EBX]
   934 0000090D 50                              	PUSH	EAX
   935 0000090E 89 F8                           	MOV	EAX,EDI
   936 00000910 03 43 04                        	ADD	EAX,DWORD [4+EBX]
   937 00000913 50                              	PUSH	EAX
   938 00000914 56                              	PUSH	ESI
   939 00000915 57                              	PUSH	EDI
   940 00000916 FF 75 F0                        	PUSH	DWORD [-16+EBP]
   941 00000919 E8 FFFFFA1F                     	CALL	_sheet_refreshsub
   942 0000091E 8B 45 10                        	MOV	EAX,DWORD [16+EBP]
   943 00000921 FF 73 18                        	PUSH	DWORD [24+EBX]
   944 00000924 FF 73 18                        	PUSH	DWORD [24+EBX]
   945 00000927 03 43 08                        	ADD	EAX,DWORD [8+EBX]
   946 0000092A 50                              	PUSH	EAX
   947 0000092B 8B 45 0C                        	MOV	EAX,DWORD [12+EBP]
   948 0000092E 03 43 04                        	ADD	EAX,DWORD [4+EBX]
   949 00000931 50                              	PUSH	EAX
   950 00000932 FF 75 10                        	PUSH	DWORD [16+EBP]
   951 00000935 FF 75 0C                        	PUSH	DWORD [12+EBP]
   952 00000938 FF 75 F0                        	PUSH	DWORD [-16+EBP]
   953 0000093B E8 FFFFF9FD                     	CALL	_sheet_refreshsub
   954 00000940 83 C4 38                        	ADD	ESP,56
   955 00000943                                 L209:
   956 00000943 8D 65 F4                        	LEA	ESP,DWORD [-12+EBP]
   957 00000946 5B                              	POP	EBX
   958 00000947 5E                              	POP	ESI
   959 00000948 5F                              	POP	EDI
   960 00000949 5D                              	POP	EBP
   961 0000094A C3                              	RET
   962 0000094B                                 	GLOBAL	_sheet_free
   963 0000094B                                 _sheet_free:
   964 0000094B 55                              	PUSH	EBP
   965 0000094C 89 E5                           	MOV	EBP,ESP
   966 0000094E 53                              	PUSH	EBX
   967 0000094F 8B 5D 08                        	MOV	EBX,DWORD [8+EBP]
   968 00000952 83 7B 18 00                     	CMP	DWORD [24+EBX],0
   969 00000956 78 0A                           	JS	L212
   970 00000958 6A FF                           	PUSH	-1
   971 0000095A 53                              	PUSH	EBX
   972 0000095B E8 FFFFFDBF                     	CALL	_sheet_updown
   973 00000960 59                              	POP	ECX
   974 00000961 58                              	POP	EAX
   975 00000962                                 L212:
   976 00000962 C7 43 1C 00000000               	MOV	DWORD [28+EBX],0
   977 00000969 8B 5D FC                        	MOV	EBX,DWORD [-4+EBP]
   978 0000096C C9                              	LEAVE
   979 0000096D C3                              	RET
